                                      1 ;--------------------------------------------------------
                                      2 ; File Created by SDCC : free open source ANSI-C Compiler
                                      3 ; Version 3.5.0 #9253 (Sep  7 2022) (Linux)
                                      4 ; This file was generated Wed Sep  7 10:05:08 2022
                                      5 ;--------------------------------------------------------
                                      6 	.module golay
                                      7 	.optsdcc -mmcs51 --model-large
                                      8 	
                                      9 ;--------------------------------------------------------
                                     10 ; Public variables in this module
                                     11 ;--------------------------------------------------------
                                     12 	.globl _golay_decode
                                     13 	.globl _golay_encode
                                     14 	.globl _NSS1
                                     15 	.globl _IRQ
                                     16 	.globl _PIN_ENABLE
                                     17 	.globl _PIN_CONFIG
                                     18 	.globl _LED_GREEN
                                     19 	.globl _LED_RED
                                     20 	.globl _SPI1EN
                                     21 	.globl _TXBMT1
                                     22 	.globl _NSS1MD0
                                     23 	.globl _NSS1MD1
                                     24 	.globl _RXOVRN1
                                     25 	.globl _MODF1
                                     26 	.globl _WCOL1
                                     27 	.globl _SPIF1
                                     28 	.globl _SPI0EN
                                     29 	.globl _TXBMT0
                                     30 	.globl _NSS0MD0
                                     31 	.globl _NSS0MD1
                                     32 	.globl _RXOVRN0
                                     33 	.globl _MODF0
                                     34 	.globl _WCOL0
                                     35 	.globl _SPIF0
                                     36 	.globl _AD0CM0
                                     37 	.globl _AD0CM1
                                     38 	.globl _AD0CM2
                                     39 	.globl _AD0WINT
                                     40 	.globl _AD0BUSY
                                     41 	.globl _AD0INT
                                     42 	.globl _BURSTEN
                                     43 	.globl _AD0EN
                                     44 	.globl _CCF0
                                     45 	.globl _CCF1
                                     46 	.globl _CCF2
                                     47 	.globl _CCF3
                                     48 	.globl _CCF4
                                     49 	.globl _CCF5
                                     50 	.globl _CR
                                     51 	.globl _CF
                                     52 	.globl _P
                                     53 	.globl _F1
                                     54 	.globl _OV
                                     55 	.globl _RS0
                                     56 	.globl _RS1
                                     57 	.globl _F0
                                     58 	.globl _AC
                                     59 	.globl _CY
                                     60 	.globl _T2XCLK
                                     61 	.globl _T2RCLK
                                     62 	.globl _TR2
                                     63 	.globl _T2SPLIT
                                     64 	.globl _TF2CEN
                                     65 	.globl _TF2LEN
                                     66 	.globl _TF2L
                                     67 	.globl _TF2H
                                     68 	.globl _SI
                                     69 	.globl _ACK
                                     70 	.globl _ARBLOST
                                     71 	.globl _ACKRQ
                                     72 	.globl _STO
                                     73 	.globl _STA
                                     74 	.globl _TXMODE
                                     75 	.globl _MASTER
                                     76 	.globl _PX0
                                     77 	.globl _PT0
                                     78 	.globl _PX1
                                     79 	.globl _PT1
                                     80 	.globl _PS0
                                     81 	.globl _PT2
                                     82 	.globl _PSPI0
                                     83 	.globl _EX0
                                     84 	.globl _ET0
                                     85 	.globl _EX1
                                     86 	.globl _ET1
                                     87 	.globl _ES0
                                     88 	.globl _ET2
                                     89 	.globl _ESPI0
                                     90 	.globl _EA
                                     91 	.globl _RI0
                                     92 	.globl _TI0
                                     93 	.globl _RB80
                                     94 	.globl _TB80
                                     95 	.globl _REN0
                                     96 	.globl _MCE0
                                     97 	.globl _S0MODE
                                     98 	.globl _IT0
                                     99 	.globl _IE0
                                    100 	.globl _IT1
                                    101 	.globl _IE1
                                    102 	.globl _TR0
                                    103 	.globl _TF0
                                    104 	.globl _TR1
                                    105 	.globl _TF1
                                    106 	.globl __XPAGE
                                    107 	.globl _PCA0CP4
                                    108 	.globl _PCA0CP0
                                    109 	.globl _PCA0
                                    110 	.globl _PCA0CP3
                                    111 	.globl _PCA0CP2
                                    112 	.globl _PCA0CP1
                                    113 	.globl _PCA0CP5
                                    114 	.globl _TMR2
                                    115 	.globl _TMR2RL
                                    116 	.globl _ADC0LT
                                    117 	.globl _ADC0GT
                                    118 	.globl _ADC0
                                    119 	.globl _TMR3
                                    120 	.globl _TMR3RL
                                    121 	.globl _TOFF
                                    122 	.globl _DP
                                    123 	.globl _PCLKEN
                                    124 	.globl _CLKMODE
                                    125 	.globl _P7MDOUT
                                    126 	.globl _P6MDOUT
                                    127 	.globl _P5MDOUT
                                    128 	.globl _P4MDOUT
                                    129 	.globl _PCLKACT
                                    130 	.globl _P6MDIN
                                    131 	.globl _P5MDIN
                                    132 	.globl _P4MDIN
                                    133 	.globl _P3MDIN
                                    134 	.globl _DEVICEID
                                    135 	.globl _REVID
                                    136 	.globl _HWID
                                    137 	.globl _P7
                                    138 	.globl _P6
                                    139 	.globl _P5
                                    140 	.globl _P4
                                    141 	.globl _TOFFH
                                    142 	.globl _TOFFL
                                    143 	.globl _ADC0TK
                                    144 	.globl _ADC0PWR
                                    145 	.globl _IREF0CF
                                    146 	.globl _FLSCL
                                    147 	.globl _OSCICL
                                    148 	.globl _OSCIFL
                                    149 	.globl _P3MDOUT
                                    150 	.globl _LCD0BUFCF
                                    151 	.globl _P7DRV
                                    152 	.globl _P6DRV
                                    153 	.globl _P2DRV
                                    154 	.globl _P1DRV
                                    155 	.globl _P0DRV
                                    156 	.globl _P5DRV
                                    157 	.globl _P4DRV
                                    158 	.globl _P3DRV
                                    159 	.globl _LCD0BUFCN
                                    160 	.globl _CRC0CNT
                                    161 	.globl _CRC0AUTO
                                    162 	.globl _CRC0FLIP
                                    163 	.globl _CRC0IN
                                    164 	.globl _CRC0CN
                                    165 	.globl _CRC0DAT
                                    166 	.globl _SFRPGCN
                                    167 	.globl _DC0RDY
                                    168 	.globl _PC0INT1
                                    169 	.globl _PC0INT0
                                    170 	.globl _PC0DCH
                                    171 	.globl _PC0DCL
                                    172 	.globl _SPI1CN
                                    173 	.globl _AES0YOUT
                                    174 	.globl _PC0HIST
                                    175 	.globl _PC0CMP1H
                                    176 	.globl _PC0CMP1M
                                    177 	.globl _PC0CMP1L
                                    178 	.globl _AES0KBA
                                    179 	.globl _AES0DBA
                                    180 	.globl _AES0KIN
                                    181 	.globl _AES0XIN
                                    182 	.globl _AES0BIN
                                    183 	.globl _AES0DCFG
                                    184 	.globl _AES0BCFG
                                    185 	.globl _PC0TH
                                    186 	.globl _PC0CMP0H
                                    187 	.globl _PC0CMP0M
                                    188 	.globl _PC0CMP0L
                                    189 	.globl _PC0CTR1H
                                    190 	.globl _PC0CTR1M
                                    191 	.globl _PC0CTR1L
                                    192 	.globl _PC0CTR0H
                                    193 	.globl _PC0CTR0M
                                    194 	.globl _PC0CTR0L
                                    195 	.globl _PC0MD
                                    196 	.globl _PC0PCF
                                    197 	.globl _DMA0NMD
                                    198 	.globl _DMA0BUSY
                                    199 	.globl _DMA0MINT
                                    200 	.globl _DMA0INT
                                    201 	.globl _DMA0EN
                                    202 	.globl _DMA0SEL
                                    203 	.globl _DMA0NSZH
                                    204 	.globl _DMA0NSZL
                                    205 	.globl _DMA0NAOH
                                    206 	.globl _DMA0NAOL
                                    207 	.globl _DMA0NBAH
                                    208 	.globl _DMA0NBAL
                                    209 	.globl _DMA0NCF
                                    210 	.globl _VREGINSDH
                                    211 	.globl _VREGINSDL
                                    212 	.globl _ENC0CN
                                    213 	.globl _ENC0H
                                    214 	.globl _ENC0M
                                    215 	.globl _ENC0L
                                    216 	.globl _PC0STAT
                                    217 	.globl _CRC1CN
                                    218 	.globl _CRC1POLH
                                    219 	.globl _CRC1POLL
                                    220 	.globl _CRC1OUTH
                                    221 	.globl _CRC1OUTL
                                    222 	.globl _CRC1IN
                                    223 	.globl _LCD0BUFMD
                                    224 	.globl _LCD0CHPCN
                                    225 	.globl _DC0MD
                                    226 	.globl _DC0CF
                                    227 	.globl _DC0CN
                                    228 	.globl _LCD0VBMCF
                                    229 	.globl _LCD0CHPMD
                                    230 	.globl _LCD0CHPCF
                                    231 	.globl _LCD0MSCF
                                    232 	.globl _LCD0MSCN
                                    233 	.globl _LCD0CLKDIVH
                                    234 	.globl _LCD0CLKDIVL
                                    235 	.globl _LCD0VBMCN
                                    236 	.globl _LCD0CF
                                    237 	.globl _LCD0PWR
                                    238 	.globl _SPI1DAT
                                    239 	.globl _SPI1CKR
                                    240 	.globl _SPI1CFG
                                    241 	.globl _LCD0TOGR
                                    242 	.globl _LCD0BLINK
                                    243 	.globl _LCD0CN
                                    244 	.globl _LCD0CNTRST
                                    245 	.globl _LCD0DF
                                    246 	.globl _LCD0DE
                                    247 	.globl _LCD0DD
                                    248 	.globl _LCD0DC
                                    249 	.globl _LCD0DB
                                    250 	.globl _LCD0DA
                                    251 	.globl _LCD0D9
                                    252 	.globl _LCD0D8
                                    253 	.globl _LCD0D7
                                    254 	.globl _LCD0D6
                                    255 	.globl _LCD0D5
                                    256 	.globl _LCD0D4
                                    257 	.globl _LCD0D3
                                    258 	.globl _LCD0D2
                                    259 	.globl _LCD0D1
                                    260 	.globl _LCD0D0
                                    261 	.globl _VDM0CN
                                    262 	.globl _PCA0CPH4
                                    263 	.globl _PCA0CPL4
                                    264 	.globl _PCA0CPH0
                                    265 	.globl _PCA0CPL0
                                    266 	.globl _PCA0H
                                    267 	.globl _PCA0L
                                    268 	.globl _SPI0CN
                                    269 	.globl _EIP2
                                    270 	.globl _EIP1
                                    271 	.globl _SMB0ADM
                                    272 	.globl _SMB0ADR
                                    273 	.globl _P2MDIN
                                    274 	.globl _P1MDIN
                                    275 	.globl _P0MDIN
                                    276 	.globl _B
                                    277 	.globl _RSTSRC
                                    278 	.globl _PCA0CPH3
                                    279 	.globl _PCA0CPL3
                                    280 	.globl _PCA0CPH2
                                    281 	.globl _PCA0CPL2
                                    282 	.globl _PCA0CPH1
                                    283 	.globl _PCA0CPL1
                                    284 	.globl _ADC0CN
                                    285 	.globl _EIE2
                                    286 	.globl _EIE1
                                    287 	.globl _FLWR
                                    288 	.globl _IT01CF
                                    289 	.globl _XBR2
                                    290 	.globl _XBR1
                                    291 	.globl _XBR0
                                    292 	.globl _ACC
                                    293 	.globl _PCA0PWM
                                    294 	.globl _PCA0CPM4
                                    295 	.globl _PCA0CPM3
                                    296 	.globl _PCA0CPM2
                                    297 	.globl _PCA0CPM1
                                    298 	.globl _PCA0CPM0
                                    299 	.globl _PCA0MD
                                    300 	.globl _PCA0CN
                                    301 	.globl _P0MAT
                                    302 	.globl _P2SKIP
                                    303 	.globl _P1SKIP
                                    304 	.globl _P0SKIP
                                    305 	.globl _PCA0CPH5
                                    306 	.globl _PCA0CPL5
                                    307 	.globl _REF0CN
                                    308 	.globl _PSW
                                    309 	.globl _P1MAT
                                    310 	.globl _PCA0CPM5
                                    311 	.globl _TMR2H
                                    312 	.globl _TMR2L
                                    313 	.globl _TMR2RLH
                                    314 	.globl _TMR2RLL
                                    315 	.globl _REG0CN
                                    316 	.globl _TMR2CN
                                    317 	.globl _P0MASK
                                    318 	.globl _ADC0LTH
                                    319 	.globl _ADC0LTL
                                    320 	.globl _ADC0GTH
                                    321 	.globl _ADC0GTL
                                    322 	.globl _SMB0DAT
                                    323 	.globl _SMB0CF
                                    324 	.globl _SMB0CN
                                    325 	.globl _P1MASK
                                    326 	.globl _ADC0H
                                    327 	.globl _ADC0L
                                    328 	.globl _ADC0CF
                                    329 	.globl _ADC0MX
                                    330 	.globl _ADC0AC
                                    331 	.globl _IREF0CN
                                    332 	.globl _IP
                                    333 	.globl _FLKEY
                                    334 	.globl _PMU0FL
                                    335 	.globl _PMU0CF
                                    336 	.globl _PMU0MD
                                    337 	.globl _OSCICN
                                    338 	.globl _OSCXCN
                                    339 	.globl _P3
                                    340 	.globl _EMI0TC
                                    341 	.globl _RTC0KEY
                                    342 	.globl _RTC0DAT
                                    343 	.globl _RTC0ADR
                                    344 	.globl _EMI0CF
                                    345 	.globl _EMI0CN
                                    346 	.globl _CLKSEL
                                    347 	.globl _IE
                                    348 	.globl _SFRPAGE
                                    349 	.globl _P2MDOUT
                                    350 	.globl _P1MDOUT
                                    351 	.globl _P0MDOUT
                                    352 	.globl _SPI0DAT
                                    353 	.globl _SPI0CKR
                                    354 	.globl _SPI0CFG
                                    355 	.globl _P2
                                    356 	.globl _CPT0MX
                                    357 	.globl _CPT1MX
                                    358 	.globl _CPT0MD
                                    359 	.globl _CPT1MD
                                    360 	.globl _CPT0CN
                                    361 	.globl _CPT1CN
                                    362 	.globl _SBUF0
                                    363 	.globl _SCON0
                                    364 	.globl _TMR3H
                                    365 	.globl _TMR3L
                                    366 	.globl _TMR3RLH
                                    367 	.globl _TMR3RLL
                                    368 	.globl _TMR3CN
                                    369 	.globl _P1
                                    370 	.globl _PSCTL
                                    371 	.globl _CKCON
                                    372 	.globl _TH1
                                    373 	.globl _TH0
                                    374 	.globl _TL1
                                    375 	.globl _TL0
                                    376 	.globl _TMOD
                                    377 	.globl _TCON
                                    378 	.globl _PCON
                                    379 	.globl _SFRLAST
                                    380 	.globl _SFRNEXT
                                    381 	.globl _PSBANK
                                    382 	.globl _DPH
                                    383 	.globl _DPL
                                    384 	.globl _SP
                                    385 	.globl _P0
                                    386 	.globl _golay_decode_PARM_3
                                    387 	.globl _golay_decode_PARM_2
                                    388 	.globl _golay_encode_PARM_3
                                    389 	.globl _golay_encode_PARM_2
                                    390 ;--------------------------------------------------------
                                    391 ; special function registers
                                    392 ;--------------------------------------------------------
                                    393 	.area RSEG    (ABS,DATA)
      000000                        394 	.org 0x0000
                           000080   395 _P0	=	0x0080
                           000081   396 _SP	=	0x0081
                           000082   397 _DPL	=	0x0082
                           000083   398 _DPH	=	0x0083
                           000084   399 _PSBANK	=	0x0084
                           000085   400 _SFRNEXT	=	0x0085
                           000086   401 _SFRLAST	=	0x0086
                           000087   402 _PCON	=	0x0087
                           000088   403 _TCON	=	0x0088
                           000089   404 _TMOD	=	0x0089
                           00008A   405 _TL0	=	0x008a
                           00008B   406 _TL1	=	0x008b
                           00008C   407 _TH0	=	0x008c
                           00008D   408 _TH1	=	0x008d
                           00008E   409 _CKCON	=	0x008e
                           00008F   410 _PSCTL	=	0x008f
                           000090   411 _P1	=	0x0090
                           000091   412 _TMR3CN	=	0x0091
                           000092   413 _TMR3RLL	=	0x0092
                           000093   414 _TMR3RLH	=	0x0093
                           000094   415 _TMR3L	=	0x0094
                           000095   416 _TMR3H	=	0x0095
                           000098   417 _SCON0	=	0x0098
                           000099   418 _SBUF0	=	0x0099
                           00009A   419 _CPT1CN	=	0x009a
                           00009B   420 _CPT0CN	=	0x009b
                           00009C   421 _CPT1MD	=	0x009c
                           00009D   422 _CPT0MD	=	0x009d
                           00009E   423 _CPT1MX	=	0x009e
                           00009F   424 _CPT0MX	=	0x009f
                           0000A0   425 _P2	=	0x00a0
                           0000A1   426 _SPI0CFG	=	0x00a1
                           0000A2   427 _SPI0CKR	=	0x00a2
                           0000A3   428 _SPI0DAT	=	0x00a3
                           0000A4   429 _P0MDOUT	=	0x00a4
                           0000A5   430 _P1MDOUT	=	0x00a5
                           0000A6   431 _P2MDOUT	=	0x00a6
                           0000A7   432 _SFRPAGE	=	0x00a7
                           0000A8   433 _IE	=	0x00a8
                           0000A9   434 _CLKSEL	=	0x00a9
                           0000AA   435 _EMI0CN	=	0x00aa
                           0000AB   436 _EMI0CF	=	0x00ab
                           0000AC   437 _RTC0ADR	=	0x00ac
                           0000AD   438 _RTC0DAT	=	0x00ad
                           0000AE   439 _RTC0KEY	=	0x00ae
                           0000AF   440 _EMI0TC	=	0x00af
                           0000B0   441 _P3	=	0x00b0
                           0000B1   442 _OSCXCN	=	0x00b1
                           0000B2   443 _OSCICN	=	0x00b2
                           0000B3   444 _PMU0MD	=	0x00b3
                           0000B5   445 _PMU0CF	=	0x00b5
                           0000B6   446 _PMU0FL	=	0x00b6
                           0000B7   447 _FLKEY	=	0x00b7
                           0000B8   448 _IP	=	0x00b8
                           0000B9   449 _IREF0CN	=	0x00b9
                           0000BA   450 _ADC0AC	=	0x00ba
                           0000BB   451 _ADC0MX	=	0x00bb
                           0000BC   452 _ADC0CF	=	0x00bc
                           0000BD   453 _ADC0L	=	0x00bd
                           0000BE   454 _ADC0H	=	0x00be
                           0000BF   455 _P1MASK	=	0x00bf
                           0000C0   456 _SMB0CN	=	0x00c0
                           0000C1   457 _SMB0CF	=	0x00c1
                           0000C2   458 _SMB0DAT	=	0x00c2
                           0000C3   459 _ADC0GTL	=	0x00c3
                           0000C4   460 _ADC0GTH	=	0x00c4
                           0000C5   461 _ADC0LTL	=	0x00c5
                           0000C6   462 _ADC0LTH	=	0x00c6
                           0000C7   463 _P0MASK	=	0x00c7
                           0000C8   464 _TMR2CN	=	0x00c8
                           0000C9   465 _REG0CN	=	0x00c9
                           0000CA   466 _TMR2RLL	=	0x00ca
                           0000CB   467 _TMR2RLH	=	0x00cb
                           0000CC   468 _TMR2L	=	0x00cc
                           0000CD   469 _TMR2H	=	0x00cd
                           0000CE   470 _PCA0CPM5	=	0x00ce
                           0000CF   471 _P1MAT	=	0x00cf
                           0000D0   472 _PSW	=	0x00d0
                           0000D1   473 _REF0CN	=	0x00d1
                           0000D2   474 _PCA0CPL5	=	0x00d2
                           0000D3   475 _PCA0CPH5	=	0x00d3
                           0000D4   476 _P0SKIP	=	0x00d4
                           0000D5   477 _P1SKIP	=	0x00d5
                           0000D6   478 _P2SKIP	=	0x00d6
                           0000D7   479 _P0MAT	=	0x00d7
                           0000D8   480 _PCA0CN	=	0x00d8
                           0000D9   481 _PCA0MD	=	0x00d9
                           0000DA   482 _PCA0CPM0	=	0x00da
                           0000DB   483 _PCA0CPM1	=	0x00db
                           0000DC   484 _PCA0CPM2	=	0x00dc
                           0000DD   485 _PCA0CPM3	=	0x00dd
                           0000DE   486 _PCA0CPM4	=	0x00de
                           0000DF   487 _PCA0PWM	=	0x00df
                           0000E0   488 _ACC	=	0x00e0
                           0000E1   489 _XBR0	=	0x00e1
                           0000E2   490 _XBR1	=	0x00e2
                           0000E3   491 _XBR2	=	0x00e3
                           0000E4   492 _IT01CF	=	0x00e4
                           0000E5   493 _FLWR	=	0x00e5
                           0000E6   494 _EIE1	=	0x00e6
                           0000E7   495 _EIE2	=	0x00e7
                           0000E8   496 _ADC0CN	=	0x00e8
                           0000E9   497 _PCA0CPL1	=	0x00e9
                           0000EA   498 _PCA0CPH1	=	0x00ea
                           0000EB   499 _PCA0CPL2	=	0x00eb
                           0000EC   500 _PCA0CPH2	=	0x00ec
                           0000ED   501 _PCA0CPL3	=	0x00ed
                           0000EE   502 _PCA0CPH3	=	0x00ee
                           0000EF   503 _RSTSRC	=	0x00ef
                           0000F0   504 _B	=	0x00f0
                           0000F1   505 _P0MDIN	=	0x00f1
                           0000F2   506 _P1MDIN	=	0x00f2
                           0000F3   507 _P2MDIN	=	0x00f3
                           0000F4   508 _SMB0ADR	=	0x00f4
                           0000F5   509 _SMB0ADM	=	0x00f5
                           0000F6   510 _EIP1	=	0x00f6
                           0000F7   511 _EIP2	=	0x00f7
                           0000F8   512 _SPI0CN	=	0x00f8
                           0000F9   513 _PCA0L	=	0x00f9
                           0000FA   514 _PCA0H	=	0x00fa
                           0000FB   515 _PCA0CPL0	=	0x00fb
                           0000FC   516 _PCA0CPH0	=	0x00fc
                           0000FD   517 _PCA0CPL4	=	0x00fd
                           0000FE   518 _PCA0CPH4	=	0x00fe
                           0000FF   519 _VDM0CN	=	0x00ff
                           000089   520 _LCD0D0	=	0x0089
                           00008A   521 _LCD0D1	=	0x008a
                           00008B   522 _LCD0D2	=	0x008b
                           00008C   523 _LCD0D3	=	0x008c
                           00008D   524 _LCD0D4	=	0x008d
                           00008E   525 _LCD0D5	=	0x008e
                           000091   526 _LCD0D6	=	0x0091
                           000092   527 _LCD0D7	=	0x0092
                           000093   528 _LCD0D8	=	0x0093
                           000094   529 _LCD0D9	=	0x0094
                           000095   530 _LCD0DA	=	0x0095
                           000096   531 _LCD0DB	=	0x0096
                           000097   532 _LCD0DC	=	0x0097
                           000099   533 _LCD0DD	=	0x0099
                           00009A   534 _LCD0DE	=	0x009a
                           00009B   535 _LCD0DF	=	0x009b
                           00009C   536 _LCD0CNTRST	=	0x009c
                           00009D   537 _LCD0CN	=	0x009d
                           00009E   538 _LCD0BLINK	=	0x009e
                           00009F   539 _LCD0TOGR	=	0x009f
                           0000A1   540 _SPI1CFG	=	0x00a1
                           0000A2   541 _SPI1CKR	=	0x00a2
                           0000A3   542 _SPI1DAT	=	0x00a3
                           0000A4   543 _LCD0PWR	=	0x00a4
                           0000A5   544 _LCD0CF	=	0x00a5
                           0000A6   545 _LCD0VBMCN	=	0x00a6
                           0000A9   546 _LCD0CLKDIVL	=	0x00a9
                           0000AA   547 _LCD0CLKDIVH	=	0x00aa
                           0000AB   548 _LCD0MSCN	=	0x00ab
                           0000AC   549 _LCD0MSCF	=	0x00ac
                           0000AD   550 _LCD0CHPCF	=	0x00ad
                           0000AE   551 _LCD0CHPMD	=	0x00ae
                           0000AF   552 _LCD0VBMCF	=	0x00af
                           0000B1   553 _DC0CN	=	0x00b1
                           0000B2   554 _DC0CF	=	0x00b2
                           0000B3   555 _DC0MD	=	0x00b3
                           0000B5   556 _LCD0CHPCN	=	0x00b5
                           0000B6   557 _LCD0BUFMD	=	0x00b6
                           0000B9   558 _CRC1IN	=	0x00b9
                           0000BA   559 _CRC1OUTL	=	0x00ba
                           0000BB   560 _CRC1OUTH	=	0x00bb
                           0000BC   561 _CRC1POLL	=	0x00bc
                           0000BD   562 _CRC1POLH	=	0x00bd
                           0000BE   563 _CRC1CN	=	0x00be
                           0000C1   564 _PC0STAT	=	0x00c1
                           0000C2   565 _ENC0L	=	0x00c2
                           0000C3   566 _ENC0M	=	0x00c3
                           0000C4   567 _ENC0H	=	0x00c4
                           0000C5   568 _ENC0CN	=	0x00c5
                           0000C6   569 _VREGINSDL	=	0x00c6
                           0000C7   570 _VREGINSDH	=	0x00c7
                           0000C9   571 _DMA0NCF	=	0x00c9
                           0000CA   572 _DMA0NBAL	=	0x00ca
                           0000CB   573 _DMA0NBAH	=	0x00cb
                           0000CC   574 _DMA0NAOL	=	0x00cc
                           0000CD   575 _DMA0NAOH	=	0x00cd
                           0000CE   576 _DMA0NSZL	=	0x00ce
                           0000CF   577 _DMA0NSZH	=	0x00cf
                           0000D1   578 _DMA0SEL	=	0x00d1
                           0000D2   579 _DMA0EN	=	0x00d2
                           0000D3   580 _DMA0INT	=	0x00d3
                           0000D4   581 _DMA0MINT	=	0x00d4
                           0000D5   582 _DMA0BUSY	=	0x00d5
                           0000D6   583 _DMA0NMD	=	0x00d6
                           0000D7   584 _PC0PCF	=	0x00d7
                           0000D9   585 _PC0MD	=	0x00d9
                           0000DA   586 _PC0CTR0L	=	0x00da
                           0000DB   587 _PC0CTR0M	=	0x00db
                           0000DC   588 _PC0CTR0H	=	0x00dc
                           0000DD   589 _PC0CTR1L	=	0x00dd
                           0000DE   590 _PC0CTR1M	=	0x00de
                           0000DF   591 _PC0CTR1H	=	0x00df
                           0000E1   592 _PC0CMP0L	=	0x00e1
                           0000E2   593 _PC0CMP0M	=	0x00e2
                           0000E3   594 _PC0CMP0H	=	0x00e3
                           0000E4   595 _PC0TH	=	0x00e4
                           0000E9   596 _AES0BCFG	=	0x00e9
                           0000EA   597 _AES0DCFG	=	0x00ea
                           0000EB   598 _AES0BIN	=	0x00eb
                           0000EC   599 _AES0XIN	=	0x00ec
                           0000ED   600 _AES0KIN	=	0x00ed
                           0000EE   601 _AES0DBA	=	0x00ee
                           0000EF   602 _AES0KBA	=	0x00ef
                           0000F1   603 _PC0CMP1L	=	0x00f1
                           0000F2   604 _PC0CMP1M	=	0x00f2
                           0000F3   605 _PC0CMP1H	=	0x00f3
                           0000F4   606 _PC0HIST	=	0x00f4
                           0000F5   607 _AES0YOUT	=	0x00f5
                           0000F8   608 _SPI1CN	=	0x00f8
                           0000F9   609 _PC0DCL	=	0x00f9
                           0000FA   610 _PC0DCH	=	0x00fa
                           0000FB   611 _PC0INT0	=	0x00fb
                           0000FC   612 _PC0INT1	=	0x00fc
                           0000FD   613 _DC0RDY	=	0x00fd
                           00008E   614 _SFRPGCN	=	0x008e
                           000091   615 _CRC0DAT	=	0x0091
                           000092   616 _CRC0CN	=	0x0092
                           000093   617 _CRC0IN	=	0x0093
                           000094   618 _CRC0FLIP	=	0x0094
                           000096   619 _CRC0AUTO	=	0x0096
                           000097   620 _CRC0CNT	=	0x0097
                           00009C   621 _LCD0BUFCN	=	0x009c
                           0000A1   622 _P3DRV	=	0x00a1
                           0000A2   623 _P4DRV	=	0x00a2
                           0000A3   624 _P5DRV	=	0x00a3
                           0000A4   625 _P0DRV	=	0x00a4
                           0000A5   626 _P1DRV	=	0x00a5
                           0000A6   627 _P2DRV	=	0x00a6
                           0000AA   628 _P6DRV	=	0x00aa
                           0000AB   629 _P7DRV	=	0x00ab
                           0000AC   630 _LCD0BUFCF	=	0x00ac
                           0000B1   631 _P3MDOUT	=	0x00b1
                           0000B2   632 _OSCIFL	=	0x00b2
                           0000B3   633 _OSCICL	=	0x00b3
                           0000B6   634 _FLSCL	=	0x00b6
                           0000B9   635 _IREF0CF	=	0x00b9
                           0000BB   636 _ADC0PWR	=	0x00bb
                           0000BC   637 _ADC0TK	=	0x00bc
                           0000BD   638 _TOFFL	=	0x00bd
                           0000BE   639 _TOFFH	=	0x00be
                           0000D9   640 _P4	=	0x00d9
                           0000DA   641 _P5	=	0x00da
                           0000DB   642 _P6	=	0x00db
                           0000DC   643 _P7	=	0x00dc
                           0000E9   644 _HWID	=	0x00e9
                           0000EA   645 _REVID	=	0x00ea
                           0000EB   646 _DEVICEID	=	0x00eb
                           0000F1   647 _P3MDIN	=	0x00f1
                           0000F2   648 _P4MDIN	=	0x00f2
                           0000F3   649 _P5MDIN	=	0x00f3
                           0000F4   650 _P6MDIN	=	0x00f4
                           0000F5   651 _PCLKACT	=	0x00f5
                           0000F9   652 _P4MDOUT	=	0x00f9
                           0000FA   653 _P5MDOUT	=	0x00fa
                           0000FB   654 _P6MDOUT	=	0x00fb
                           0000FC   655 _P7MDOUT	=	0x00fc
                           0000FD   656 _CLKMODE	=	0x00fd
                           0000FE   657 _PCLKEN	=	0x00fe
                           008382   658 _DP	=	0x8382
                           008685   659 _TOFF	=	0x8685
                           009392   660 _TMR3RL	=	0x9392
                           009594   661 _TMR3	=	0x9594
                           00BEBD   662 _ADC0	=	0xbebd
                           00C4C3   663 _ADC0GT	=	0xc4c3
                           00C6C5   664 _ADC0LT	=	0xc6c5
                           00CBCA   665 _TMR2RL	=	0xcbca
                           00CDCC   666 _TMR2	=	0xcdcc
                           00D3D2   667 _PCA0CP5	=	0xd3d2
                           00EAE9   668 _PCA0CP1	=	0xeae9
                           00ECEB   669 _PCA0CP2	=	0xeceb
                           00EEED   670 _PCA0CP3	=	0xeeed
                           00FAF9   671 _PCA0	=	0xfaf9
                           00FCFB   672 _PCA0CP0	=	0xfcfb
                           00FEFD   673 _PCA0CP4	=	0xfefd
                           0000AA   674 __XPAGE	=	0x00aa
                                    675 ;--------------------------------------------------------
                                    676 ; special function bits
                                    677 ;--------------------------------------------------------
                                    678 	.area RSEG    (ABS,DATA)
      000000                        679 	.org 0x0000
                           00008F   680 _TF1	=	0x008f
                           00008E   681 _TR1	=	0x008e
                           00008D   682 _TF0	=	0x008d
                           00008C   683 _TR0	=	0x008c
                           00008B   684 _IE1	=	0x008b
                           00008A   685 _IT1	=	0x008a
                           000089   686 _IE0	=	0x0089
                           000088   687 _IT0	=	0x0088
                           00009F   688 _S0MODE	=	0x009f
                           00009D   689 _MCE0	=	0x009d
                           00009C   690 _REN0	=	0x009c
                           00009B   691 _TB80	=	0x009b
                           00009A   692 _RB80	=	0x009a
                           000099   693 _TI0	=	0x0099
                           000098   694 _RI0	=	0x0098
                           0000AF   695 _EA	=	0x00af
                           0000AE   696 _ESPI0	=	0x00ae
                           0000AD   697 _ET2	=	0x00ad
                           0000AC   698 _ES0	=	0x00ac
                           0000AB   699 _ET1	=	0x00ab
                           0000AA   700 _EX1	=	0x00aa
                           0000A9   701 _ET0	=	0x00a9
                           0000A8   702 _EX0	=	0x00a8
                           0000BE   703 _PSPI0	=	0x00be
                           0000BD   704 _PT2	=	0x00bd
                           0000BC   705 _PS0	=	0x00bc
                           0000BB   706 _PT1	=	0x00bb
                           0000BA   707 _PX1	=	0x00ba
                           0000B9   708 _PT0	=	0x00b9
                           0000B8   709 _PX0	=	0x00b8
                           0000C7   710 _MASTER	=	0x00c7
                           0000C6   711 _TXMODE	=	0x00c6
                           0000C5   712 _STA	=	0x00c5
                           0000C4   713 _STO	=	0x00c4
                           0000C3   714 _ACKRQ	=	0x00c3
                           0000C2   715 _ARBLOST	=	0x00c2
                           0000C1   716 _ACK	=	0x00c1
                           0000C0   717 _SI	=	0x00c0
                           0000CF   718 _TF2H	=	0x00cf
                           0000CE   719 _TF2L	=	0x00ce
                           0000CD   720 _TF2LEN	=	0x00cd
                           0000CC   721 _TF2CEN	=	0x00cc
                           0000CB   722 _T2SPLIT	=	0x00cb
                           0000CA   723 _TR2	=	0x00ca
                           0000C9   724 _T2RCLK	=	0x00c9
                           0000C8   725 _T2XCLK	=	0x00c8
                           0000D7   726 _CY	=	0x00d7
                           0000D6   727 _AC	=	0x00d6
                           0000D5   728 _F0	=	0x00d5
                           0000D4   729 _RS1	=	0x00d4
                           0000D3   730 _RS0	=	0x00d3
                           0000D2   731 _OV	=	0x00d2
                           0000D1   732 _F1	=	0x00d1
                           0000D0   733 _P	=	0x00d0
                           0000DF   734 _CF	=	0x00df
                           0000DE   735 _CR	=	0x00de
                           0000DD   736 _CCF5	=	0x00dd
                           0000DC   737 _CCF4	=	0x00dc
                           0000DB   738 _CCF3	=	0x00db
                           0000DA   739 _CCF2	=	0x00da
                           0000D9   740 _CCF1	=	0x00d9
                           0000D8   741 _CCF0	=	0x00d8
                           0000EF   742 _AD0EN	=	0x00ef
                           0000EE   743 _BURSTEN	=	0x00ee
                           0000ED   744 _AD0INT	=	0x00ed
                           0000EC   745 _AD0BUSY	=	0x00ec
                           0000EB   746 _AD0WINT	=	0x00eb
                           0000EA   747 _AD0CM2	=	0x00ea
                           0000E9   748 _AD0CM1	=	0x00e9
                           0000E8   749 _AD0CM0	=	0x00e8
                           0000FF   750 _SPIF0	=	0x00ff
                           0000FE   751 _WCOL0	=	0x00fe
                           0000FD   752 _MODF0	=	0x00fd
                           0000FC   753 _RXOVRN0	=	0x00fc
                           0000FB   754 _NSS0MD1	=	0x00fb
                           0000FA   755 _NSS0MD0	=	0x00fa
                           0000F9   756 _TXBMT0	=	0x00f9
                           0000F8   757 _SPI0EN	=	0x00f8
                           0000FF   758 _SPIF1	=	0x00ff
                           0000FE   759 _WCOL1	=	0x00fe
                           0000FD   760 _MODF1	=	0x00fd
                           0000FC   761 _RXOVRN1	=	0x00fc
                           0000FB   762 _NSS1MD1	=	0x00fb
                           0000FA   763 _NSS1MD0	=	0x00fa
                           0000F9   764 _TXBMT1	=	0x00f9
                           0000F8   765 _SPI1EN	=	0x00f8
                           0000B6   766 _LED_RED	=	0x00b6
                           0000B7   767 _LED_GREEN	=	0x00b7
                           000082   768 _PIN_CONFIG	=	0x0082
                           000083   769 _PIN_ENABLE	=	0x0083
                           000081   770 _IRQ	=	0x0081
                           0000A3   771 _NSS1	=	0x00a3
                                    772 ;--------------------------------------------------------
                                    773 ; overlayable register banks
                                    774 ;--------------------------------------------------------
                                    775 	.area REG_BANK_0	(REL,OVR,DATA)
      000000                        776 	.ds 8
                                    777 ;--------------------------------------------------------
                                    778 ; internal ram data
                                    779 ;--------------------------------------------------------
                                    780 	.area DSEG    (DATA)
                                    781 ;--------------------------------------------------------
                                    782 ; overlayable items in internal ram 
                                    783 ;--------------------------------------------------------
                                    784 	.area	OSEG    (OVR,DATA)
      000000                        785 _golay_encode24_sloc0_1_0:
      000000                        786 	.ds 1
      000001                        787 _golay_encode24_sloc1_1_0:
      000001                        788 	.ds 2
                                    789 	.area	OSEG    (OVR,DATA)
      000000                        790 _golay_decode24_v_1_136:
      000000                        791 	.ds 2
      000002                        792 _golay_decode24_syn_1_136:
      000002                        793 	.ds 2
      000004                        794 _golay_decode24_sloc0_1_0:
      000004                        795 	.ds 2
                                    796 ;--------------------------------------------------------
                                    797 ; indirectly addressable internal ram data
                                    798 ;--------------------------------------------------------
                                    799 	.area ISEG    (DATA)
                                    800 ;--------------------------------------------------------
                                    801 ; absolute internal ram data
                                    802 ;--------------------------------------------------------
                                    803 	.area IABS    (ABS,DATA)
                                    804 	.area IABS    (ABS,DATA)
                                    805 ;--------------------------------------------------------
                                    806 ; bit data
                                    807 ;--------------------------------------------------------
                                    808 	.area BSEG    (BIT)
                                    809 ;--------------------------------------------------------
                                    810 ; paged external ram data
                                    811 ;--------------------------------------------------------
                                    812 	.area PSEG    (PAG,XDATA)
      000000                        813 _g3:
      000000                        814 	.ds 3
      000003                        815 _g6:
      000003                        816 	.ds 6
      000009                        817 _golay_encode_PARM_2:
      000009                        818 	.ds 2
      00000B                        819 _golay_encode_PARM_3:
      00000B                        820 	.ds 2
      00000D                        821 _golay_decode_PARM_2:
      00000D                        822 	.ds 2
      00000F                        823 _golay_decode_PARM_3:
      00000F                        824 	.ds 2
      000011                        825 _golay_decode_errcount_1_140:
      000011                        826 	.ds 1
                                    827 ;--------------------------------------------------------
                                    828 ; external ram data
                                    829 ;--------------------------------------------------------
                                    830 	.area XSEG    (XDATA)
                                    831 ;--------------------------------------------------------
                                    832 ; absolute external ram data
                                    833 ;--------------------------------------------------------
                                    834 	.area XABS    (ABS,XDATA)
                                    835 ;--------------------------------------------------------
                                    836 ; external initialized ram data
                                    837 ;--------------------------------------------------------
                                    838 	.area XISEG   (XDATA)
                                    839 	.area HOME    (CODE)
                                    840 	.area GSINIT0 (CODE)
                                    841 	.area GSINIT1 (CODE)
                                    842 	.area GSINIT2 (CODE)
                                    843 	.area GSINIT3 (CODE)
                                    844 	.area GSINIT4 (CODE)
                                    845 	.area GSINIT5 (CODE)
                                    846 	.area GSINIT  (CODE)
                                    847 	.area GSFINAL (CODE)
                                    848 	.area CSEG    (CODE)
                                    849 ;--------------------------------------------------------
                                    850 ; global & static initialisations
                                    851 ;--------------------------------------------------------
                                    852 	.area HOME    (CODE)
                                    853 	.area GSINIT  (CODE)
                                    854 	.area GSFINAL (CODE)
                                    855 	.area GSINIT  (CODE)
                                    856 ;--------------------------------------------------------
                                    857 ; Home
                                    858 ;--------------------------------------------------------
                                    859 	.area HOME    (CODE)
                                    860 	.area HOME    (CODE)
                                    861 ;--------------------------------------------------------
                                    862 ; code
                                    863 ;--------------------------------------------------------
                                    864 	.area CSEG    (CODE)
                                    865 ;------------------------------------------------------------
                                    866 ;Allocation info for local variables in function 'golay_encode24'
                                    867 ;------------------------------------------------------------
                                    868 ;sloc0                     Allocated with name '_golay_encode24_sloc0_1_0'
                                    869 ;sloc1                     Allocated with name '_golay_encode24_sloc1_1_0'
                                    870 ;------------------------------------------------------------
                                    871 ;	radio/golay.c:49: golay_encode24(void)
                                    872 ;	-----------------------------------------
                                    873 ;	 function golay_encode24
                                    874 ;	-----------------------------------------
      000000                        875 _golay_encode24:
                           000007   876 	ar7 = 0x07
                           000006   877 	ar6 = 0x06
                           000005   878 	ar5 = 0x05
                           000004   879 	ar4 = 0x04
                           000003   880 	ar3 = 0x03
                           000002   881 	ar2 = 0x02
                           000001   882 	ar1 = 0x01
                           000000   883 	ar0 = 0x00
                                    884 ;	radio/golay.c:54: v = g3[0] | ((uint16_t)g3[1] & 0x0F) << 8;
      000000 78r00            [12]  885 	mov	r0,#_g3
      000002 E2               [24]  886 	movx	a,@r0
      000003 FF               [12]  887 	mov	r7,a
      000004 78r01            [12]  888 	mov	r0,#(_g3 + 0x0001)
      000006 E2               [24]  889 	movx	a,@r0
      000007 FE               [12]  890 	mov	r6,a
      000008 53 06 0F         [24]  891 	anl	ar6,#0x0F
      00000B 8E 05            [24]  892 	mov	ar5,r6
      00000D E4               [12]  893 	clr	a
      00000E FE               [12]  894 	mov	r6,a
      00000F FC               [12]  895 	mov	r4,a
      000010 EF               [12]  896 	mov	a,r7
      000011 42 06            [12]  897 	orl	ar6,a
      000013 EC               [12]  898 	mov	a,r4
      000014 42 05            [12]  899 	orl	ar5,a
                                    900 ;	radio/golay.c:55: syn = golay23_encode[v];
      000016 8E 04            [24]  901 	mov	ar4,r6
      000018 ED               [12]  902 	mov	a,r5
      000019 CC               [12]  903 	xch	a,r4
      00001A 25 E0            [12]  904 	add	a,acc
      00001C CC               [12]  905 	xch	a,r4
      00001D 33               [12]  906 	rlc	a
      00001E FF               [12]  907 	mov	r7,a
      00001F EC               [12]  908 	mov	a,r4
      000020 24r00            [12]  909 	add	a,#_golay23_encode
      000022 F5 82            [12]  910 	mov	dpl,a
      000024 EF               [12]  911 	mov	a,r7
      000025 34s00            [12]  912 	addc	a,#(_golay23_encode >> 8)
      000027 F5 83            [12]  913 	mov	dph,a
      000029 E4               [12]  914 	clr	a
      00002A 93               [24]  915 	movc	a,@a+dptr
      00002B FC               [12]  916 	mov	r4,a
      00002C A3               [24]  917 	inc	dptr
      00002D E4               [12]  918 	clr	a
      00002E 93               [24]  919 	movc	a,@a+dptr
      00002F FF               [12]  920 	mov	r7,a
                                    921 ;	radio/golay.c:56: g6[0] = syn & 0xFF;
      000030 8C 02            [24]  922 	mov	ar2,r4
      000032 78r03            [12]  923 	mov	r0,#_g6
      000034 EA               [12]  924 	mov	a,r2
      000035 F2               [24]  925 	movx	@r0,a
                                    926 ;	radio/golay.c:57: g6[1] = (g3[0] & 0x1F) << 3 | syn >> 8;
      000036 78r00            [12]  927 	mov	r0,#_g3
      000038 E2               [24]  928 	movx	a,@r0
      000039 54 1F            [12]  929 	anl	a,#0x1F
      00003B C4               [12]  930 	swap	a
      00003C 03               [12]  931 	rr	a
      00003D 54 F8            [12]  932 	anl	a,#0xF8
      00003F FB               [12]  933 	mov	r3,a
      000040 8F 02            [24]  934 	mov	ar2,r7
      000042 EA               [12]  935 	mov	a,r2
      000043 4B               [12]  936 	orl	a,r3
      000044 78r04            [12]  937 	mov	r0,#(_g6 + 0x0001)
      000046 F2               [24]  938 	movx	@r0,a
                                    939 ;	radio/golay.c:58: g6[2] = (g3[0] & 0xE0) >> 5 | (g3[1] & 0x0F) << 3;
      000047 78r00            [12]  940 	mov	r0,#_g3
      000049 E2               [24]  941 	movx	a,@r0
      00004A 54 E0            [12]  942 	anl	a,#0xE0
      00004C C4               [12]  943 	swap	a
      00004D 03               [12]  944 	rr	a
      00004E 54 07            [12]  945 	anl	a,#0x07
      000050 FB               [12]  946 	mov	r3,a
      000051 78r01            [12]  947 	mov	r0,#(_g3 + 0x0001)
      000053 E2               [24]  948 	movx	a,@r0
      000054 54 0F            [12]  949 	anl	a,#0x0F
      000056 C4               [12]  950 	swap	a
      000057 03               [12]  951 	rr	a
      000058 54 F8            [12]  952 	anl	a,#0xF8
      00005A 4B               [12]  953 	orl	a,r3
      00005B 78r05            [12]  954 	mov	r0,#(_g6 + 0x0002)
      00005D F2               [24]  955 	movx	@r0,a
                                    956 ;	radio/golay.c:60: v = g3[2] | ((uint16_t)g3[1] & 0xF0) << 4;
      00005E 78r02            [12]  957 	mov	r0,#(_g3 + 0x0002)
      000060 E2               [24]  958 	movx	a,@r0
      000061 F5*00            [12]  959 	mov	_golay_encode24_sloc0_1_0,a
      000063 78r01            [12]  960 	mov	r0,#(_g3 + 0x0001)
      000065 E2               [24]  961 	movx	a,@r0
      000066 FA               [12]  962 	mov	r2,a
      000067 53 02 F0         [24]  963 	anl	ar2,#0xF0
      00006A 7B 00            [12]  964 	mov	r3,#0x00
      00006C 8A*01            [24]  965 	mov	_golay_encode24_sloc1_1_0,r2
      00006E EB               [12]  966 	mov	a,r3
      00006F C4               [12]  967 	swap	a
      000070 54 F0            [12]  968 	anl	a,#0xF0
      000072 C5*01            [12]  969 	xch	a,_golay_encode24_sloc1_1_0
      000074 C4               [12]  970 	swap	a
      000075 C5*01            [12]  971 	xch	a,_golay_encode24_sloc1_1_0
      000077 65*01            [12]  972 	xrl	a,_golay_encode24_sloc1_1_0
      000079 C5*01            [12]  973 	xch	a,_golay_encode24_sloc1_1_0
      00007B 54 F0            [12]  974 	anl	a,#0xF0
      00007D C5*01            [12]  975 	xch	a,_golay_encode24_sloc1_1_0
      00007F 65*01            [12]  976 	xrl	a,_golay_encode24_sloc1_1_0
      000081 F5*02            [12]  977 	mov	(_golay_encode24_sloc1_1_0 + 1),a
      000083 AA*00            [24]  978 	mov	r2,_golay_encode24_sloc0_1_0
      000085 7B 00            [12]  979 	mov	r3,#0x00
      000087 E5*01            [12]  980 	mov	a,_golay_encode24_sloc1_1_0
      000089 4A               [12]  981 	orl	a,r2
      00008A FE               [12]  982 	mov	r6,a
      00008B E5*02            [12]  983 	mov	a,(_golay_encode24_sloc1_1_0 + 1)
      00008D 4B               [12]  984 	orl	a,r3
                                    985 ;	radio/golay.c:61: syn = golay23_encode[v];
      00008E CE               [12]  986 	xch	a,r6
      00008F 25 E0            [12]  987 	add	a,acc
      000091 CE               [12]  988 	xch	a,r6
      000092 33               [12]  989 	rlc	a
      000093 FD               [12]  990 	mov	r5,a
      000094 EE               [12]  991 	mov	a,r6
      000095 24r00            [12]  992 	add	a,#_golay23_encode
      000097 F5 82            [12]  993 	mov	dpl,a
      000099 ED               [12]  994 	mov	a,r5
      00009A 34s00            [12]  995 	addc	a,#(_golay23_encode >> 8)
      00009C F5 83            [12]  996 	mov	dph,a
      00009E E4               [12]  997 	clr	a
      00009F 93               [24]  998 	movc	a,@a+dptr
      0000A0 FC               [12]  999 	mov	r4,a
      0000A1 A3               [24] 1000 	inc	dptr
      0000A2 E4               [12] 1001 	clr	a
      0000A3 93               [24] 1002 	movc	a,@a+dptr
      0000A4 FF               [12] 1003 	mov	r7,a
                                   1004 ;	radio/golay.c:62: g6[3] = syn & 0xFF;
      0000A5 8C 05            [24] 1005 	mov	ar5,r4
      0000A7 78r06            [12] 1006 	mov	r0,#(_g6 + 0x0003)
      0000A9 ED               [12] 1007 	mov	a,r5
      0000AA F2               [24] 1008 	movx	@r0,a
                                   1009 ;	radio/golay.c:63: g6[4] = (g3[2] & 0x1F) << 3 | syn >> 8;
      0000AB 78r02            [12] 1010 	mov	r0,#(_g3 + 0x0002)
      0000AD E2               [24] 1011 	movx	a,@r0
      0000AE 54 1F            [12] 1012 	anl	a,#0x1F
      0000B0 C4               [12] 1013 	swap	a
      0000B1 03               [12] 1014 	rr	a
      0000B2 54 F8            [12] 1015 	anl	a,#0xF8
      0000B4 FE               [12] 1016 	mov	r6,a
      0000B5 8F 04            [24] 1017 	mov	ar4,r7
      0000B7 EC               [12] 1018 	mov	a,r4
      0000B8 4E               [12] 1019 	orl	a,r6
      0000B9 78r07            [12] 1020 	mov	r0,#(_g6 + 0x0004)
      0000BB F2               [24] 1021 	movx	@r0,a
                                   1022 ;	radio/golay.c:64: g6[5] = (g3[2] & 0xE0) >> 5 | (g3[1] & 0xF0) >> 1;
      0000BC 78r02            [12] 1023 	mov	r0,#(_g3 + 0x0002)
      0000BE E2               [24] 1024 	movx	a,@r0
      0000BF 54 E0            [12] 1025 	anl	a,#0xE0
      0000C1 C4               [12] 1026 	swap	a
      0000C2 03               [12] 1027 	rr	a
      0000C3 54 07            [12] 1028 	anl	a,#0x07
      0000C5 FF               [12] 1029 	mov	r7,a
      0000C6 78r01            [12] 1030 	mov	r0,#(_g3 + 0x0001)
      0000C8 E2               [24] 1031 	movx	a,@r0
      0000C9 54 F0            [12] 1032 	anl	a,#0xF0
      0000CB C3               [12] 1033 	clr	c
      0000CC 13               [12] 1034 	rrc	a
      0000CD 4F               [12] 1035 	orl	a,r7
      0000CE 78r08            [12] 1036 	mov	r0,#(_g6 + 0x0005)
      0000D0 F2               [24] 1037 	movx	@r0,a
      0000D1 22               [24] 1038 	ret
                                   1039 ;------------------------------------------------------------
                                   1040 ;Allocation info for local variables in function 'golay_encode'
                                   1041 ;------------------------------------------------------------
                                   1042 ;	radio/golay.c:70: golay_encode(__pdata uint8_t n, __xdata uint8_t * __pdata in, __xdata uint8_t * __pdata out)
                                   1043 ;	-----------------------------------------
                                   1044 ;	 function golay_encode
                                   1045 ;	-----------------------------------------
      0000D2                       1046 _golay_encode:
      0000D2 AF 82            [24] 1047 	mov	r7,dpl
                                   1048 ;	radio/golay.c:72: while (n >= 3) {
      0000D4 78r09            [12] 1049 	mov	r0,#_golay_encode_PARM_2
      0000D6 E2               [24] 1050 	movx	a,@r0
      0000D7 FD               [12] 1051 	mov	r5,a
      0000D8 08               [12] 1052 	inc	r0
      0000D9 E2               [24] 1053 	movx	a,@r0
      0000DA FE               [12] 1054 	mov	r6,a
      0000DB 78r0B            [12] 1055 	mov	r0,#_golay_encode_PARM_3
      0000DD E2               [24] 1056 	movx	a,@r0
      0000DE FB               [12] 1057 	mov	r3,a
      0000DF 08               [12] 1058 	inc	r0
      0000E0 E2               [24] 1059 	movx	a,@r0
      0000E1 FC               [12] 1060 	mov	r4,a
      0000E2                       1061 00101$:
      0000E2 BF 03 00         [24] 1062 	cjne	r7,#0x03,00113$
      0000E5                       1063 00113$:
      0000E5 50 01            [24] 1064 	jnc	00114$
      0000E7 22               [24] 1065 	ret
      0000E8                       1066 00114$:
                                   1067 ;	radio/golay.c:73: g3[0] = in[0]; g3[1] = in[1]; g3[2] = in[2];
      0000E8 8D 82            [24] 1068 	mov	dpl,r5
      0000EA 8E 83            [24] 1069 	mov	dph,r6
      0000EC E0               [24] 1070 	movx	a,@dptr
      0000ED FA               [12] 1071 	mov	r2,a
      0000EE 78r00            [12] 1072 	mov	r0,#_g3
      0000F0 EA               [12] 1073 	mov	a,r2
      0000F1 F2               [24] 1074 	movx	@r0,a
      0000F2 8D 82            [24] 1075 	mov	dpl,r5
      0000F4 8E 83            [24] 1076 	mov	dph,r6
      0000F6 A3               [24] 1077 	inc	dptr
      0000F7 E0               [24] 1078 	movx	a,@dptr
      0000F8 FA               [12] 1079 	mov	r2,a
      0000F9 78r01            [12] 1080 	mov	r0,#(_g3 + 0x0001)
      0000FB EA               [12] 1081 	mov	a,r2
      0000FC F2               [24] 1082 	movx	@r0,a
      0000FD 8D 82            [24] 1083 	mov	dpl,r5
      0000FF 8E 83            [24] 1084 	mov	dph,r6
      000101 A3               [24] 1085 	inc	dptr
      000102 A3               [24] 1086 	inc	dptr
      000103 E0               [24] 1087 	movx	a,@dptr
      000104 FA               [12] 1088 	mov	r2,a
      000105 78r02            [12] 1089 	mov	r0,#(_g3 + 0x0002)
      000107 EA               [12] 1090 	mov	a,r2
      000108 F2               [24] 1091 	movx	@r0,a
                                   1092 ;	radio/golay.c:74: golay_encode24();
      000109 C0 07            [24] 1093 	push	ar7
      00010B C0 06            [24] 1094 	push	ar6
      00010D C0 05            [24] 1095 	push	ar5
      00010F C0 04            [24] 1096 	push	ar4
      000111 C0 03            [24] 1097 	push	ar3
      000113 12r00r00         [24] 1098 	lcall	_golay_encode24
      000116 D0 03            [24] 1099 	pop	ar3
      000118 D0 04            [24] 1100 	pop	ar4
      00011A D0 05            [24] 1101 	pop	ar5
      00011C D0 06            [24] 1102 	pop	ar6
      00011E D0 07            [24] 1103 	pop	ar7
                                   1104 ;	radio/golay.c:75: out[0] = g6[0]; out[1] = g6[1]; out[2] = g6[2]; 
      000120 78r03            [12] 1105 	mov	r0,#_g6
      000122 E2               [24] 1106 	movx	a,@r0
      000123 8B 82            [24] 1107 	mov	dpl,r3
      000125 8C 83            [24] 1108 	mov	dph,r4
      000127 F0               [24] 1109 	movx	@dptr,a
      000128 8B 82            [24] 1110 	mov	dpl,r3
      00012A 8C 83            [24] 1111 	mov	dph,r4
      00012C A3               [24] 1112 	inc	dptr
      00012D 78r04            [12] 1113 	mov	r0,#(_g6 + 0x0001)
      00012F E2               [24] 1114 	movx	a,@r0
      000130 F0               [24] 1115 	movx	@dptr,a
      000131 8B 82            [24] 1116 	mov	dpl,r3
      000133 8C 83            [24] 1117 	mov	dph,r4
      000135 A3               [24] 1118 	inc	dptr
      000136 A3               [24] 1119 	inc	dptr
      000137 78r05            [12] 1120 	mov	r0,#(_g6 + 0x0002)
      000139 E2               [24] 1121 	movx	a,@r0
      00013A F0               [24] 1122 	movx	@dptr,a
                                   1123 ;	radio/golay.c:76: out[3] = g6[3]; out[4] = g6[4]; out[5] = g6[5]; 
      00013B 8B 82            [24] 1124 	mov	dpl,r3
      00013D 8C 83            [24] 1125 	mov	dph,r4
      00013F A3               [24] 1126 	inc	dptr
      000140 A3               [24] 1127 	inc	dptr
      000141 A3               [24] 1128 	inc	dptr
      000142 78r06            [12] 1129 	mov	r0,#(_g6 + 0x0003)
      000144 E2               [24] 1130 	movx	a,@r0
      000145 F0               [24] 1131 	movx	@dptr,a
      000146 8B 82            [24] 1132 	mov	dpl,r3
      000148 8C 83            [24] 1133 	mov	dph,r4
      00014A A3               [24] 1134 	inc	dptr
      00014B A3               [24] 1135 	inc	dptr
      00014C A3               [24] 1136 	inc	dptr
      00014D A3               [24] 1137 	inc	dptr
      00014E 78r07            [12] 1138 	mov	r0,#(_g6 + 0x0004)
      000150 E2               [24] 1139 	movx	a,@r0
      000151 F0               [24] 1140 	movx	@dptr,a
      000152 8B 82            [24] 1141 	mov	dpl,r3
      000154 8C 83            [24] 1142 	mov	dph,r4
      000156 A3               [24] 1143 	inc	dptr
      000157 A3               [24] 1144 	inc	dptr
      000158 A3               [24] 1145 	inc	dptr
      000159 A3               [24] 1146 	inc	dptr
      00015A A3               [24] 1147 	inc	dptr
      00015B 78r08            [12] 1148 	mov	r0,#(_g6 + 0x0005)
      00015D E2               [24] 1149 	movx	a,@r0
      00015E FA               [12] 1150 	mov	r2,a
      00015F F0               [24] 1151 	movx	@dptr,a
                                   1152 ;	radio/golay.c:77: in += 3;
      000160 74 03            [12] 1153 	mov	a,#0x03
      000162 2D               [12] 1154 	add	a,r5
      000163 FD               [12] 1155 	mov	r5,a
      000164 E4               [12] 1156 	clr	a
      000165 3E               [12] 1157 	addc	a,r6
      000166 FE               [12] 1158 	mov	r6,a
                                   1159 ;	radio/golay.c:78: out += 6;
      000167 74 06            [12] 1160 	mov	a,#0x06
      000169 2B               [12] 1161 	add	a,r3
      00016A FB               [12] 1162 	mov	r3,a
      00016B E4               [12] 1163 	clr	a
      00016C 3C               [12] 1164 	addc	a,r4
      00016D FC               [12] 1165 	mov	r4,a
                                   1166 ;	radio/golay.c:79: n -= 3;
      00016E 1F               [12] 1167 	dec	r7
      00016F 1F               [12] 1168 	dec	r7
      000170 1F               [12] 1169 	dec	r7
      000171 02r00rE2         [24] 1170 	ljmp	00101$
                                   1171 ;------------------------------------------------------------
                                   1172 ;Allocation info for local variables in function 'golay_decode24'
                                   1173 ;------------------------------------------------------------
                                   1174 ;v                         Allocated with name '_golay_decode24_v_1_136'
                                   1175 ;syn                       Allocated with name '_golay_decode24_syn_1_136'
                                   1176 ;e                         Allocated to registers r5 r6 
                                   1177 ;sloc0                     Allocated with name '_golay_decode24_sloc0_1_0'
                                   1178 ;------------------------------------------------------------
                                   1179 ;	radio/golay.c:87: golay_decode24(void)
                                   1180 ;	-----------------------------------------
                                   1181 ;	 function golay_decode24
                                   1182 ;	-----------------------------------------
      000174                       1183 _golay_decode24:
                                   1184 ;	radio/golay.c:92: __pdata uint8_t errcount = 0;
      000174 7F 00            [12] 1185 	mov	r7,#0x00
                                   1186 ;	radio/golay.c:94: v = (g6[2] & 0x7F) << 5 | (g6[1] & 0xF8) >> 3;
      000176 78r05            [12] 1187 	mov	r0,#(_g6 + 0x0002)
      000178 E2               [24] 1188 	movx	a,@r0
      000179 FE               [12] 1189 	mov	r6,a
      00017A 53 06 7F         [24] 1190 	anl	ar6,#0x7F
      00017D E4               [12] 1191 	clr	a
      00017E 23               [12] 1192 	rl	a
      00017F 54 E0            [12] 1193 	anl	a,#0xE0
      000181 CE               [12] 1194 	xch	a,r6
      000182 C4               [12] 1195 	swap	a
      000183 23               [12] 1196 	rl	a
      000184 CE               [12] 1197 	xch	a,r6
      000185 6E               [12] 1198 	xrl	a,r6
      000186 CE               [12] 1199 	xch	a,r6
      000187 54 E0            [12] 1200 	anl	a,#0xE0
      000189 CE               [12] 1201 	xch	a,r6
      00018A 6E               [12] 1202 	xrl	a,r6
      00018B FD               [12] 1203 	mov	r5,a
      00018C 78r04            [12] 1204 	mov	r0,#(_g6 + 0x0001)
      00018E E2               [24] 1205 	movx	a,@r0
      00018F FC               [12] 1206 	mov	r4,a
      000190 74 F8            [12] 1207 	mov	a,#0xF8
      000192 5C               [12] 1208 	anl	a,r4
      000193 C4               [12] 1209 	swap	a
      000194 23               [12] 1210 	rl	a
      000195 54 1F            [12] 1211 	anl	a,#0x1F
      000197 7A 00            [12] 1212 	mov	r2,#0x00
      000199 4E               [12] 1213 	orl	a,r6
      00019A F5*00            [12] 1214 	mov	_golay_decode24_v_1_136,a
      00019C EA               [12] 1215 	mov	a,r2
      00019D 4D               [12] 1216 	orl	a,r5
                                   1217 ;	radio/golay.c:95: syn = golay23_encode[v];
      00019E F5*01            [12] 1218 	mov	(_golay_decode24_v_1_136 + 1),a
      0001A0 AA*00            [24] 1219 	mov	r2,_golay_decode24_v_1_136
      0001A2 CA               [12] 1220 	xch	a,r2
      0001A3 25 E0            [12] 1221 	add	a,acc
      0001A5 CA               [12] 1222 	xch	a,r2
      0001A6 33               [12] 1223 	rlc	a
      0001A7 FB               [12] 1224 	mov	r3,a
      0001A8 EA               [12] 1225 	mov	a,r2
      0001A9 24r00            [12] 1226 	add	a,#_golay23_encode
      0001AB F5 82            [12] 1227 	mov	dpl,a
      0001AD EB               [12] 1228 	mov	a,r3
      0001AE 34s00            [12] 1229 	addc	a,#(_golay23_encode >> 8)
      0001B0 F5 83            [12] 1230 	mov	dph,a
      0001B2 E4               [12] 1231 	clr	a
      0001B3 93               [24] 1232 	movc	a,@a+dptr
      0001B4 F5*02            [12] 1233 	mov	_golay_decode24_syn_1_136,a
      0001B6 A3               [24] 1234 	inc	dptr
      0001B7 E4               [12] 1235 	clr	a
      0001B8 93               [24] 1236 	movc	a,@a+dptr
      0001B9 F5*03            [12] 1237 	mov	(_golay_decode24_syn_1_136 + 1),a
                                   1238 ;	radio/golay.c:96: syn ^= g6[0] | (g6[1] & 0x07) << 8;
      0001BB 78r03            [12] 1239 	mov	r0,#_g6
      0001BD E2               [24] 1240 	movx	a,@r0
      0001BE FB               [12] 1241 	mov	r3,a
      0001BF 53 04 07         [24] 1242 	anl	ar4,#0x07
      0001C2 8C 02            [24] 1243 	mov	ar2,r4
      0001C4 E4               [12] 1244 	clr	a
      0001C5 FC               [12] 1245 	mov	r4,a
      0001C6 FE               [12] 1246 	mov	r6,a
      0001C7 EB               [12] 1247 	mov	a,r3
      0001C8 42 04            [12] 1248 	orl	ar4,a
      0001CA EE               [12] 1249 	mov	a,r6
      0001CB 42 02            [12] 1250 	orl	ar2,a
      0001CD EC               [12] 1251 	mov	a,r4
      0001CE 62*02            [12] 1252 	xrl	_golay_decode24_syn_1_136,a
      0001D0 EA               [12] 1253 	mov	a,r2
      0001D1 62*03            [12] 1254 	xrl	(_golay_decode24_syn_1_136 + 1),a
                                   1255 ;	radio/golay.c:97: e = golay23_decode[syn];
      0001D3 E5*02            [12] 1256 	mov	a,_golay_decode24_syn_1_136
      0001D5 25*02            [12] 1257 	add	a,_golay_decode24_syn_1_136
      0001D7 FD               [12] 1258 	mov	r5,a
      0001D8 E5*03            [12] 1259 	mov	a,(_golay_decode24_syn_1_136 + 1)
      0001DA 33               [12] 1260 	rlc	a
      0001DB FE               [12] 1261 	mov	r6,a
      0001DC ED               [12] 1262 	mov	a,r5
      0001DD 24r00            [12] 1263 	add	a,#_golay23_decode
      0001DF F5 82            [12] 1264 	mov	dpl,a
      0001E1 EE               [12] 1265 	mov	a,r6
      0001E2 34s20            [12] 1266 	addc	a,#(_golay23_decode >> 8)
      0001E4 F5 83            [12] 1267 	mov	dph,a
      0001E6 E4               [12] 1268 	clr	a
      0001E7 93               [24] 1269 	movc	a,@a+dptr
      0001E8 FD               [12] 1270 	mov	r5,a
      0001E9 A3               [24] 1271 	inc	dptr
      0001EA E4               [12] 1272 	clr	a
      0001EB 93               [24] 1273 	movc	a,@a+dptr
                                   1274 ;	radio/golay.c:98: if (e) {
      0001EC FE               [12] 1275 	mov	r6,a
      0001ED 4D               [12] 1276 	orl	a,r5
      0001EE 60 08            [24] 1277 	jz	00102$
                                   1278 ;	radio/golay.c:99: errcount++;
      0001F0 7F 01            [12] 1279 	mov	r7,#0x01
                                   1280 ;	radio/golay.c:100: v ^= e;
      0001F2 ED               [12] 1281 	mov	a,r5
      0001F3 62*00            [12] 1282 	xrl	_golay_decode24_v_1_136,a
      0001F5 EE               [12] 1283 	mov	a,r6
      0001F6 62*01            [12] 1284 	xrl	(_golay_decode24_v_1_136 + 1),a
      0001F8                       1285 00102$:
                                   1286 ;	radio/golay.c:102: g3[0] = v & 0xFF;
      0001F8 C0 07            [24] 1287 	push	ar7
      0001FA AB*00            [24] 1288 	mov	r3,_golay_decode24_v_1_136
      0001FC 78r00            [12] 1289 	mov	r0,#_g3
      0001FE EB               [12] 1290 	mov	a,r3
      0001FF F2               [24] 1291 	movx	@r0,a
                                   1292 ;	radio/golay.c:103: g3[1] = v >> 8;
      000200 AC*01            [24] 1293 	mov	r4,(_golay_decode24_v_1_136 + 1)
      000202 78r01            [12] 1294 	mov	r0,#(_g3 + 0x0001)
      000204 EC               [12] 1295 	mov	a,r4
      000205 F2               [24] 1296 	movx	@r0,a
                                   1297 ;	radio/golay.c:105: v = (g6[5] & 0x7F) << 5 | (g6[4] & 0xF8) >> 3;
      000206 78r08            [12] 1298 	mov	r0,#(_g6 + 0x0005)
      000208 E2               [24] 1299 	movx	a,@r0
      000209 FC               [12] 1300 	mov	r4,a
      00020A 53 04 7F         [24] 1301 	anl	ar4,#0x7F
      00020D 7B 00            [12] 1302 	mov	r3,#0x00
      00020F 8C*04            [24] 1303 	mov	_golay_decode24_sloc0_1_0,r4
      000211 EB               [12] 1304 	mov	a,r3
      000212 C4               [12] 1305 	swap	a
      000213 23               [12] 1306 	rl	a
      000214 54 E0            [12] 1307 	anl	a,#0xE0
      000216 C5*04            [12] 1308 	xch	a,_golay_decode24_sloc0_1_0
      000218 C4               [12] 1309 	swap	a
      000219 23               [12] 1310 	rl	a
      00021A C5*04            [12] 1311 	xch	a,_golay_decode24_sloc0_1_0
      00021C 65*04            [12] 1312 	xrl	a,_golay_decode24_sloc0_1_0
      00021E C5*04            [12] 1313 	xch	a,_golay_decode24_sloc0_1_0
      000220 54 E0            [12] 1314 	anl	a,#0xE0
      000222 C5*04            [12] 1315 	xch	a,_golay_decode24_sloc0_1_0
      000224 65*04            [12] 1316 	xrl	a,_golay_decode24_sloc0_1_0
      000226 F5*05            [12] 1317 	mov	(_golay_decode24_sloc0_1_0 + 1),a
      000228 78r07            [12] 1318 	mov	r0,#(_g6 + 0x0004)
      00022A E2               [24] 1319 	movx	a,@r0
      00022B FA               [12] 1320 	mov	r2,a
      00022C 74 F8            [12] 1321 	mov	a,#0xF8
      00022E 5A               [12] 1322 	anl	a,r2
      00022F C4               [12] 1323 	swap	a
      000230 23               [12] 1324 	rl	a
      000231 54 1F            [12] 1325 	anl	a,#0x1F
      000233 7F 00            [12] 1326 	mov	r7,#0x00
      000235 45*04            [12] 1327 	orl	a,_golay_decode24_sloc0_1_0
      000237 F5*00            [12] 1328 	mov	_golay_decode24_v_1_136,a
      000239 EF               [12] 1329 	mov	a,r7
      00023A 45*05            [12] 1330 	orl	a,(_golay_decode24_sloc0_1_0 + 1)
                                   1331 ;	radio/golay.c:106: syn = golay23_encode[v];
      00023C F5*01            [12] 1332 	mov	(_golay_decode24_v_1_136 + 1),a
      00023E AC*00            [24] 1333 	mov	r4,_golay_decode24_v_1_136
      000240 CC               [12] 1334 	xch	a,r4
      000241 25 E0            [12] 1335 	add	a,acc
      000243 CC               [12] 1336 	xch	a,r4
      000244 33               [12] 1337 	rlc	a
      000245 FF               [12] 1338 	mov	r7,a
      000246 EC               [12] 1339 	mov	a,r4
      000247 24r00            [12] 1340 	add	a,#_golay23_encode
      000249 F5 82            [12] 1341 	mov	dpl,a
      00024B EF               [12] 1342 	mov	a,r7
      00024C 34s00            [12] 1343 	addc	a,#(_golay23_encode >> 8)
      00024E F5 83            [12] 1344 	mov	dph,a
      000250 E4               [12] 1345 	clr	a
      000251 93               [24] 1346 	movc	a,@a+dptr
      000252 F5*02            [12] 1347 	mov	_golay_decode24_syn_1_136,a
      000254 A3               [24] 1348 	inc	dptr
      000255 E4               [12] 1349 	clr	a
      000256 93               [24] 1350 	movc	a,@a+dptr
      000257 F5*03            [12] 1351 	mov	(_golay_decode24_syn_1_136 + 1),a
                                   1352 ;	radio/golay.c:107: syn ^= g6[3] | (g6[4] & 0x07) << 8;
      000259 78r06            [12] 1353 	mov	r0,#(_g6 + 0x0003)
      00025B E2               [24] 1354 	movx	a,@r0
      00025C FF               [12] 1355 	mov	r7,a
      00025D 53 02 07         [24] 1356 	anl	ar2,#0x07
      000260 8A 04            [24] 1357 	mov	ar4,r2
      000262 E4               [12] 1358 	clr	a
      000263 FA               [12] 1359 	mov	r2,a
      000264 FB               [12] 1360 	mov	r3,a
      000265 EF               [12] 1361 	mov	a,r7
      000266 42 02            [12] 1362 	orl	ar2,a
      000268 EB               [12] 1363 	mov	a,r3
      000269 42 04            [12] 1364 	orl	ar4,a
      00026B EA               [12] 1365 	mov	a,r2
      00026C 62*02            [12] 1366 	xrl	_golay_decode24_syn_1_136,a
      00026E EC               [12] 1367 	mov	a,r4
      00026F 62*03            [12] 1368 	xrl	(_golay_decode24_syn_1_136 + 1),a
                                   1369 ;	radio/golay.c:108: e = golay23_decode[syn];
      000271 E5*02            [12] 1370 	mov	a,_golay_decode24_syn_1_136
      000273 25*02            [12] 1371 	add	a,_golay_decode24_syn_1_136
      000275 FC               [12] 1372 	mov	r4,a
      000276 E5*03            [12] 1373 	mov	a,(_golay_decode24_syn_1_136 + 1)
      000278 33               [12] 1374 	rlc	a
      000279 FF               [12] 1375 	mov	r7,a
      00027A EC               [12] 1376 	mov	a,r4
      00027B 24r00            [12] 1377 	add	a,#_golay23_decode
      00027D F5 82            [12] 1378 	mov	dpl,a
      00027F EF               [12] 1379 	mov	a,r7
      000280 34s20            [12] 1380 	addc	a,#(_golay23_decode >> 8)
      000282 F5 83            [12] 1381 	mov	dph,a
      000284 E4               [12] 1382 	clr	a
      000285 93               [24] 1383 	movc	a,@a+dptr
      000286 FD               [12] 1384 	mov	r5,a
      000287 A3               [24] 1385 	inc	dptr
      000288 E4               [12] 1386 	clr	a
      000289 93               [24] 1387 	movc	a,@a+dptr
      00028A FE               [12] 1388 	mov	r6,a
                                   1389 ;	radio/golay.c:109: if (e) {
      00028B D0 07            [24] 1390 	pop	ar7
      00028D ED               [12] 1391 	mov	a,r5
      00028E 4E               [12] 1392 	orl	a,r6
      00028F 60 07            [24] 1393 	jz	00104$
                                   1394 ;	radio/golay.c:110: errcount++;
      000291 0F               [12] 1395 	inc	r7
                                   1396 ;	radio/golay.c:111: v ^= e;
      000292 ED               [12] 1397 	mov	a,r5
      000293 62*00            [12] 1398 	xrl	_golay_decode24_v_1_136,a
      000295 EE               [12] 1399 	mov	a,r6
      000296 62*01            [12] 1400 	xrl	(_golay_decode24_v_1_136 + 1),a
      000298                       1401 00104$:
                                   1402 ;	radio/golay.c:113: g3[1] |= (v >> 4) & 0xF0;
      000298 78r01            [12] 1403 	mov	r0,#(_g3 + 0x0001)
      00029A E2               [24] 1404 	movx	a,@r0
      00029B FE               [12] 1405 	mov	r6,a
      00029C AC*00            [24] 1406 	mov	r4,_golay_decode24_v_1_136
      00029E E5*01            [12] 1407 	mov	a,(_golay_decode24_v_1_136 + 1)
      0002A0 C4               [12] 1408 	swap	a
      0002A1 CC               [12] 1409 	xch	a,r4
      0002A2 C4               [12] 1410 	swap	a
      0002A3 54 0F            [12] 1411 	anl	a,#0x0F
      0002A5 6C               [12] 1412 	xrl	a,r4
      0002A6 CC               [12] 1413 	xch	a,r4
      0002A7 54 0F            [12] 1414 	anl	a,#0x0F
      0002A9 CC               [12] 1415 	xch	a,r4
      0002AA 6C               [12] 1416 	xrl	a,r4
      0002AB CC               [12] 1417 	xch	a,r4
      0002AC 53 04 F0         [24] 1418 	anl	ar4,#0xF0
      0002AF E4               [12] 1419 	clr	a
      0002B0 FD               [12] 1420 	mov	r5,a
      0002B1 FB               [12] 1421 	mov	r3,a
      0002B2 EE               [12] 1422 	mov	a,r6
      0002B3 42 04            [12] 1423 	orl	ar4,a
      0002B5 EB               [12] 1424 	mov	a,r3
      0002B6 42 05            [12] 1425 	orl	ar5,a
      0002B8 78r01            [12] 1426 	mov	r0,#(_g3 + 0x0001)
      0002BA EC               [12] 1427 	mov	a,r4
      0002BB F2               [24] 1428 	movx	@r0,a
                                   1429 ;	radio/golay.c:114: g3[2] = v & 0xFF;
      0002BC AD*00            [24] 1430 	mov	r5,_golay_decode24_v_1_136
      0002BE 78r02            [12] 1431 	mov	r0,#(_g3 + 0x0002)
      0002C0 ED               [12] 1432 	mov	a,r5
      0002C1 F2               [24] 1433 	movx	@r0,a
                                   1434 ;	radio/golay.c:116: return errcount;
      0002C2 8F 82            [24] 1435 	mov	dpl,r7
      0002C4 22               [24] 1436 	ret
                                   1437 ;------------------------------------------------------------
                                   1438 ;Allocation info for local variables in function 'golay_decode'
                                   1439 ;------------------------------------------------------------
                                   1440 ;	radio/golay.c:124: golay_decode(__pdata uint8_t n, __xdata uint8_t * __pdata in, __xdata uint8_t * __pdata out)
                                   1441 ;	-----------------------------------------
                                   1442 ;	 function golay_decode
                                   1443 ;	-----------------------------------------
      0002C5                       1444 _golay_decode:
      0002C5 AF 82            [24] 1445 	mov	r7,dpl
                                   1446 ;	radio/golay.c:126: __pdata uint8_t errcount = 0;
      0002C7 78r11            [12] 1447 	mov	r0,#_golay_decode_errcount_1_140
      0002C9 E4               [12] 1448 	clr	a
      0002CA F2               [24] 1449 	movx	@r0,a
                                   1450 ;	radio/golay.c:127: while (n >= 6) {
      0002CB 78r0D            [12] 1451 	mov	r0,#_golay_decode_PARM_2
      0002CD E2               [24] 1452 	movx	a,@r0
      0002CE FC               [12] 1453 	mov	r4,a
      0002CF 08               [12] 1454 	inc	r0
      0002D0 E2               [24] 1455 	movx	a,@r0
      0002D1 FD               [12] 1456 	mov	r5,a
      0002D2 78r0F            [12] 1457 	mov	r0,#_golay_decode_PARM_3
      0002D4 E2               [24] 1458 	movx	a,@r0
      0002D5 FA               [12] 1459 	mov	r2,a
      0002D6 08               [12] 1460 	inc	r0
      0002D7 E2               [24] 1461 	movx	a,@r0
      0002D8 FB               [12] 1462 	mov	r3,a
      0002D9                       1463 00101$:
      0002D9 BF 06 00         [24] 1464 	cjne	r7,#0x06,00113$
      0002DC                       1465 00113$:
      0002DC 50 03            [24] 1466 	jnc	00114$
      0002DE 02r03r7B         [24] 1467 	ljmp	00103$
      0002E1                       1468 00114$:
                                   1469 ;	radio/golay.c:128: g6[0] = in[0]; g6[1] = in[1]; g6[2] = in[2];
      0002E1 8C 82            [24] 1470 	mov	dpl,r4
      0002E3 8D 83            [24] 1471 	mov	dph,r5
      0002E5 E0               [24] 1472 	movx	a,@dptr
      0002E6 FE               [12] 1473 	mov	r6,a
      0002E7 78r03            [12] 1474 	mov	r0,#_g6
      0002E9 EE               [12] 1475 	mov	a,r6
      0002EA F2               [24] 1476 	movx	@r0,a
      0002EB 8C 82            [24] 1477 	mov	dpl,r4
      0002ED 8D 83            [24] 1478 	mov	dph,r5
      0002EF A3               [24] 1479 	inc	dptr
      0002F0 E0               [24] 1480 	movx	a,@dptr
      0002F1 FE               [12] 1481 	mov	r6,a
      0002F2 78r04            [12] 1482 	mov	r0,#(_g6 + 0x0001)
      0002F4 EE               [12] 1483 	mov	a,r6
      0002F5 F2               [24] 1484 	movx	@r0,a
      0002F6 8C 82            [24] 1485 	mov	dpl,r4
      0002F8 8D 83            [24] 1486 	mov	dph,r5
      0002FA A3               [24] 1487 	inc	dptr
      0002FB A3               [24] 1488 	inc	dptr
      0002FC E0               [24] 1489 	movx	a,@dptr
      0002FD FE               [12] 1490 	mov	r6,a
      0002FE 78r05            [12] 1491 	mov	r0,#(_g6 + 0x0002)
      000300 EE               [12] 1492 	mov	a,r6
      000301 F2               [24] 1493 	movx	@r0,a
                                   1494 ;	radio/golay.c:129: g6[3] = in[3]; g6[4] = in[4]; g6[5] = in[5];
      000302 8C 82            [24] 1495 	mov	dpl,r4
      000304 8D 83            [24] 1496 	mov	dph,r5
      000306 A3               [24] 1497 	inc	dptr
      000307 A3               [24] 1498 	inc	dptr
      000308 A3               [24] 1499 	inc	dptr
      000309 E0               [24] 1500 	movx	a,@dptr
      00030A FE               [12] 1501 	mov	r6,a
      00030B 78r06            [12] 1502 	mov	r0,#(_g6 + 0x0003)
      00030D EE               [12] 1503 	mov	a,r6
      00030E F2               [24] 1504 	movx	@r0,a
      00030F 8C 82            [24] 1505 	mov	dpl,r4
      000311 8D 83            [24] 1506 	mov	dph,r5
      000313 A3               [24] 1507 	inc	dptr
      000314 A3               [24] 1508 	inc	dptr
      000315 A3               [24] 1509 	inc	dptr
      000316 A3               [24] 1510 	inc	dptr
      000317 E0               [24] 1511 	movx	a,@dptr
      000318 FE               [12] 1512 	mov	r6,a
      000319 78r07            [12] 1513 	mov	r0,#(_g6 + 0x0004)
      00031B EE               [12] 1514 	mov	a,r6
      00031C F2               [24] 1515 	movx	@r0,a
      00031D 8C 82            [24] 1516 	mov	dpl,r4
      00031F 8D 83            [24] 1517 	mov	dph,r5
      000321 A3               [24] 1518 	inc	dptr
      000322 A3               [24] 1519 	inc	dptr
      000323 A3               [24] 1520 	inc	dptr
      000324 A3               [24] 1521 	inc	dptr
      000325 A3               [24] 1522 	inc	dptr
      000326 E0               [24] 1523 	movx	a,@dptr
      000327 FE               [12] 1524 	mov	r6,a
      000328 78r08            [12] 1525 	mov	r0,#(_g6 + 0x0005)
      00032A EE               [12] 1526 	mov	a,r6
      00032B F2               [24] 1527 	movx	@r0,a
                                   1528 ;	radio/golay.c:130: errcount += golay_decode24();
      00032C C0 07            [24] 1529 	push	ar7
      00032E C0 05            [24] 1530 	push	ar5
      000330 C0 04            [24] 1531 	push	ar4
      000332 C0 03            [24] 1532 	push	ar3
      000334 C0 02            [24] 1533 	push	ar2
      000336 12r01r74         [24] 1534 	lcall	_golay_decode24
      000339 AE 82            [24] 1535 	mov	r6,dpl
      00033B D0 02            [24] 1536 	pop	ar2
      00033D D0 03            [24] 1537 	pop	ar3
      00033F D0 04            [24] 1538 	pop	ar4
      000341 D0 05            [24] 1539 	pop	ar5
      000343 D0 07            [24] 1540 	pop	ar7
      000345 78r11            [12] 1541 	mov	r0,#_golay_decode_errcount_1_140
      000347 E2               [24] 1542 	movx	a,@r0
      000348 2E               [12] 1543 	add	a,r6
      000349 F2               [24] 1544 	movx	@r0,a
                                   1545 ;	radio/golay.c:131: out[0] = g3[0]; out[1] = g3[1]; out[2] = g3[2];
      00034A 78r00            [12] 1546 	mov	r0,#_g3
      00034C E2               [24] 1547 	movx	a,@r0
      00034D 8A 82            [24] 1548 	mov	dpl,r2
      00034F 8B 83            [24] 1549 	mov	dph,r3
      000351 F0               [24] 1550 	movx	@dptr,a
      000352 8A 82            [24] 1551 	mov	dpl,r2
      000354 8B 83            [24] 1552 	mov	dph,r3
      000356 A3               [24] 1553 	inc	dptr
      000357 78r01            [12] 1554 	mov	r0,#(_g3 + 0x0001)
      000359 E2               [24] 1555 	movx	a,@r0
      00035A F0               [24] 1556 	movx	@dptr,a
      00035B 8A 82            [24] 1557 	mov	dpl,r2
      00035D 8B 83            [24] 1558 	mov	dph,r3
      00035F A3               [24] 1559 	inc	dptr
      000360 A3               [24] 1560 	inc	dptr
      000361 78r02            [12] 1561 	mov	r0,#(_g3 + 0x0002)
      000363 E2               [24] 1562 	movx	a,@r0
      000364 FE               [12] 1563 	mov	r6,a
      000365 F0               [24] 1564 	movx	@dptr,a
                                   1565 ;	radio/golay.c:132: in += 6;
      000366 74 06            [12] 1566 	mov	a,#0x06
      000368 2C               [12] 1567 	add	a,r4
      000369 FC               [12] 1568 	mov	r4,a
      00036A E4               [12] 1569 	clr	a
      00036B 3D               [12] 1570 	addc	a,r5
      00036C FD               [12] 1571 	mov	r5,a
                                   1572 ;	radio/golay.c:133: out += 3;
      00036D 74 03            [12] 1573 	mov	a,#0x03
      00036F 2A               [12] 1574 	add	a,r2
      000370 FA               [12] 1575 	mov	r2,a
      000371 E4               [12] 1576 	clr	a
      000372 3B               [12] 1577 	addc	a,r3
      000373 FB               [12] 1578 	mov	r3,a
                                   1579 ;	radio/golay.c:134: n -= 6;
      000374 EF               [12] 1580 	mov	a,r7
      000375 24 FA            [12] 1581 	add	a,#0xFA
      000377 FF               [12] 1582 	mov	r7,a
      000378 02r02rD9         [24] 1583 	ljmp	00101$
      00037B                       1584 00103$:
                                   1585 ;	radio/golay.c:136: return errcount;
      00037B 78r11            [12] 1586 	mov	r0,#_golay_decode_errcount_1_140
      00037D E2               [24] 1587 	movx	a,@r0
      00037E F5 82            [12] 1588 	mov	dpl,a
      000380 22               [24] 1589 	ret
                                   1590 	.area CSEG    (CODE)
                                   1591 	.area CONST   (CODE)
      000000                       1592 _golay23_encode:
      000000 00 00                 1593 	.byte #0x00,#0x00	; 0
      000002 75 04                 1594 	.byte #0x75,#0x04	; 1141
      000004 9F 04                 1595 	.byte #0x9F,#0x04	; 1183
      000006 EA 00                 1596 	.byte #0xEA,#0x00	; 234
      000008 4B 05                 1597 	.byte #0x4B,#0x05	; 1355
      00000A 3E 01                 1598 	.byte #0x3E,#0x01	; 318
      00000C D4 01                 1599 	.byte #0xD4,#0x01	; 468
      00000E A1 05                 1600 	.byte #0xA1,#0x05	; 1441
      000010 E3 06                 1601 	.byte #0xE3,#0x06	; 1763
      000012 96 02                 1602 	.byte #0x96,#0x02	; 662
      000014 7C 02                 1603 	.byte #0x7C,#0x02	; 636
      000016 09 06                 1604 	.byte #0x09,#0x06	; 1545
      000018 A8 03                 1605 	.byte #0xA8,#0x03	; 936
      00001A DD 07                 1606 	.byte #0xDD,#0x07	; 2013
      00001C 37 07                 1607 	.byte #0x37,#0x07	; 1847
      00001E 42 03                 1608 	.byte #0x42,#0x03	; 834
      000020 B3 01                 1609 	.byte #0xB3,#0x01	; 435
      000022 C6 05                 1610 	.byte #0xC6,#0x05	; 1478
      000024 2C 05                 1611 	.byte #0x2C,#0x05	; 1324
      000026 59 01                 1612 	.byte #0x59,#0x01	; 345
      000028 F8 04                 1613 	.byte #0xF8,#0x04	; 1272
      00002A 8D 00                 1614 	.byte #0x8D,#0x00	; 141
      00002C 67 00                 1615 	.byte #0x67,#0x00	; 103
      00002E 12 04                 1616 	.byte #0x12,#0x04	; 1042
      000030 50 07                 1617 	.byte #0x50,#0x07	; 1872
      000032 25 03                 1618 	.byte #0x25,#0x03	; 805
      000034 CF 03                 1619 	.byte #0xCF,#0x03	; 975
      000036 BA 07                 1620 	.byte #0xBA,#0x07	; 1978
      000038 1B 02                 1621 	.byte #0x1B,#0x02	; 539
      00003A 6E 06                 1622 	.byte #0x6E,#0x06	; 1646
      00003C 84 06                 1623 	.byte #0x84,#0x06	; 1668
      00003E F1 02                 1624 	.byte #0xF1,#0x02	; 753
      000040 66 03                 1625 	.byte #0x66,#0x03	; 870
      000042 13 07                 1626 	.byte #0x13,#0x07	; 1811
      000044 F9 07                 1627 	.byte #0xF9,#0x07	; 2041
      000046 8C 03                 1628 	.byte #0x8C,#0x03	; 908
      000048 2D 06                 1629 	.byte #0x2D,#0x06	; 1581
      00004A 58 02                 1630 	.byte #0x58,#0x02	; 600
      00004C B2 02                 1631 	.byte #0xB2,#0x02	; 690
      00004E C7 06                 1632 	.byte #0xC7,#0x06	; 1735
      000050 85 05                 1633 	.byte #0x85,#0x05	; 1413
      000052 F0 01                 1634 	.byte #0xF0,#0x01	; 496
      000054 1A 01                 1635 	.byte #0x1A,#0x01	; 282
      000056 6F 05                 1636 	.byte #0x6F,#0x05	; 1391
      000058 CE 00                 1637 	.byte #0xCE,#0x00	; 206
      00005A BB 04                 1638 	.byte #0xBB,#0x04	; 1211
      00005C 51 04                 1639 	.byte #0x51,#0x04	; 1105
      00005E 24 00                 1640 	.byte #0x24,#0x00	; 36
      000060 D5 02                 1641 	.byte #0xD5,#0x02	; 725
      000062 A0 06                 1642 	.byte #0xA0,#0x06	; 1696
      000064 4A 06                 1643 	.byte #0x4A,#0x06	; 1610
      000066 3F 02                 1644 	.byte #0x3F,#0x02	; 575
      000068 9E 07                 1645 	.byte #0x9E,#0x07	; 1950
      00006A EB 03                 1646 	.byte #0xEB,#0x03	; 1003
      00006C 01 03                 1647 	.byte #0x01,#0x03	; 769
      00006E 74 07                 1648 	.byte #0x74,#0x07	; 1908
      000070 36 04                 1649 	.byte #0x36,#0x04	; 1078
      000072 43 00                 1650 	.byte #0x43,#0x00	; 67
      000074 A9 00                 1651 	.byte #0xA9,#0x00	; 169
      000076 DC 04                 1652 	.byte #0xDC,#0x04	; 1244
      000078 7D 01                 1653 	.byte #0x7D,#0x01	; 381
      00007A 08 05                 1654 	.byte #0x08,#0x05	; 1288
      00007C E2 05                 1655 	.byte #0xE2,#0x05	; 1506
      00007E 97 01                 1656 	.byte #0x97,#0x01	; 407
      000080 CC 06                 1657 	.byte #0xCC,#0x06	; 1740
      000082 B9 02                 1658 	.byte #0xB9,#0x02	; 697
      000084 53 02                 1659 	.byte #0x53,#0x02	; 595
      000086 26 06                 1660 	.byte #0x26,#0x06	; 1574
      000088 87 03                 1661 	.byte #0x87,#0x03	; 903
      00008A F2 07                 1662 	.byte #0xF2,#0x07	; 2034
      00008C 18 07                 1663 	.byte #0x18,#0x07	; 1816
      00008E 6D 03                 1664 	.byte #0x6D,#0x03	; 877
      000090 2F 00                 1665 	.byte #0x2F,#0x00	; 47
      000092 5A 04                 1666 	.byte #0x5A,#0x04	; 1114
      000094 B0 04                 1667 	.byte #0xB0,#0x04	; 1200
      000096 C5 00                 1668 	.byte #0xC5,#0x00	; 197
      000098 64 05                 1669 	.byte #0x64,#0x05	; 1380
      00009A 11 01                 1670 	.byte #0x11,#0x01	; 273
      00009C FB 01                 1671 	.byte #0xFB,#0x01	; 507
      00009E 8E 05                 1672 	.byte #0x8E,#0x05	; 1422
      0000A0 7F 07                 1673 	.byte #0x7F,#0x07	; 1919
      0000A2 0A 03                 1674 	.byte #0x0A,#0x03	; 778
      0000A4 E0 03                 1675 	.byte #0xE0,#0x03	; 992
      0000A6 95 07                 1676 	.byte #0x95,#0x07	; 1941
      0000A8 34 02                 1677 	.byte #0x34,#0x02	; 564
      0000AA 41 06                 1678 	.byte #0x41,#0x06	; 1601
      0000AC AB 06                 1679 	.byte #0xAB,#0x06	; 1707
      0000AE DE 02                 1680 	.byte #0xDE,#0x02	; 734
      0000B0 9C 01                 1681 	.byte #0x9C,#0x01	; 412
      0000B2 E9 05                 1682 	.byte #0xE9,#0x05	; 1513
      0000B4 03 05                 1683 	.byte #0x03,#0x05	; 1283
      0000B6 76 01                 1684 	.byte #0x76,#0x01	; 374
      0000B8 D7 04                 1685 	.byte #0xD7,#0x04	; 1239
      0000BA A2 00                 1686 	.byte #0xA2,#0x00	; 162
      0000BC 48 00                 1687 	.byte #0x48,#0x00	; 72
      0000BE 3D 04                 1688 	.byte #0x3D,#0x04	; 1085
      0000C0 AA 05                 1689 	.byte #0xAA,#0x05	; 1450
      0000C2 DF 01                 1690 	.byte #0xDF,#0x01	; 479
      0000C4 35 01                 1691 	.byte #0x35,#0x01	; 309
      0000C6 40 05                 1692 	.byte #0x40,#0x05	; 1344
      0000C8 E1 00                 1693 	.byte #0xE1,#0x00	; 225
      0000CA 94 04                 1694 	.byte #0x94,#0x04	; 1172
      0000CC 7E 04                 1695 	.byte #0x7E,#0x04	; 1150
      0000CE 0B 00                 1696 	.byte #0x0B,#0x00	; 11
      0000D0 49 03                 1697 	.byte #0x49,#0x03	; 841
      0000D2 3C 07                 1698 	.byte #0x3C,#0x07	; 1852
      0000D4 D6 07                 1699 	.byte #0xD6,#0x07	; 2006
      0000D6 A3 03                 1700 	.byte #0xA3,#0x03	; 931
      0000D8 02 06                 1701 	.byte #0x02,#0x06	; 1538
      0000DA 77 02                 1702 	.byte #0x77,#0x02	; 631
      0000DC 9D 02                 1703 	.byte #0x9D,#0x02	; 669
      0000DE E8 06                 1704 	.byte #0xE8,#0x06	; 1768
      0000E0 19 04                 1705 	.byte #0x19,#0x04	; 1049
      0000E2 6C 00                 1706 	.byte #0x6C,#0x00	; 108
      0000E4 86 00                 1707 	.byte #0x86,#0x00	; 134
      0000E6 F3 04                 1708 	.byte #0xF3,#0x04	; 1267
      0000E8 52 01                 1709 	.byte #0x52,#0x01	; 338
      0000EA 27 05                 1710 	.byte #0x27,#0x05	; 1319
      0000EC CD 05                 1711 	.byte #0xCD,#0x05	; 1485
      0000EE B8 01                 1712 	.byte #0xB8,#0x01	; 440
      0000F0 FA 02                 1713 	.byte #0xFA,#0x02	; 762
      0000F2 8F 06                 1714 	.byte #0x8F,#0x06	; 1679
      0000F4 65 06                 1715 	.byte #0x65,#0x06	; 1637
      0000F6 10 02                 1716 	.byte #0x10,#0x02	; 528
      0000F8 B1 07                 1717 	.byte #0xB1,#0x07	; 1969
      0000FA C4 03                 1718 	.byte #0xC4,#0x03	; 964
      0000FC 2E 03                 1719 	.byte #0x2E,#0x03	; 814
      0000FE 5B 07                 1720 	.byte #0x5B,#0x07	; 1883
      000100 ED 01                 1721 	.byte #0xED,#0x01	; 493
      000102 98 05                 1722 	.byte #0x98,#0x05	; 1432
      000104 72 05                 1723 	.byte #0x72,#0x05	; 1394
      000106 07 01                 1724 	.byte #0x07,#0x01	; 263
      000108 A6 04                 1725 	.byte #0xA6,#0x04	; 1190
      00010A D3 00                 1726 	.byte #0xD3,#0x00	; 211
      00010C 39 00                 1727 	.byte #0x39,#0x00	; 57
      00010E 4C 04                 1728 	.byte #0x4C,#0x04	; 1100
      000110 0E 07                 1729 	.byte #0x0E,#0x07	; 1806
      000112 7B 03                 1730 	.byte #0x7B,#0x03	; 891
      000114 91 03                 1731 	.byte #0x91,#0x03	; 913
      000116 E4 07                 1732 	.byte #0xE4,#0x07	; 2020
      000118 45 02                 1733 	.byte #0x45,#0x02	; 581
      00011A 30 06                 1734 	.byte #0x30,#0x06	; 1584
      00011C DA 06                 1735 	.byte #0xDA,#0x06	; 1754
      00011E AF 02                 1736 	.byte #0xAF,#0x02	; 687
      000120 5E 00                 1737 	.byte #0x5E,#0x00	; 94
      000122 2B 04                 1738 	.byte #0x2B,#0x04	; 1067
      000124 C1 04                 1739 	.byte #0xC1,#0x04	; 1217
      000126 B4 00                 1740 	.byte #0xB4,#0x00	; 180
      000128 15 05                 1741 	.byte #0x15,#0x05	; 1301
      00012A 60 01                 1742 	.byte #0x60,#0x01	; 352
      00012C 8A 01                 1743 	.byte #0x8A,#0x01	; 394
      00012E FF 05                 1744 	.byte #0xFF,#0x05	; 1535
      000130 BD 06                 1745 	.byte #0xBD,#0x06	; 1725
      000132 C8 02                 1746 	.byte #0xC8,#0x02	; 712
      000134 22 02                 1747 	.byte #0x22,#0x02	; 546
      000136 57 06                 1748 	.byte #0x57,#0x06	; 1623
      000138 F6 03                 1749 	.byte #0xF6,#0x03	; 1014
      00013A 83 07                 1750 	.byte #0x83,#0x07	; 1923
      00013C 69 07                 1751 	.byte #0x69,#0x07	; 1897
      00013E 1C 03                 1752 	.byte #0x1C,#0x03	; 796
      000140 8B 02                 1753 	.byte #0x8B,#0x02	; 651
      000142 FE 06                 1754 	.byte #0xFE,#0x06	; 1790
      000144 14 06                 1755 	.byte #0x14,#0x06	; 1556
      000146 61 02                 1756 	.byte #0x61,#0x02	; 609
      000148 C0 07                 1757 	.byte #0xC0,#0x07	; 1984
      00014A B5 03                 1758 	.byte #0xB5,#0x03	; 949
      00014C 5F 03                 1759 	.byte #0x5F,#0x03	; 863
      00014E 2A 07                 1760 	.byte #0x2A,#0x07	; 1834
      000150 68 04                 1761 	.byte #0x68,#0x04	; 1128
      000152 1D 00                 1762 	.byte #0x1D,#0x00	; 29
      000154 F7 00                 1763 	.byte #0xF7,#0x00	; 247
      000156 82 04                 1764 	.byte #0x82,#0x04	; 1154
      000158 23 01                 1765 	.byte #0x23,#0x01	; 291
      00015A 56 05                 1766 	.byte #0x56,#0x05	; 1366
      00015C BC 05                 1767 	.byte #0xBC,#0x05	; 1468
      00015E C9 01                 1768 	.byte #0xC9,#0x01	; 457
      000160 38 03                 1769 	.byte #0x38,#0x03	; 824
      000162 4D 07                 1770 	.byte #0x4D,#0x07	; 1869
      000164 A7 07                 1771 	.byte #0xA7,#0x07	; 1959
      000166 D2 03                 1772 	.byte #0xD2,#0x03	; 978
      000168 73 06                 1773 	.byte #0x73,#0x06	; 1651
      00016A 06 02                 1774 	.byte #0x06,#0x02	; 518
      00016C EC 02                 1775 	.byte #0xEC,#0x02	; 748
      00016E 99 06                 1776 	.byte #0x99,#0x06	; 1689
      000170 DB 05                 1777 	.byte #0xDB,#0x05	; 1499
      000172 AE 01                 1778 	.byte #0xAE,#0x01	; 430
      000174 44 01                 1779 	.byte #0x44,#0x01	; 324
      000176 31 05                 1780 	.byte #0x31,#0x05	; 1329
      000178 90 00                 1781 	.byte #0x90,#0x00	; 144
      00017A E5 04                 1782 	.byte #0xE5,#0x04	; 1253
      00017C 0F 04                 1783 	.byte #0x0F,#0x04	; 1039
      00017E 7A 00                 1784 	.byte #0x7A,#0x00	; 122
      000180 21 07                 1785 	.byte #0x21,#0x07	; 1825
      000182 54 03                 1786 	.byte #0x54,#0x03	; 852
      000184 BE 03                 1787 	.byte #0xBE,#0x03	; 958
      000186 CB 07                 1788 	.byte #0xCB,#0x07	; 1995
      000188 6A 02                 1789 	.byte #0x6A,#0x02	; 618
      00018A 1F 06                 1790 	.byte #0x1F,#0x06	; 1567
      00018C F5 06                 1791 	.byte #0xF5,#0x06	; 1781
      00018E 80 02                 1792 	.byte #0x80,#0x02	; 640
      000190 C2 01                 1793 	.byte #0xC2,#0x01	; 450
      000192 B7 05                 1794 	.byte #0xB7,#0x05	; 1463
      000194 5D 05                 1795 	.byte #0x5D,#0x05	; 1373
      000196 28 01                 1796 	.byte #0x28,#0x01	; 296
      000198 89 04                 1797 	.byte #0x89,#0x04	; 1161
      00019A FC 00                 1798 	.byte #0xFC,#0x00	; 252
      00019C 16 00                 1799 	.byte #0x16,#0x00	; 22
      00019E 63 04                 1800 	.byte #0x63,#0x04	; 1123
      0001A0 92 06                 1801 	.byte #0x92,#0x06	; 1682
      0001A2 E7 02                 1802 	.byte #0xE7,#0x02	; 743
      0001A4 0D 02                 1803 	.byte #0x0D,#0x02	; 525
      0001A6 78 06                 1804 	.byte #0x78,#0x06	; 1656
      0001A8 D9 03                 1805 	.byte #0xD9,#0x03	; 985
      0001AA AC 07                 1806 	.byte #0xAC,#0x07	; 1964
      0001AC 46 07                 1807 	.byte #0x46,#0x07	; 1862
      0001AE 33 03                 1808 	.byte #0x33,#0x03	; 819
      0001B0 71 00                 1809 	.byte #0x71,#0x00	; 113
      0001B2 04 04                 1810 	.byte #0x04,#0x04	; 1028
      0001B4 EE 04                 1811 	.byte #0xEE,#0x04	; 1262
      0001B6 9B 00                 1812 	.byte #0x9B,#0x00	; 155
      0001B8 3A 05                 1813 	.byte #0x3A,#0x05	; 1338
      0001BA 4F 01                 1814 	.byte #0x4F,#0x01	; 335
      0001BC A5 01                 1815 	.byte #0xA5,#0x01	; 421
      0001BE D0 05                 1816 	.byte #0xD0,#0x05	; 1488
      0001C0 47 04                 1817 	.byte #0x47,#0x04	; 1095
      0001C2 32 00                 1818 	.byte #0x32,#0x00	; 50
      0001C4 D8 00                 1819 	.byte #0xD8,#0x00	; 216
      0001C6 AD 04                 1820 	.byte #0xAD,#0x04	; 1197
      0001C8 0C 01                 1821 	.byte #0x0C,#0x01	; 268
      0001CA 79 05                 1822 	.byte #0x79,#0x05	; 1401
      0001CC 93 05                 1823 	.byte #0x93,#0x05	; 1427
      0001CE E6 01                 1824 	.byte #0xE6,#0x01	; 486
      0001D0 A4 02                 1825 	.byte #0xA4,#0x02	; 676
      0001D2 D1 06                 1826 	.byte #0xD1,#0x06	; 1745
      0001D4 3B 06                 1827 	.byte #0x3B,#0x06	; 1595
      0001D6 4E 02                 1828 	.byte #0x4E,#0x02	; 590
      0001D8 EF 07                 1829 	.byte #0xEF,#0x07	; 2031
      0001DA 9A 03                 1830 	.byte #0x9A,#0x03	; 922
      0001DC 70 03                 1831 	.byte #0x70,#0x03	; 880
      0001DE 05 07                 1832 	.byte #0x05,#0x07	; 1797
      0001E0 F4 05                 1833 	.byte #0xF4,#0x05	; 1524
      0001E2 81 01                 1834 	.byte #0x81,#0x01	; 385
      0001E4 6B 01                 1835 	.byte #0x6B,#0x01	; 363
      0001E6 1E 05                 1836 	.byte #0x1E,#0x05	; 1310
      0001E8 BF 00                 1837 	.byte #0xBF,#0x00	; 191
      0001EA CA 04                 1838 	.byte #0xCA,#0x04	; 1226
      0001EC 20 04                 1839 	.byte #0x20,#0x04	; 1056
      0001EE 55 00                 1840 	.byte #0x55,#0x00	; 85
      0001F0 17 03                 1841 	.byte #0x17,#0x03	; 791
      0001F2 62 07                 1842 	.byte #0x62,#0x07	; 1890
      0001F4 88 07                 1843 	.byte #0x88,#0x07	; 1928
      0001F6 FD 03                 1844 	.byte #0xFD,#0x03	; 1021
      0001F8 5C 06                 1845 	.byte #0x5C,#0x06	; 1628
      0001FA 29 02                 1846 	.byte #0x29,#0x02	; 553
      0001FC C3 02                 1847 	.byte #0xC3,#0x02	; 707
      0001FE B6 06                 1848 	.byte #0xB6,#0x06	; 1718
      000200 DA 03                 1849 	.byte #0xDA,#0x03	; 986
      000202 AF 07                 1850 	.byte #0xAF,#0x07	; 1967
      000204 45 07                 1851 	.byte #0x45,#0x07	; 1861
      000206 30 03                 1852 	.byte #0x30,#0x03	; 816
      000208 91 06                 1853 	.byte #0x91,#0x06	; 1681
      00020A E4 02                 1854 	.byte #0xE4,#0x02	; 740
      00020C 0E 02                 1855 	.byte #0x0E,#0x02	; 526
      00020E 7B 06                 1856 	.byte #0x7B,#0x06	; 1659
      000210 39 05                 1857 	.byte #0x39,#0x05	; 1337
      000212 4C 01                 1858 	.byte #0x4C,#0x01	; 332
      000214 A6 01                 1859 	.byte #0xA6,#0x01	; 422
      000216 D3 05                 1860 	.byte #0xD3,#0x05	; 1491
      000218 72 00                 1861 	.byte #0x72,#0x00	; 114
      00021A 07 04                 1862 	.byte #0x07,#0x04	; 1031
      00021C ED 04                 1863 	.byte #0xED,#0x04	; 1261
      00021E 98 00                 1864 	.byte #0x98,#0x00	; 152
      000220 69 02                 1865 	.byte #0x69,#0x02	; 617
      000222 1C 06                 1866 	.byte #0x1C,#0x06	; 1564
      000224 F6 06                 1867 	.byte #0xF6,#0x06	; 1782
      000226 83 02                 1868 	.byte #0x83,#0x02	; 643
      000228 22 07                 1869 	.byte #0x22,#0x07	; 1826
      00022A 57 03                 1870 	.byte #0x57,#0x03	; 855
      00022C BD 03                 1871 	.byte #0xBD,#0x03	; 957
      00022E C8 07                 1872 	.byte #0xC8,#0x07	; 1992
      000230 8A 04                 1873 	.byte #0x8A,#0x04	; 1162
      000232 FF 00                 1874 	.byte #0xFF,#0x00	; 255
      000234 15 00                 1875 	.byte #0x15,#0x00	; 21
      000236 60 04                 1876 	.byte #0x60,#0x04	; 1120
      000238 C1 01                 1877 	.byte #0xC1,#0x01	; 449
      00023A B4 05                 1878 	.byte #0xB4,#0x05	; 1460
      00023C 5E 05                 1879 	.byte #0x5E,#0x05	; 1374
      00023E 2B 01                 1880 	.byte #0x2B,#0x01	; 299
      000240 BC 00                 1881 	.byte #0xBC,#0x00	; 188
      000242 C9 04                 1882 	.byte #0xC9,#0x04	; 1225
      000244 23 04                 1883 	.byte #0x23,#0x04	; 1059
      000246 56 00                 1884 	.byte #0x56,#0x00	; 86
      000248 F7 05                 1885 	.byte #0xF7,#0x05	; 1527
      00024A 82 01                 1886 	.byte #0x82,#0x01	; 386
      00024C 68 01                 1887 	.byte #0x68,#0x01	; 360
      00024E 1D 05                 1888 	.byte #0x1D,#0x05	; 1309
      000250 5F 06                 1889 	.byte #0x5F,#0x06	; 1631
      000252 2A 02                 1890 	.byte #0x2A,#0x02	; 554
      000254 C0 02                 1891 	.byte #0xC0,#0x02	; 704
      000256 B5 06                 1892 	.byte #0xB5,#0x06	; 1717
      000258 14 03                 1893 	.byte #0x14,#0x03	; 788
      00025A 61 07                 1894 	.byte #0x61,#0x07	; 1889
      00025C 8B 07                 1895 	.byte #0x8B,#0x07	; 1931
      00025E FE 03                 1896 	.byte #0xFE,#0x03	; 1022
      000260 0F 01                 1897 	.byte #0x0F,#0x01	; 271
      000262 7A 05                 1898 	.byte #0x7A,#0x05	; 1402
      000264 90 05                 1899 	.byte #0x90,#0x05	; 1424
      000266 E5 01                 1900 	.byte #0xE5,#0x01	; 485
      000268 44 04                 1901 	.byte #0x44,#0x04	; 1092
      00026A 31 00                 1902 	.byte #0x31,#0x00	; 49
      00026C DB 00                 1903 	.byte #0xDB,#0x00	; 219
      00026E AE 04                 1904 	.byte #0xAE,#0x04	; 1198
      000270 EC 07                 1905 	.byte #0xEC,#0x07	; 2028
      000272 99 03                 1906 	.byte #0x99,#0x03	; 921
      000274 73 03                 1907 	.byte #0x73,#0x03	; 883
      000276 06 07                 1908 	.byte #0x06,#0x07	; 1798
      000278 A7 02                 1909 	.byte #0xA7,#0x02	; 679
      00027A D2 06                 1910 	.byte #0xD2,#0x06	; 1746
      00027C 38 06                 1911 	.byte #0x38,#0x06	; 1592
      00027E 4D 02                 1912 	.byte #0x4D,#0x02	; 589
      000280 16 05                 1913 	.byte #0x16,#0x05	; 1302
      000282 63 01                 1914 	.byte #0x63,#0x01	; 355
      000284 89 01                 1915 	.byte #0x89,#0x01	; 393
      000286 FC 05                 1916 	.byte #0xFC,#0x05	; 1532
      000288 5D 00                 1917 	.byte #0x5D,#0x00	; 93
      00028A 28 04                 1918 	.byte #0x28,#0x04	; 1064
      00028C C2 04                 1919 	.byte #0xC2,#0x04	; 1218
      00028E B7 00                 1920 	.byte #0xB7,#0x00	; 183
      000290 F5 03                 1921 	.byte #0xF5,#0x03	; 1013
      000292 80 07                 1922 	.byte #0x80,#0x07	; 1920
      000294 6A 07                 1923 	.byte #0x6A,#0x07	; 1898
      000296 1F 03                 1924 	.byte #0x1F,#0x03	; 799
      000298 BE 06                 1925 	.byte #0xBE,#0x06	; 1726
      00029A CB 02                 1926 	.byte #0xCB,#0x02	; 715
      00029C 21 02                 1927 	.byte #0x21,#0x02	; 545
      00029E 54 06                 1928 	.byte #0x54,#0x06	; 1620
      0002A0 A5 04                 1929 	.byte #0xA5,#0x04	; 1189
      0002A2 D0 00                 1930 	.byte #0xD0,#0x00	; 208
      0002A4 3A 00                 1931 	.byte #0x3A,#0x00	; 58
      0002A6 4F 04                 1932 	.byte #0x4F,#0x04	; 1103
      0002A8 EE 01                 1933 	.byte #0xEE,#0x01	; 494
      0002AA 9B 05                 1934 	.byte #0x9B,#0x05	; 1435
      0002AC 71 05                 1935 	.byte #0x71,#0x05	; 1393
      0002AE 04 01                 1936 	.byte #0x04,#0x01	; 260
      0002B0 46 02                 1937 	.byte #0x46,#0x02	; 582
      0002B2 33 06                 1938 	.byte #0x33,#0x06	; 1587
      0002B4 D9 06                 1939 	.byte #0xD9,#0x06	; 1753
      0002B6 AC 02                 1940 	.byte #0xAC,#0x02	; 684
      0002B8 0D 07                 1941 	.byte #0x0D,#0x07	; 1805
      0002BA 78 03                 1942 	.byte #0x78,#0x03	; 888
      0002BC 92 03                 1943 	.byte #0x92,#0x03	; 914
      0002BE E7 07                 1944 	.byte #0xE7,#0x07	; 2023
      0002C0 70 06                 1945 	.byte #0x70,#0x06	; 1648
      0002C2 05 02                 1946 	.byte #0x05,#0x02	; 517
      0002C4 EF 02                 1947 	.byte #0xEF,#0x02	; 751
      0002C6 9A 06                 1948 	.byte #0x9A,#0x06	; 1690
      0002C8 3B 03                 1949 	.byte #0x3B,#0x03	; 827
      0002CA 4E 07                 1950 	.byte #0x4E,#0x07	; 1870
      0002CC A4 07                 1951 	.byte #0xA4,#0x07	; 1956
      0002CE D1 03                 1952 	.byte #0xD1,#0x03	; 977
      0002D0 93 00                 1953 	.byte #0x93,#0x00	; 147
      0002D2 E6 04                 1954 	.byte #0xE6,#0x04	; 1254
      0002D4 0C 04                 1955 	.byte #0x0C,#0x04	; 1036
      0002D6 79 00                 1956 	.byte #0x79,#0x00	; 121
      0002D8 D8 05                 1957 	.byte #0xD8,#0x05	; 1496
      0002DA AD 01                 1958 	.byte #0xAD,#0x01	; 429
      0002DC 47 01                 1959 	.byte #0x47,#0x01	; 327
      0002DE 32 05                 1960 	.byte #0x32,#0x05	; 1330
      0002E0 C3 07                 1961 	.byte #0xC3,#0x07	; 1987
      0002E2 B6 03                 1962 	.byte #0xB6,#0x03	; 950
      0002E4 5C 03                 1963 	.byte #0x5C,#0x03	; 860
      0002E6 29 07                 1964 	.byte #0x29,#0x07	; 1833
      0002E8 88 02                 1965 	.byte #0x88,#0x02	; 648
      0002EA FD 06                 1966 	.byte #0xFD,#0x06	; 1789
      0002EC 17 06                 1967 	.byte #0x17,#0x06	; 1559
      0002EE 62 02                 1968 	.byte #0x62,#0x02	; 610
      0002F0 20 01                 1969 	.byte #0x20,#0x01	; 288
      0002F2 55 05                 1970 	.byte #0x55,#0x05	; 1365
      0002F4 BF 05                 1971 	.byte #0xBF,#0x05	; 1471
      0002F6 CA 01                 1972 	.byte #0xCA,#0x01	; 458
      0002F8 6B 04                 1973 	.byte #0x6B,#0x04	; 1131
      0002FA 1E 00                 1974 	.byte #0x1E,#0x00	; 30
      0002FC F4 00                 1975 	.byte #0xF4,#0x00	; 244
      0002FE 81 04                 1976 	.byte #0x81,#0x04	; 1153
      000300 37 02                 1977 	.byte #0x37,#0x02	; 567
      000302 42 06                 1978 	.byte #0x42,#0x06	; 1602
      000304 A8 06                 1979 	.byte #0xA8,#0x06	; 1704
      000306 DD 02                 1980 	.byte #0xDD,#0x02	; 733
      000308 7C 07                 1981 	.byte #0x7C,#0x07	; 1916
      00030A 09 03                 1982 	.byte #0x09,#0x03	; 777
      00030C E3 03                 1983 	.byte #0xE3,#0x03	; 995
      00030E 96 07                 1984 	.byte #0x96,#0x07	; 1942
      000310 D4 04                 1985 	.byte #0xD4,#0x04	; 1236
      000312 A1 00                 1986 	.byte #0xA1,#0x00	; 161
      000314 4B 00                 1987 	.byte #0x4B,#0x00	; 75
      000316 3E 04                 1988 	.byte #0x3E,#0x04	; 1086
      000318 9F 01                 1989 	.byte #0x9F,#0x01	; 415
      00031A EA 05                 1990 	.byte #0xEA,#0x05	; 1514
      00031C 00 05                 1991 	.byte #0x00,#0x05	; 1280
      00031E 75 01                 1992 	.byte #0x75,#0x01	; 373
      000320 84 03                 1993 	.byte #0x84,#0x03	; 900
      000322 F1 07                 1994 	.byte #0xF1,#0x07	; 2033
      000324 1B 07                 1995 	.byte #0x1B,#0x07	; 1819
      000326 6E 03                 1996 	.byte #0x6E,#0x03	; 878
      000328 CF 06                 1997 	.byte #0xCF,#0x06	; 1743
      00032A BA 02                 1998 	.byte #0xBA,#0x02	; 698
      00032C 50 02                 1999 	.byte #0x50,#0x02	; 592
      00032E 25 06                 2000 	.byte #0x25,#0x06	; 1573
      000330 67 05                 2001 	.byte #0x67,#0x05	; 1383
      000332 12 01                 2002 	.byte #0x12,#0x01	; 274
      000334 F8 01                 2003 	.byte #0xF8,#0x01	; 504
      000336 8D 05                 2004 	.byte #0x8D,#0x05	; 1421
      000338 2C 00                 2005 	.byte #0x2C,#0x00	; 44
      00033A 59 04                 2006 	.byte #0x59,#0x04	; 1113
      00033C B3 04                 2007 	.byte #0xB3,#0x04	; 1203
      00033E C6 00                 2008 	.byte #0xC6,#0x00	; 198
      000340 51 01                 2009 	.byte #0x51,#0x01	; 337
      000342 24 05                 2010 	.byte #0x24,#0x05	; 1316
      000344 CE 05                 2011 	.byte #0xCE,#0x05	; 1486
      000346 BB 01                 2012 	.byte #0xBB,#0x01	; 443
      000348 1A 04                 2013 	.byte #0x1A,#0x04	; 1050
      00034A 6F 00                 2014 	.byte #0x6F,#0x00	; 111
      00034C 85 00                 2015 	.byte #0x85,#0x00	; 133
      00034E F0 04                 2016 	.byte #0xF0,#0x04	; 1264
      000350 B2 07                 2017 	.byte #0xB2,#0x07	; 1970
      000352 C7 03                 2018 	.byte #0xC7,#0x03	; 967
      000354 2D 03                 2019 	.byte #0x2D,#0x03	; 813
      000356 58 07                 2020 	.byte #0x58,#0x07	; 1880
      000358 F9 02                 2021 	.byte #0xF9,#0x02	; 761
      00035A 8C 06                 2022 	.byte #0x8C,#0x06	; 1676
      00035C 66 06                 2023 	.byte #0x66,#0x06	; 1638
      00035E 13 02                 2024 	.byte #0x13,#0x02	; 531
      000360 E2 00                 2025 	.byte #0xE2,#0x00	; 226
      000362 97 04                 2026 	.byte #0x97,#0x04	; 1175
      000364 7D 04                 2027 	.byte #0x7D,#0x04	; 1149
      000366 08 00                 2028 	.byte #0x08,#0x00	; 8
      000368 A9 05                 2029 	.byte #0xA9,#0x05	; 1449
      00036A DC 01                 2030 	.byte #0xDC,#0x01	; 476
      00036C 36 01                 2031 	.byte #0x36,#0x01	; 310
      00036E 43 05                 2032 	.byte #0x43,#0x05	; 1347
      000370 01 06                 2033 	.byte #0x01,#0x06	; 1537
      000372 74 02                 2034 	.byte #0x74,#0x02	; 628
      000374 9E 02                 2035 	.byte #0x9E,#0x02	; 670
      000376 EB 06                 2036 	.byte #0xEB,#0x06	; 1771
      000378 4A 03                 2037 	.byte #0x4A,#0x03	; 842
      00037A 3F 07                 2038 	.byte #0x3F,#0x07	; 1855
      00037C D5 07                 2039 	.byte #0xD5,#0x07	; 2005
      00037E A0 03                 2040 	.byte #0xA0,#0x03	; 928
      000380 FB 04                 2041 	.byte #0xFB,#0x04	; 1275
      000382 8E 00                 2042 	.byte #0x8E,#0x00	; 142
      000384 64 00                 2043 	.byte #0x64,#0x00	; 100
      000386 11 04                 2044 	.byte #0x11,#0x04	; 1041
      000388 B0 01                 2045 	.byte #0xB0,#0x01	; 432
      00038A C5 05                 2046 	.byte #0xC5,#0x05	; 1477
      00038C 2F 05                 2047 	.byte #0x2F,#0x05	; 1327
      00038E 5A 01                 2048 	.byte #0x5A,#0x01	; 346
      000390 18 02                 2049 	.byte #0x18,#0x02	; 536
      000392 6D 06                 2050 	.byte #0x6D,#0x06	; 1645
      000394 87 06                 2051 	.byte #0x87,#0x06	; 1671
      000396 F2 02                 2052 	.byte #0xF2,#0x02	; 754
      000398 53 07                 2053 	.byte #0x53,#0x07	; 1875
      00039A 26 03                 2054 	.byte #0x26,#0x03	; 806
      00039C CC 03                 2055 	.byte #0xCC,#0x03	; 972
      00039E B9 07                 2056 	.byte #0xB9,#0x07	; 1977
      0003A0 48 05                 2057 	.byte #0x48,#0x05	; 1352
      0003A2 3D 01                 2058 	.byte #0x3D,#0x01	; 317
      0003A4 D7 01                 2059 	.byte #0xD7,#0x01	; 471
      0003A6 A2 05                 2060 	.byte #0xA2,#0x05	; 1442
      0003A8 03 00                 2061 	.byte #0x03,#0x00	; 3
      0003AA 76 04                 2062 	.byte #0x76,#0x04	; 1142
      0003AC 9C 04                 2063 	.byte #0x9C,#0x04	; 1180
      0003AE E9 00                 2064 	.byte #0xE9,#0x00	; 233
      0003B0 AB 03                 2065 	.byte #0xAB,#0x03	; 939
      0003B2 DE 07                 2066 	.byte #0xDE,#0x07	; 2014
      0003B4 34 07                 2067 	.byte #0x34,#0x07	; 1844
      0003B6 41 03                 2068 	.byte #0x41,#0x03	; 833
      0003B8 E0 06                 2069 	.byte #0xE0,#0x06	; 1760
      0003BA 95 02                 2070 	.byte #0x95,#0x02	; 661
      0003BC 7F 02                 2071 	.byte #0x7F,#0x02	; 639
      0003BE 0A 06                 2072 	.byte #0x0A,#0x06	; 1546
      0003C0 9D 07                 2073 	.byte #0x9D,#0x07	; 1949
      0003C2 E8 03                 2074 	.byte #0xE8,#0x03	; 1000
      0003C4 02 03                 2075 	.byte #0x02,#0x03	; 770
      0003C6 77 07                 2076 	.byte #0x77,#0x07	; 1911
      0003C8 D6 02                 2077 	.byte #0xD6,#0x02	; 726
      0003CA A3 06                 2078 	.byte #0xA3,#0x06	; 1699
      0003CC 49 06                 2079 	.byte #0x49,#0x06	; 1609
      0003CE 3C 02                 2080 	.byte #0x3C,#0x02	; 572
      0003D0 7E 01                 2081 	.byte #0x7E,#0x01	; 382
      0003D2 0B 05                 2082 	.byte #0x0B,#0x05	; 1291
      0003D4 E1 05                 2083 	.byte #0xE1,#0x05	; 1505
      0003D6 94 01                 2084 	.byte #0x94,#0x01	; 404
      0003D8 35 04                 2085 	.byte #0x35,#0x04	; 1077
      0003DA 40 00                 2086 	.byte #0x40,#0x00	; 64
      0003DC AA 00                 2087 	.byte #0xAA,#0x00	; 170
      0003DE DF 04                 2088 	.byte #0xDF,#0x04	; 1247
      0003E0 2E 06                 2089 	.byte #0x2E,#0x06	; 1582
      0003E2 5B 02                 2090 	.byte #0x5B,#0x02	; 603
      0003E4 B1 02                 2091 	.byte #0xB1,#0x02	; 689
      0003E6 C4 06                 2092 	.byte #0xC4,#0x06	; 1732
      0003E8 65 03                 2093 	.byte #0x65,#0x03	; 869
      0003EA 10 07                 2094 	.byte #0x10,#0x07	; 1808
      0003EC FA 07                 2095 	.byte #0xFA,#0x07	; 2042
      0003EE 8F 03                 2096 	.byte #0x8F,#0x03	; 911
      0003F0 CD 00                 2097 	.byte #0xCD,#0x00	; 205
      0003F2 B8 04                 2098 	.byte #0xB8,#0x04	; 1208
      0003F4 52 04                 2099 	.byte #0x52,#0x04	; 1106
      0003F6 27 00                 2100 	.byte #0x27,#0x00	; 39
      0003F8 86 05                 2101 	.byte #0x86,#0x05	; 1414
      0003FA F3 01                 2102 	.byte #0xF3,#0x01	; 499
      0003FC 19 01                 2103 	.byte #0x19,#0x01	; 281
      0003FE 6C 05                 2104 	.byte #0x6C,#0x05	; 1388
      000400 B4 07                 2105 	.byte #0xB4,#0x07	; 1972
      000402 C1 03                 2106 	.byte #0xC1,#0x03	; 961
      000404 2B 03                 2107 	.byte #0x2B,#0x03	; 811
      000406 5E 07                 2108 	.byte #0x5E,#0x07	; 1886
      000408 FF 02                 2109 	.byte #0xFF,#0x02	; 767
      00040A 8A 06                 2110 	.byte #0x8A,#0x06	; 1674
      00040C 60 06                 2111 	.byte #0x60,#0x06	; 1632
      00040E 15 02                 2112 	.byte #0x15,#0x02	; 533
      000410 57 01                 2113 	.byte #0x57,#0x01	; 343
      000412 22 05                 2114 	.byte #0x22,#0x05	; 1314
      000414 C8 05                 2115 	.byte #0xC8,#0x05	; 1480
      000416 BD 01                 2116 	.byte #0xBD,#0x01	; 445
      000418 1C 04                 2117 	.byte #0x1C,#0x04	; 1052
      00041A 69 00                 2118 	.byte #0x69,#0x00	; 105
      00041C 83 00                 2119 	.byte #0x83,#0x00	; 131
      00041E F6 04                 2120 	.byte #0xF6,#0x04	; 1270
      000420 07 06                 2121 	.byte #0x07,#0x06	; 1543
      000422 72 02                 2122 	.byte #0x72,#0x02	; 626
      000424 98 02                 2123 	.byte #0x98,#0x02	; 664
      000426 ED 06                 2124 	.byte #0xED,#0x06	; 1773
      000428 4C 03                 2125 	.byte #0x4C,#0x03	; 844
      00042A 39 07                 2126 	.byte #0x39,#0x07	; 1849
      00042C D3 07                 2127 	.byte #0xD3,#0x07	; 2003
      00042E A6 03                 2128 	.byte #0xA6,#0x03	; 934
      000430 E4 00                 2129 	.byte #0xE4,#0x00	; 228
      000432 91 04                 2130 	.byte #0x91,#0x04	; 1169
      000434 7B 04                 2131 	.byte #0x7B,#0x04	; 1147
      000436 0E 00                 2132 	.byte #0x0E,#0x00	; 14
      000438 AF 05                 2133 	.byte #0xAF,#0x05	; 1455
      00043A DA 01                 2134 	.byte #0xDA,#0x01	; 474
      00043C 30 01                 2135 	.byte #0x30,#0x01	; 304
      00043E 45 05                 2136 	.byte #0x45,#0x05	; 1349
      000440 D2 04                 2137 	.byte #0xD2,#0x04	; 1234
      000442 A7 00                 2138 	.byte #0xA7,#0x00	; 167
      000444 4D 00                 2139 	.byte #0x4D,#0x00	; 77
      000446 38 04                 2140 	.byte #0x38,#0x04	; 1080
      000448 99 01                 2141 	.byte #0x99,#0x01	; 409
      00044A EC 05                 2142 	.byte #0xEC,#0x05	; 1516
      00044C 06 05                 2143 	.byte #0x06,#0x05	; 1286
      00044E 73 01                 2144 	.byte #0x73,#0x01	; 371
      000450 31 02                 2145 	.byte #0x31,#0x02	; 561
      000452 44 06                 2146 	.byte #0x44,#0x06	; 1604
      000454 AE 06                 2147 	.byte #0xAE,#0x06	; 1710
      000456 DB 02                 2148 	.byte #0xDB,#0x02	; 731
      000458 7A 07                 2149 	.byte #0x7A,#0x07	; 1914
      00045A 0F 03                 2150 	.byte #0x0F,#0x03	; 783
      00045C E5 03                 2151 	.byte #0xE5,#0x03	; 997
      00045E 90 07                 2152 	.byte #0x90,#0x07	; 1936
      000460 61 05                 2153 	.byte #0x61,#0x05	; 1377
      000462 14 01                 2154 	.byte #0x14,#0x01	; 276
      000464 FE 01                 2155 	.byte #0xFE,#0x01	; 510
      000466 8B 05                 2156 	.byte #0x8B,#0x05	; 1419
      000468 2A 00                 2157 	.byte #0x2A,#0x00	; 42
      00046A 5F 04                 2158 	.byte #0x5F,#0x04	; 1119
      00046C B5 04                 2159 	.byte #0xB5,#0x04	; 1205
      00046E C0 00                 2160 	.byte #0xC0,#0x00	; 192
      000470 82 03                 2161 	.byte #0x82,#0x03	; 898
      000472 F7 07                 2162 	.byte #0xF7,#0x07	; 2039
      000474 1D 07                 2163 	.byte #0x1D,#0x07	; 1821
      000476 68 03                 2164 	.byte #0x68,#0x03	; 872
      000478 C9 06                 2165 	.byte #0xC9,#0x06	; 1737
      00047A BC 02                 2166 	.byte #0xBC,#0x02	; 700
      00047C 56 02                 2167 	.byte #0x56,#0x02	; 598
      00047E 23 06                 2168 	.byte #0x23,#0x06	; 1571
      000480 78 01                 2169 	.byte #0x78,#0x01	; 376
      000482 0D 05                 2170 	.byte #0x0D,#0x05	; 1293
      000484 E7 05                 2171 	.byte #0xE7,#0x05	; 1511
      000486 92 01                 2172 	.byte #0x92,#0x01	; 402
      000488 33 04                 2173 	.byte #0x33,#0x04	; 1075
      00048A 46 00                 2174 	.byte #0x46,#0x00	; 70
      00048C AC 00                 2175 	.byte #0xAC,#0x00	; 172
      00048E D9 04                 2176 	.byte #0xD9,#0x04	; 1241
      000490 9B 07                 2177 	.byte #0x9B,#0x07	; 1947
      000492 EE 03                 2178 	.byte #0xEE,#0x03	; 1006
      000494 04 03                 2179 	.byte #0x04,#0x03	; 772
      000496 71 07                 2180 	.byte #0x71,#0x07	; 1905
      000498 D0 02                 2181 	.byte #0xD0,#0x02	; 720
      00049A A5 06                 2182 	.byte #0xA5,#0x06	; 1701
      00049C 4F 06                 2183 	.byte #0x4F,#0x06	; 1615
      00049E 3A 02                 2184 	.byte #0x3A,#0x02	; 570
      0004A0 CB 00                 2185 	.byte #0xCB,#0x00	; 203
      0004A2 BE 04                 2186 	.byte #0xBE,#0x04	; 1214
      0004A4 54 04                 2187 	.byte #0x54,#0x04	; 1108
      0004A6 21 00                 2188 	.byte #0x21,#0x00	; 33
      0004A8 80 05                 2189 	.byte #0x80,#0x05	; 1408
      0004AA F5 01                 2190 	.byte #0xF5,#0x01	; 501
      0004AC 1F 01                 2191 	.byte #0x1F,#0x01	; 287
      0004AE 6A 05                 2192 	.byte #0x6A,#0x05	; 1386
      0004B0 28 06                 2193 	.byte #0x28,#0x06	; 1576
      0004B2 5D 02                 2194 	.byte #0x5D,#0x02	; 605
      0004B4 B7 02                 2195 	.byte #0xB7,#0x02	; 695
      0004B6 C2 06                 2196 	.byte #0xC2,#0x06	; 1730
      0004B8 63 03                 2197 	.byte #0x63,#0x03	; 867
      0004BA 16 07                 2198 	.byte #0x16,#0x07	; 1814
      0004BC FC 07                 2199 	.byte #0xFC,#0x07	; 2044
      0004BE 89 03                 2200 	.byte #0x89,#0x03	; 905
      0004C0 1E 02                 2201 	.byte #0x1E,#0x02	; 542
      0004C2 6B 06                 2202 	.byte #0x6B,#0x06	; 1643
      0004C4 81 06                 2203 	.byte #0x81,#0x06	; 1665
      0004C6 F4 02                 2204 	.byte #0xF4,#0x02	; 756
      0004C8 55 07                 2205 	.byte #0x55,#0x07	; 1877
      0004CA 20 03                 2206 	.byte #0x20,#0x03	; 800
      0004CC CA 03                 2207 	.byte #0xCA,#0x03	; 970
      0004CE BF 07                 2208 	.byte #0xBF,#0x07	; 1983
      0004D0 FD 04                 2209 	.byte #0xFD,#0x04	; 1277
      0004D2 88 00                 2210 	.byte #0x88,#0x00	; 136
      0004D4 62 00                 2211 	.byte #0x62,#0x00	; 98
      0004D6 17 04                 2212 	.byte #0x17,#0x04	; 1047
      0004D8 B6 01                 2213 	.byte #0xB6,#0x01	; 438
      0004DA C3 05                 2214 	.byte #0xC3,#0x05	; 1475
      0004DC 29 05                 2215 	.byte #0x29,#0x05	; 1321
      0004DE 5C 01                 2216 	.byte #0x5C,#0x01	; 348
      0004E0 AD 03                 2217 	.byte #0xAD,#0x03	; 941
      0004E2 D8 07                 2218 	.byte #0xD8,#0x07	; 2008
      0004E4 32 07                 2219 	.byte #0x32,#0x07	; 1842
      0004E6 47 03                 2220 	.byte #0x47,#0x03	; 839
      0004E8 E6 06                 2221 	.byte #0xE6,#0x06	; 1766
      0004EA 93 02                 2222 	.byte #0x93,#0x02	; 659
      0004EC 79 02                 2223 	.byte #0x79,#0x02	; 633
      0004EE 0C 06                 2224 	.byte #0x0C,#0x06	; 1548
      0004F0 4E 05                 2225 	.byte #0x4E,#0x05	; 1358
      0004F2 3B 01                 2226 	.byte #0x3B,#0x01	; 315
      0004F4 D1 01                 2227 	.byte #0xD1,#0x01	; 465
      0004F6 A4 05                 2228 	.byte #0xA4,#0x05	; 1444
      0004F8 05 00                 2229 	.byte #0x05,#0x00	; 5
      0004FA 70 04                 2230 	.byte #0x70,#0x04	; 1136
      0004FC 9A 04                 2231 	.byte #0x9A,#0x04	; 1178
      0004FE EF 00                 2232 	.byte #0xEF,#0x00	; 239
      000500 59 06                 2233 	.byte #0x59,#0x06	; 1625
      000502 2C 02                 2234 	.byte #0x2C,#0x02	; 556
      000504 C6 02                 2235 	.byte #0xC6,#0x02	; 710
      000506 B3 06                 2236 	.byte #0xB3,#0x06	; 1715
      000508 12 03                 2237 	.byte #0x12,#0x03	; 786
      00050A 67 07                 2238 	.byte #0x67,#0x07	; 1895
      00050C 8D 07                 2239 	.byte #0x8D,#0x07	; 1933
      00050E F8 03                 2240 	.byte #0xF8,#0x03	; 1016
      000510 BA 00                 2241 	.byte #0xBA,#0x00	; 186
      000512 CF 04                 2242 	.byte #0xCF,#0x04	; 1231
      000514 25 04                 2243 	.byte #0x25,#0x04	; 1061
      000516 50 00                 2244 	.byte #0x50,#0x00	; 80
      000518 F1 05                 2245 	.byte #0xF1,#0x05	; 1521
      00051A 84 01                 2246 	.byte #0x84,#0x01	; 388
      00051C 6E 01                 2247 	.byte #0x6E,#0x01	; 366
      00051E 1B 05                 2248 	.byte #0x1B,#0x05	; 1307
      000520 EA 07                 2249 	.byte #0xEA,#0x07	; 2026
      000522 9F 03                 2250 	.byte #0x9F,#0x03	; 927
      000524 75 03                 2251 	.byte #0x75,#0x03	; 885
      000526 00 07                 2252 	.byte #0x00,#0x07	; 1792
      000528 A1 02                 2253 	.byte #0xA1,#0x02	; 673
      00052A D4 06                 2254 	.byte #0xD4,#0x06	; 1748
      00052C 3E 06                 2255 	.byte #0x3E,#0x06	; 1598
      00052E 4B 02                 2256 	.byte #0x4B,#0x02	; 587
      000530 09 01                 2257 	.byte #0x09,#0x01	; 265
      000532 7C 05                 2258 	.byte #0x7C,#0x05	; 1404
      000534 96 05                 2259 	.byte #0x96,#0x05	; 1430
      000536 E3 01                 2260 	.byte #0xE3,#0x01	; 483
      000538 42 04                 2261 	.byte #0x42,#0x04	; 1090
      00053A 37 00                 2262 	.byte #0x37,#0x00	; 55
      00053C DD 00                 2263 	.byte #0xDD,#0x00	; 221
      00053E A8 04                 2264 	.byte #0xA8,#0x04	; 1192
      000540 3F 05                 2265 	.byte #0x3F,#0x05	; 1343
      000542 4A 01                 2266 	.byte #0x4A,#0x01	; 330
      000544 A0 01                 2267 	.byte #0xA0,#0x01	; 416
      000546 D5 05                 2268 	.byte #0xD5,#0x05	; 1493
      000548 74 00                 2269 	.byte #0x74,#0x00	; 116
      00054A 01 04                 2270 	.byte #0x01,#0x04	; 1025
      00054C EB 04                 2271 	.byte #0xEB,#0x04	; 1259
      00054E 9E 00                 2272 	.byte #0x9E,#0x00	; 158
      000550 DC 03                 2273 	.byte #0xDC,#0x03	; 988
      000552 A9 07                 2274 	.byte #0xA9,#0x07	; 1961
      000554 43 07                 2275 	.byte #0x43,#0x07	; 1859
      000556 36 03                 2276 	.byte #0x36,#0x03	; 822
      000558 97 06                 2277 	.byte #0x97,#0x06	; 1687
      00055A E2 02                 2278 	.byte #0xE2,#0x02	; 738
      00055C 08 02                 2279 	.byte #0x08,#0x02	; 520
      00055E 7D 06                 2280 	.byte #0x7D,#0x06	; 1661
      000560 8C 04                 2281 	.byte #0x8C,#0x04	; 1164
      000562 F9 00                 2282 	.byte #0xF9,#0x00	; 249
      000564 13 00                 2283 	.byte #0x13,#0x00	; 19
      000566 66 04                 2284 	.byte #0x66,#0x04	; 1126
      000568 C7 01                 2285 	.byte #0xC7,#0x01	; 455
      00056A B2 05                 2286 	.byte #0xB2,#0x05	; 1458
      00056C 58 05                 2287 	.byte #0x58,#0x05	; 1368
      00056E 2D 01                 2288 	.byte #0x2D,#0x01	; 301
      000570 6F 02                 2289 	.byte #0x6F,#0x02	; 623
      000572 1A 06                 2290 	.byte #0x1A,#0x06	; 1562
      000574 F0 06                 2291 	.byte #0xF0,#0x06	; 1776
      000576 85 02                 2292 	.byte #0x85,#0x02	; 645
      000578 24 07                 2293 	.byte #0x24,#0x07	; 1828
      00057A 51 03                 2294 	.byte #0x51,#0x03	; 849
      00057C BB 03                 2295 	.byte #0xBB,#0x03	; 955
      00057E CE 07                 2296 	.byte #0xCE,#0x07	; 1998
      000580 95 00                 2297 	.byte #0x95,#0x00	; 149
      000582 E0 04                 2298 	.byte #0xE0,#0x04	; 1248
      000584 0A 04                 2299 	.byte #0x0A,#0x04	; 1034
      000586 7F 00                 2300 	.byte #0x7F,#0x00	; 127
      000588 DE 05                 2301 	.byte #0xDE,#0x05	; 1502
      00058A AB 01                 2302 	.byte #0xAB,#0x01	; 427
      00058C 41 01                 2303 	.byte #0x41,#0x01	; 321
      00058E 34 05                 2304 	.byte #0x34,#0x05	; 1332
      000590 76 06                 2305 	.byte #0x76,#0x06	; 1654
      000592 03 02                 2306 	.byte #0x03,#0x02	; 515
      000594 E9 02                 2307 	.byte #0xE9,#0x02	; 745
      000596 9C 06                 2308 	.byte #0x9C,#0x06	; 1692
      000598 3D 03                 2309 	.byte #0x3D,#0x03	; 829
      00059A 48 07                 2310 	.byte #0x48,#0x07	; 1864
      00059C A2 07                 2311 	.byte #0xA2,#0x07	; 1954
      00059E D7 03                 2312 	.byte #0xD7,#0x03	; 983
      0005A0 26 01                 2313 	.byte #0x26,#0x01	; 294
      0005A2 53 05                 2314 	.byte #0x53,#0x05	; 1363
      0005A4 B9 05                 2315 	.byte #0xB9,#0x05	; 1465
      0005A6 CC 01                 2316 	.byte #0xCC,#0x01	; 460
      0005A8 6D 04                 2317 	.byte #0x6D,#0x04	; 1133
      0005AA 18 00                 2318 	.byte #0x18,#0x00	; 24
      0005AC F2 00                 2319 	.byte #0xF2,#0x00	; 242
      0005AE 87 04                 2320 	.byte #0x87,#0x04	; 1159
      0005B0 C5 07                 2321 	.byte #0xC5,#0x07	; 1989
      0005B2 B0 03                 2322 	.byte #0xB0,#0x03	; 944
      0005B4 5A 03                 2323 	.byte #0x5A,#0x03	; 858
      0005B6 2F 07                 2324 	.byte #0x2F,#0x07	; 1839
      0005B8 8E 02                 2325 	.byte #0x8E,#0x02	; 654
      0005BA FB 06                 2326 	.byte #0xFB,#0x06	; 1787
      0005BC 11 06                 2327 	.byte #0x11,#0x06	; 1553
      0005BE 64 02                 2328 	.byte #0x64,#0x02	; 612
      0005C0 F3 03                 2329 	.byte #0xF3,#0x03	; 1011
      0005C2 86 07                 2330 	.byte #0x86,#0x07	; 1926
      0005C4 6C 07                 2331 	.byte #0x6C,#0x07	; 1900
      0005C6 19 03                 2332 	.byte #0x19,#0x03	; 793
      0005C8 B8 06                 2333 	.byte #0xB8,#0x06	; 1720
      0005CA CD 02                 2334 	.byte #0xCD,#0x02	; 717
      0005CC 27 02                 2335 	.byte #0x27,#0x02	; 551
      0005CE 52 06                 2336 	.byte #0x52,#0x06	; 1618
      0005D0 10 05                 2337 	.byte #0x10,#0x05	; 1296
      0005D2 65 01                 2338 	.byte #0x65,#0x01	; 357
      0005D4 8F 01                 2339 	.byte #0x8F,#0x01	; 399
      0005D6 FA 05                 2340 	.byte #0xFA,#0x05	; 1530
      0005D8 5B 00                 2341 	.byte #0x5B,#0x00	; 91
      0005DA 2E 04                 2342 	.byte #0x2E,#0x04	; 1070
      0005DC C4 04                 2343 	.byte #0xC4,#0x04	; 1220
      0005DE B1 00                 2344 	.byte #0xB1,#0x00	; 177
      0005E0 40 02                 2345 	.byte #0x40,#0x02	; 576
      0005E2 35 06                 2346 	.byte #0x35,#0x06	; 1589
      0005E4 DF 06                 2347 	.byte #0xDF,#0x06	; 1759
      0005E6 AA 02                 2348 	.byte #0xAA,#0x02	; 682
      0005E8 0B 07                 2349 	.byte #0x0B,#0x07	; 1803
      0005EA 7E 03                 2350 	.byte #0x7E,#0x03	; 894
      0005EC 94 03                 2351 	.byte #0x94,#0x03	; 916
      0005EE E1 07                 2352 	.byte #0xE1,#0x07	; 2017
      0005F0 A3 04                 2353 	.byte #0xA3,#0x04	; 1187
      0005F2 D6 00                 2354 	.byte #0xD6,#0x00	; 214
      0005F4 3C 00                 2355 	.byte #0x3C,#0x00	; 60
      0005F6 49 04                 2356 	.byte #0x49,#0x04	; 1097
      0005F8 E8 01                 2357 	.byte #0xE8,#0x01	; 488
      0005FA 9D 05                 2358 	.byte #0x9D,#0x05	; 1437
      0005FC 77 05                 2359 	.byte #0x77,#0x05	; 1399
      0005FE 02 01                 2360 	.byte #0x02,#0x01	; 258
      000600 6E 04                 2361 	.byte #0x6E,#0x04	; 1134
      000602 1B 00                 2362 	.byte #0x1B,#0x00	; 27
      000604 F1 00                 2363 	.byte #0xF1,#0x00	; 241
      000606 84 04                 2364 	.byte #0x84,#0x04	; 1156
      000608 25 01                 2365 	.byte #0x25,#0x01	; 293
      00060A 50 05                 2366 	.byte #0x50,#0x05	; 1360
      00060C BA 05                 2367 	.byte #0xBA,#0x05	; 1466
      00060E CF 01                 2368 	.byte #0xCF,#0x01	; 463
      000610 8D 02                 2369 	.byte #0x8D,#0x02	; 653
      000612 F8 06                 2370 	.byte #0xF8,#0x06	; 1784
      000614 12 06                 2371 	.byte #0x12,#0x06	; 1554
      000616 67 02                 2372 	.byte #0x67,#0x02	; 615
      000618 C6 07                 2373 	.byte #0xC6,#0x07	; 1990
      00061A B3 03                 2374 	.byte #0xB3,#0x03	; 947
      00061C 59 03                 2375 	.byte #0x59,#0x03	; 857
      00061E 2C 07                 2376 	.byte #0x2C,#0x07	; 1836
      000620 DD 05                 2377 	.byte #0xDD,#0x05	; 1501
      000622 A8 01                 2378 	.byte #0xA8,#0x01	; 424
      000624 42 01                 2379 	.byte #0x42,#0x01	; 322
      000626 37 05                 2380 	.byte #0x37,#0x05	; 1335
      000628 96 00                 2381 	.byte #0x96,#0x00	; 150
      00062A E3 04                 2382 	.byte #0xE3,#0x04	; 1251
      00062C 09 04                 2383 	.byte #0x09,#0x04	; 1033
      00062E 7C 00                 2384 	.byte #0x7C,#0x00	; 124
      000630 3E 03                 2385 	.byte #0x3E,#0x03	; 830
      000632 4B 07                 2386 	.byte #0x4B,#0x07	; 1867
      000634 A1 07                 2387 	.byte #0xA1,#0x07	; 1953
      000636 D4 03                 2388 	.byte #0xD4,#0x03	; 980
      000638 75 06                 2389 	.byte #0x75,#0x06	; 1653
      00063A 00 02                 2390 	.byte #0x00,#0x02	; 512
      00063C EA 02                 2391 	.byte #0xEA,#0x02	; 746
      00063E 9F 06                 2392 	.byte #0x9F,#0x06	; 1695
      000640 08 07                 2393 	.byte #0x08,#0x07	; 1800
      000642 7D 03                 2394 	.byte #0x7D,#0x03	; 893
      000644 97 03                 2395 	.byte #0x97,#0x03	; 919
      000646 E2 07                 2396 	.byte #0xE2,#0x07	; 2018
      000648 43 02                 2397 	.byte #0x43,#0x02	; 579
      00064A 36 06                 2398 	.byte #0x36,#0x06	; 1590
      00064C DC 06                 2399 	.byte #0xDC,#0x06	; 1756
      00064E A9 02                 2400 	.byte #0xA9,#0x02	; 681
      000650 EB 01                 2401 	.byte #0xEB,#0x01	; 491
      000652 9E 05                 2402 	.byte #0x9E,#0x05	; 1438
      000654 74 05                 2403 	.byte #0x74,#0x05	; 1396
      000656 01 01                 2404 	.byte #0x01,#0x01	; 257
      000658 A0 04                 2405 	.byte #0xA0,#0x04	; 1184
      00065A D5 00                 2406 	.byte #0xD5,#0x00	; 213
      00065C 3F 00                 2407 	.byte #0x3F,#0x00	; 63
      00065E 4A 04                 2408 	.byte #0x4A,#0x04	; 1098
      000660 BB 06                 2409 	.byte #0xBB,#0x06	; 1723
      000662 CE 02                 2410 	.byte #0xCE,#0x02	; 718
      000664 24 02                 2411 	.byte #0x24,#0x02	; 548
      000666 51 06                 2412 	.byte #0x51,#0x06	; 1617
      000668 F0 03                 2413 	.byte #0xF0,#0x03	; 1008
      00066A 85 07                 2414 	.byte #0x85,#0x07	; 1925
      00066C 6F 07                 2415 	.byte #0x6F,#0x07	; 1903
      00066E 1A 03                 2416 	.byte #0x1A,#0x03	; 794
      000670 58 00                 2417 	.byte #0x58,#0x00	; 88
      000672 2D 04                 2418 	.byte #0x2D,#0x04	; 1069
      000674 C7 04                 2419 	.byte #0xC7,#0x04	; 1223
      000676 B2 00                 2420 	.byte #0xB2,#0x00	; 178
      000678 13 05                 2421 	.byte #0x13,#0x05	; 1299
      00067A 66 01                 2422 	.byte #0x66,#0x01	; 358
      00067C 8C 01                 2423 	.byte #0x8C,#0x01	; 396
      00067E F9 05                 2424 	.byte #0xF9,#0x05	; 1529
      000680 A2 02                 2425 	.byte #0xA2,#0x02	; 674
      000682 D7 06                 2426 	.byte #0xD7,#0x06	; 1751
      000684 3D 06                 2427 	.byte #0x3D,#0x06	; 1597
      000686 48 02                 2428 	.byte #0x48,#0x02	; 584
      000688 E9 07                 2429 	.byte #0xE9,#0x07	; 2025
      00068A 9C 03                 2430 	.byte #0x9C,#0x03	; 924
      00068C 76 03                 2431 	.byte #0x76,#0x03	; 886
      00068E 03 07                 2432 	.byte #0x03,#0x07	; 1795
      000690 41 04                 2433 	.byte #0x41,#0x04	; 1089
      000692 34 00                 2434 	.byte #0x34,#0x00	; 52
      000694 DE 00                 2435 	.byte #0xDE,#0x00	; 222
      000696 AB 04                 2436 	.byte #0xAB,#0x04	; 1195
      000698 0A 01                 2437 	.byte #0x0A,#0x01	; 266
      00069A 7F 05                 2438 	.byte #0x7F,#0x05	; 1407
      00069C 95 05                 2439 	.byte #0x95,#0x05	; 1429
      00069E E0 01                 2440 	.byte #0xE0,#0x01	; 480
      0006A0 11 03                 2441 	.byte #0x11,#0x03	; 785
      0006A2 64 07                 2442 	.byte #0x64,#0x07	; 1892
      0006A4 8E 07                 2443 	.byte #0x8E,#0x07	; 1934
      0006A6 FB 03                 2444 	.byte #0xFB,#0x03	; 1019
      0006A8 5A 06                 2445 	.byte #0x5A,#0x06	; 1626
      0006AA 2F 02                 2446 	.byte #0x2F,#0x02	; 559
      0006AC C5 02                 2447 	.byte #0xC5,#0x02	; 709
      0006AE B0 06                 2448 	.byte #0xB0,#0x06	; 1712
      0006B0 F2 05                 2449 	.byte #0xF2,#0x05	; 1522
      0006B2 87 01                 2450 	.byte #0x87,#0x01	; 391
      0006B4 6D 01                 2451 	.byte #0x6D,#0x01	; 365
      0006B6 18 05                 2452 	.byte #0x18,#0x05	; 1304
      0006B8 B9 00                 2453 	.byte #0xB9,#0x00	; 185
      0006BA CC 04                 2454 	.byte #0xCC,#0x04	; 1228
      0006BC 26 04                 2455 	.byte #0x26,#0x04	; 1062
      0006BE 53 00                 2456 	.byte #0x53,#0x00	; 83
      0006C0 C4 01                 2457 	.byte #0xC4,#0x01	; 452
      0006C2 B1 05                 2458 	.byte #0xB1,#0x05	; 1457
      0006C4 5B 05                 2459 	.byte #0x5B,#0x05	; 1371
      0006C6 2E 01                 2460 	.byte #0x2E,#0x01	; 302
      0006C8 8F 04                 2461 	.byte #0x8F,#0x04	; 1167
      0006CA FA 00                 2462 	.byte #0xFA,#0x00	; 250
      0006CC 10 00                 2463 	.byte #0x10,#0x00	; 16
      0006CE 65 04                 2464 	.byte #0x65,#0x04	; 1125
      0006D0 27 07                 2465 	.byte #0x27,#0x07	; 1831
      0006D2 52 03                 2466 	.byte #0x52,#0x03	; 850
      0006D4 B8 03                 2467 	.byte #0xB8,#0x03	; 952
      0006D6 CD 07                 2468 	.byte #0xCD,#0x07	; 1997
      0006D8 6C 02                 2469 	.byte #0x6C,#0x02	; 620
      0006DA 19 06                 2470 	.byte #0x19,#0x06	; 1561
      0006DC F3 06                 2471 	.byte #0xF3,#0x06	; 1779
      0006DE 86 02                 2472 	.byte #0x86,#0x02	; 646
      0006E0 77 00                 2473 	.byte #0x77,#0x00	; 119
      0006E2 02 04                 2474 	.byte #0x02,#0x04	; 1026
      0006E4 E8 04                 2475 	.byte #0xE8,#0x04	; 1256
      0006E6 9D 00                 2476 	.byte #0x9D,#0x00	; 157
      0006E8 3C 05                 2477 	.byte #0x3C,#0x05	; 1340
      0006EA 49 01                 2478 	.byte #0x49,#0x01	; 329
      0006EC A3 01                 2479 	.byte #0xA3,#0x01	; 419
      0006EE D6 05                 2480 	.byte #0xD6,#0x05	; 1494
      0006F0 94 06                 2481 	.byte #0x94,#0x06	; 1684
      0006F2 E1 02                 2482 	.byte #0xE1,#0x02	; 737
      0006F4 0B 02                 2483 	.byte #0x0B,#0x02	; 523
      0006F6 7E 06                 2484 	.byte #0x7E,#0x06	; 1662
      0006F8 DF 03                 2485 	.byte #0xDF,#0x03	; 991
      0006FA AA 07                 2486 	.byte #0xAA,#0x07	; 1962
      0006FC 40 07                 2487 	.byte #0x40,#0x07	; 1856
      0006FE 35 03                 2488 	.byte #0x35,#0x03	; 821
      000700 83 05                 2489 	.byte #0x83,#0x05	; 1411
      000702 F6 01                 2490 	.byte #0xF6,#0x01	; 502
      000704 1C 01                 2491 	.byte #0x1C,#0x01	; 284
      000706 69 05                 2492 	.byte #0x69,#0x05	; 1385
      000708 C8 00                 2493 	.byte #0xC8,#0x00	; 200
      00070A BD 04                 2494 	.byte #0xBD,#0x04	; 1213
      00070C 57 04                 2495 	.byte #0x57,#0x04	; 1111
      00070E 22 00                 2496 	.byte #0x22,#0x00	; 34
      000710 60 03                 2497 	.byte #0x60,#0x03	; 864
      000712 15 07                 2498 	.byte #0x15,#0x07	; 1813
      000714 FF 07                 2499 	.byte #0xFF,#0x07	; 2047
      000716 8A 03                 2500 	.byte #0x8A,#0x03	; 906
      000718 2B 06                 2501 	.byte #0x2B,#0x06	; 1579
      00071A 5E 02                 2502 	.byte #0x5E,#0x02	; 606
      00071C B4 02                 2503 	.byte #0xB4,#0x02	; 692
      00071E C1 06                 2504 	.byte #0xC1,#0x06	; 1729
      000720 30 04                 2505 	.byte #0x30,#0x04	; 1072
      000722 45 00                 2506 	.byte #0x45,#0x00	; 69
      000724 AF 00                 2507 	.byte #0xAF,#0x00	; 175
      000726 DA 04                 2508 	.byte #0xDA,#0x04	; 1242
      000728 7B 01                 2509 	.byte #0x7B,#0x01	; 379
      00072A 0E 05                 2510 	.byte #0x0E,#0x05	; 1294
      00072C E4 05                 2511 	.byte #0xE4,#0x05	; 1508
      00072E 91 01                 2512 	.byte #0x91,#0x01	; 401
      000730 D3 02                 2513 	.byte #0xD3,#0x02	; 723
      000732 A6 06                 2514 	.byte #0xA6,#0x06	; 1702
      000734 4C 06                 2515 	.byte #0x4C,#0x06	; 1612
      000736 39 02                 2516 	.byte #0x39,#0x02	; 569
      000738 98 07                 2517 	.byte #0x98,#0x07	; 1944
      00073A ED 03                 2518 	.byte #0xED,#0x03	; 1005
      00073C 07 03                 2519 	.byte #0x07,#0x03	; 775
      00073E 72 07                 2520 	.byte #0x72,#0x07	; 1906
      000740 E5 06                 2521 	.byte #0xE5,#0x06	; 1765
      000742 90 02                 2522 	.byte #0x90,#0x02	; 656
      000744 7A 02                 2523 	.byte #0x7A,#0x02	; 634
      000746 0F 06                 2524 	.byte #0x0F,#0x06	; 1551
      000748 AE 03                 2525 	.byte #0xAE,#0x03	; 942
      00074A DB 07                 2526 	.byte #0xDB,#0x07	; 2011
      00074C 31 07                 2527 	.byte #0x31,#0x07	; 1841
      00074E 44 03                 2528 	.byte #0x44,#0x03	; 836
      000750 06 00                 2529 	.byte #0x06,#0x00	; 6
      000752 73 04                 2530 	.byte #0x73,#0x04	; 1139
      000754 99 04                 2531 	.byte #0x99,#0x04	; 1177
      000756 EC 00                 2532 	.byte #0xEC,#0x00	; 236
      000758 4D 05                 2533 	.byte #0x4D,#0x05	; 1357
      00075A 38 01                 2534 	.byte #0x38,#0x01	; 312
      00075C D2 01                 2535 	.byte #0xD2,#0x01	; 466
      00075E A7 05                 2536 	.byte #0xA7,#0x05	; 1447
      000760 56 07                 2537 	.byte #0x56,#0x07	; 1878
      000762 23 03                 2538 	.byte #0x23,#0x03	; 803
      000764 C9 03                 2539 	.byte #0xC9,#0x03	; 969
      000766 BC 07                 2540 	.byte #0xBC,#0x07	; 1980
      000768 1D 02                 2541 	.byte #0x1D,#0x02	; 541
      00076A 68 06                 2542 	.byte #0x68,#0x06	; 1640
      00076C 82 06                 2543 	.byte #0x82,#0x06	; 1666
      00076E F7 02                 2544 	.byte #0xF7,#0x02	; 759
      000770 B5 01                 2545 	.byte #0xB5,#0x01	; 437
      000772 C0 05                 2546 	.byte #0xC0,#0x05	; 1472
      000774 2A 05                 2547 	.byte #0x2A,#0x05	; 1322
      000776 5F 01                 2548 	.byte #0x5F,#0x01	; 351
      000778 FE 04                 2549 	.byte #0xFE,#0x04	; 1278
      00077A 8B 00                 2550 	.byte #0x8B,#0x00	; 139
      00077C 61 00                 2551 	.byte #0x61,#0x00	; 97
      00077E 14 04                 2552 	.byte #0x14,#0x04	; 1044
      000780 4F 03                 2553 	.byte #0x4F,#0x03	; 847
      000782 3A 07                 2554 	.byte #0x3A,#0x07	; 1850
      000784 D0 07                 2555 	.byte #0xD0,#0x07	; 2000
      000786 A5 03                 2556 	.byte #0xA5,#0x03	; 933
      000788 04 06                 2557 	.byte #0x04,#0x06	; 1540
      00078A 71 02                 2558 	.byte #0x71,#0x02	; 625
      00078C 9B 02                 2559 	.byte #0x9B,#0x02	; 667
      00078E EE 06                 2560 	.byte #0xEE,#0x06	; 1774
      000790 AC 05                 2561 	.byte #0xAC,#0x05	; 1452
      000792 D9 01                 2562 	.byte #0xD9,#0x01	; 473
      000794 33 01                 2563 	.byte #0x33,#0x01	; 307
      000796 46 05                 2564 	.byte #0x46,#0x05	; 1350
      000798 E7 00                 2565 	.byte #0xE7,#0x00	; 231
      00079A 92 04                 2566 	.byte #0x92,#0x04	; 1170
      00079C 78 04                 2567 	.byte #0x78,#0x04	; 1144
      00079E 0D 00                 2568 	.byte #0x0D,#0x00	; 13
      0007A0 FC 02                 2569 	.byte #0xFC,#0x02	; 764
      0007A2 89 06                 2570 	.byte #0x89,#0x06	; 1673
      0007A4 63 06                 2571 	.byte #0x63,#0x06	; 1635
      0007A6 16 02                 2572 	.byte #0x16,#0x02	; 534
      0007A8 B7 07                 2573 	.byte #0xB7,#0x07	; 1975
      0007AA C2 03                 2574 	.byte #0xC2,#0x03	; 962
      0007AC 28 03                 2575 	.byte #0x28,#0x03	; 808
      0007AE 5D 07                 2576 	.byte #0x5D,#0x07	; 1885
      0007B0 1F 04                 2577 	.byte #0x1F,#0x04	; 1055
      0007B2 6A 00                 2578 	.byte #0x6A,#0x00	; 106
      0007B4 80 00                 2579 	.byte #0x80,#0x00	; 128
      0007B6 F5 04                 2580 	.byte #0xF5,#0x04	; 1269
      0007B8 54 01                 2581 	.byte #0x54,#0x01	; 340
      0007BA 21 05                 2582 	.byte #0x21,#0x05	; 1313
      0007BC CB 05                 2583 	.byte #0xCB,#0x05	; 1483
      0007BE BE 01                 2584 	.byte #0xBE,#0x01	; 446
      0007C0 29 00                 2585 	.byte #0x29,#0x00	; 41
      0007C2 5C 04                 2586 	.byte #0x5C,#0x04	; 1116
      0007C4 B6 04                 2587 	.byte #0xB6,#0x04	; 1206
      0007C6 C3 00                 2588 	.byte #0xC3,#0x00	; 195
      0007C8 62 05                 2589 	.byte #0x62,#0x05	; 1378
      0007CA 17 01                 2590 	.byte #0x17,#0x01	; 279
      0007CC FD 01                 2591 	.byte #0xFD,#0x01	; 509
      0007CE 88 05                 2592 	.byte #0x88,#0x05	; 1416
      0007D0 CA 06                 2593 	.byte #0xCA,#0x06	; 1738
      0007D2 BF 02                 2594 	.byte #0xBF,#0x02	; 703
      0007D4 55 02                 2595 	.byte #0x55,#0x02	; 597
      0007D6 20 06                 2596 	.byte #0x20,#0x06	; 1568
      0007D8 81 03                 2597 	.byte #0x81,#0x03	; 897
      0007DA F4 07                 2598 	.byte #0xF4,#0x07	; 2036
      0007DC 1E 07                 2599 	.byte #0x1E,#0x07	; 1822
      0007DE 6B 03                 2600 	.byte #0x6B,#0x03	; 875
      0007E0 9A 01                 2601 	.byte #0x9A,#0x01	; 410
      0007E2 EF 05                 2602 	.byte #0xEF,#0x05	; 1519
      0007E4 05 05                 2603 	.byte #0x05,#0x05	; 1285
      0007E6 70 01                 2604 	.byte #0x70,#0x01	; 368
      0007E8 D1 04                 2605 	.byte #0xD1,#0x04	; 1233
      0007EA A4 00                 2606 	.byte #0xA4,#0x00	; 164
      0007EC 4E 00                 2607 	.byte #0x4E,#0x00	; 78
      0007EE 3B 04                 2608 	.byte #0x3B,#0x04	; 1083
      0007F0 79 07                 2609 	.byte #0x79,#0x07	; 1913
      0007F2 0C 03                 2610 	.byte #0x0C,#0x03	; 780
      0007F4 E6 03                 2611 	.byte #0xE6,#0x03	; 998
      0007F6 93 07                 2612 	.byte #0x93,#0x07	; 1939
      0007F8 32 02                 2613 	.byte #0x32,#0x02	; 562
      0007FA 47 06                 2614 	.byte #0x47,#0x06	; 1607
      0007FC AD 06                 2615 	.byte #0xAD,#0x06	; 1709
      0007FE D8 02                 2616 	.byte #0xD8,#0x02	; 728
      000800 1D 03                 2617 	.byte #0x1D,#0x03	; 797
      000802 68 07                 2618 	.byte #0x68,#0x07	; 1896
      000804 82 07                 2619 	.byte #0x82,#0x07	; 1922
      000806 F7 03                 2620 	.byte #0xF7,#0x03	; 1015
      000808 56 06                 2621 	.byte #0x56,#0x06	; 1622
      00080A 23 02                 2622 	.byte #0x23,#0x02	; 547
      00080C C9 02                 2623 	.byte #0xC9,#0x02	; 713
      00080E BC 06                 2624 	.byte #0xBC,#0x06	; 1724
      000810 FE 05                 2625 	.byte #0xFE,#0x05	; 1534
      000812 8B 01                 2626 	.byte #0x8B,#0x01	; 395
      000814 61 01                 2627 	.byte #0x61,#0x01	; 353
      000816 14 05                 2628 	.byte #0x14,#0x05	; 1300
      000818 B5 00                 2629 	.byte #0xB5,#0x00	; 181
      00081A C0 04                 2630 	.byte #0xC0,#0x04	; 1216
      00081C 2A 04                 2631 	.byte #0x2A,#0x04	; 1066
      00081E 5F 00                 2632 	.byte #0x5F,#0x00	; 95
      000820 AE 02                 2633 	.byte #0xAE,#0x02	; 686
      000822 DB 06                 2634 	.byte #0xDB,#0x06	; 1755
      000824 31 06                 2635 	.byte #0x31,#0x06	; 1585
      000826 44 02                 2636 	.byte #0x44,#0x02	; 580
      000828 E5 07                 2637 	.byte #0xE5,#0x07	; 2021
      00082A 90 03                 2638 	.byte #0x90,#0x03	; 912
      00082C 7A 03                 2639 	.byte #0x7A,#0x03	; 890
      00082E 0F 07                 2640 	.byte #0x0F,#0x07	; 1807
      000830 4D 04                 2641 	.byte #0x4D,#0x04	; 1101
      000832 38 00                 2642 	.byte #0x38,#0x00	; 56
      000834 D2 00                 2643 	.byte #0xD2,#0x00	; 210
      000836 A7 04                 2644 	.byte #0xA7,#0x04	; 1191
      000838 06 01                 2645 	.byte #0x06,#0x01	; 262
      00083A 73 05                 2646 	.byte #0x73,#0x05	; 1395
      00083C 99 05                 2647 	.byte #0x99,#0x05	; 1433
      00083E EC 01                 2648 	.byte #0xEC,#0x01	; 492
      000840 7B 00                 2649 	.byte #0x7B,#0x00	; 123
      000842 0E 04                 2650 	.byte #0x0E,#0x04	; 1038
      000844 E4 04                 2651 	.byte #0xE4,#0x04	; 1252
      000846 91 00                 2652 	.byte #0x91,#0x00	; 145
      000848 30 05                 2653 	.byte #0x30,#0x05	; 1328
      00084A 45 01                 2654 	.byte #0x45,#0x01	; 325
      00084C AF 01                 2655 	.byte #0xAF,#0x01	; 431
      00084E DA 05                 2656 	.byte #0xDA,#0x05	; 1498
      000850 98 06                 2657 	.byte #0x98,#0x06	; 1688
      000852 ED 02                 2658 	.byte #0xED,#0x02	; 749
      000854 07 02                 2659 	.byte #0x07,#0x02	; 519
      000856 72 06                 2660 	.byte #0x72,#0x06	; 1650
      000858 D3 03                 2661 	.byte #0xD3,#0x03	; 979
      00085A A6 07                 2662 	.byte #0xA6,#0x07	; 1958
      00085C 4C 07                 2663 	.byte #0x4C,#0x07	; 1868
      00085E 39 03                 2664 	.byte #0x39,#0x03	; 825
      000860 C8 01                 2665 	.byte #0xC8,#0x01	; 456
      000862 BD 05                 2666 	.byte #0xBD,#0x05	; 1469
      000864 57 05                 2667 	.byte #0x57,#0x05	; 1367
      000866 22 01                 2668 	.byte #0x22,#0x01	; 290
      000868 83 04                 2669 	.byte #0x83,#0x04	; 1155
      00086A F6 00                 2670 	.byte #0xF6,#0x00	; 246
      00086C 1C 00                 2671 	.byte #0x1C,#0x00	; 28
      00086E 69 04                 2672 	.byte #0x69,#0x04	; 1129
      000870 2B 07                 2673 	.byte #0x2B,#0x07	; 1835
      000872 5E 03                 2674 	.byte #0x5E,#0x03	; 862
      000874 B4 03                 2675 	.byte #0xB4,#0x03	; 948
      000876 C1 07                 2676 	.byte #0xC1,#0x07	; 1985
      000878 60 02                 2677 	.byte #0x60,#0x02	; 608
      00087A 15 06                 2678 	.byte #0x15,#0x06	; 1557
      00087C FF 06                 2679 	.byte #0xFF,#0x06	; 1791
      00087E 8A 02                 2680 	.byte #0x8A,#0x02	; 650
      000880 D1 05                 2681 	.byte #0xD1,#0x05	; 1489
      000882 A4 01                 2682 	.byte #0xA4,#0x01	; 420
      000884 4E 01                 2683 	.byte #0x4E,#0x01	; 334
      000886 3B 05                 2684 	.byte #0x3B,#0x05	; 1339
      000888 9A 00                 2685 	.byte #0x9A,#0x00	; 154
      00088A EF 04                 2686 	.byte #0xEF,#0x04	; 1263
      00088C 05 04                 2687 	.byte #0x05,#0x04	; 1029
      00088E 70 00                 2688 	.byte #0x70,#0x00	; 112
      000890 32 03                 2689 	.byte #0x32,#0x03	; 818
      000892 47 07                 2690 	.byte #0x47,#0x07	; 1863
      000894 AD 07                 2691 	.byte #0xAD,#0x07	; 1965
      000896 D8 03                 2692 	.byte #0xD8,#0x03	; 984
      000898 79 06                 2693 	.byte #0x79,#0x06	; 1657
      00089A 0C 02                 2694 	.byte #0x0C,#0x02	; 524
      00089C E6 02                 2695 	.byte #0xE6,#0x02	; 742
      00089E 93 06                 2696 	.byte #0x93,#0x06	; 1683
      0008A0 62 04                 2697 	.byte #0x62,#0x04	; 1122
      0008A2 17 00                 2698 	.byte #0x17,#0x00	; 23
      0008A4 FD 00                 2699 	.byte #0xFD,#0x00	; 253
      0008A6 88 04                 2700 	.byte #0x88,#0x04	; 1160
      0008A8 29 01                 2701 	.byte #0x29,#0x01	; 297
      0008AA 5C 05                 2702 	.byte #0x5C,#0x05	; 1372
      0008AC B6 05                 2703 	.byte #0xB6,#0x05	; 1462
      0008AE C3 01                 2704 	.byte #0xC3,#0x01	; 451
      0008B0 81 02                 2705 	.byte #0x81,#0x02	; 641
      0008B2 F4 06                 2706 	.byte #0xF4,#0x06	; 1780
      0008B4 1E 06                 2707 	.byte #0x1E,#0x06	; 1566
      0008B6 6B 02                 2708 	.byte #0x6B,#0x02	; 619
      0008B8 CA 07                 2709 	.byte #0xCA,#0x07	; 1994
      0008BA BF 03                 2710 	.byte #0xBF,#0x03	; 959
      0008BC 55 03                 2711 	.byte #0x55,#0x03	; 853
      0008BE 20 07                 2712 	.byte #0x20,#0x07	; 1824
      0008C0 B7 06                 2713 	.byte #0xB7,#0x06	; 1719
      0008C2 C2 02                 2714 	.byte #0xC2,#0x02	; 706
      0008C4 28 02                 2715 	.byte #0x28,#0x02	; 552
      0008C6 5D 06                 2716 	.byte #0x5D,#0x06	; 1629
      0008C8 FC 03                 2717 	.byte #0xFC,#0x03	; 1020
      0008CA 89 07                 2718 	.byte #0x89,#0x07	; 1929
      0008CC 63 07                 2719 	.byte #0x63,#0x07	; 1891
      0008CE 16 03                 2720 	.byte #0x16,#0x03	; 790
      0008D0 54 00                 2721 	.byte #0x54,#0x00	; 84
      0008D2 21 04                 2722 	.byte #0x21,#0x04	; 1057
      0008D4 CB 04                 2723 	.byte #0xCB,#0x04	; 1227
      0008D6 BE 00                 2724 	.byte #0xBE,#0x00	; 190
      0008D8 1F 05                 2725 	.byte #0x1F,#0x05	; 1311
      0008DA 6A 01                 2726 	.byte #0x6A,#0x01	; 362
      0008DC 80 01                 2727 	.byte #0x80,#0x01	; 384
      0008DE F5 05                 2728 	.byte #0xF5,#0x05	; 1525
      0008E0 04 07                 2729 	.byte #0x04,#0x07	; 1796
      0008E2 71 03                 2730 	.byte #0x71,#0x03	; 881
      0008E4 9B 03                 2731 	.byte #0x9B,#0x03	; 923
      0008E6 EE 07                 2732 	.byte #0xEE,#0x07	; 2030
      0008E8 4F 02                 2733 	.byte #0x4F,#0x02	; 591
      0008EA 3A 06                 2734 	.byte #0x3A,#0x06	; 1594
      0008EC D0 06                 2735 	.byte #0xD0,#0x06	; 1744
      0008EE A5 02                 2736 	.byte #0xA5,#0x02	; 677
      0008F0 E7 01                 2737 	.byte #0xE7,#0x01	; 487
      0008F2 92 05                 2738 	.byte #0x92,#0x05	; 1426
      0008F4 78 05                 2739 	.byte #0x78,#0x05	; 1400
      0008F6 0D 01                 2740 	.byte #0x0D,#0x01	; 269
      0008F8 AC 04                 2741 	.byte #0xAC,#0x04	; 1196
      0008FA D9 00                 2742 	.byte #0xD9,#0x00	; 217
      0008FC 33 00                 2743 	.byte #0x33,#0x00	; 51
      0008FE 46 04                 2744 	.byte #0x46,#0x04	; 1094
      000900 F0 02                 2745 	.byte #0xF0,#0x02	; 752
      000902 85 06                 2746 	.byte #0x85,#0x06	; 1669
      000904 6F 06                 2747 	.byte #0x6F,#0x06	; 1647
      000906 1A 02                 2748 	.byte #0x1A,#0x02	; 538
      000908 BB 07                 2749 	.byte #0xBB,#0x07	; 1979
      00090A CE 03                 2750 	.byte #0xCE,#0x03	; 974
      00090C 24 03                 2751 	.byte #0x24,#0x03	; 804
      00090E 51 07                 2752 	.byte #0x51,#0x07	; 1873
      000910 13 04                 2753 	.byte #0x13,#0x04	; 1043
      000912 66 00                 2754 	.byte #0x66,#0x00	; 102
      000914 8C 00                 2755 	.byte #0x8C,#0x00	; 140
      000916 F9 04                 2756 	.byte #0xF9,#0x04	; 1273
      000918 58 01                 2757 	.byte #0x58,#0x01	; 344
      00091A 2D 05                 2758 	.byte #0x2D,#0x05	; 1325
      00091C C7 05                 2759 	.byte #0xC7,#0x05	; 1479
      00091E B2 01                 2760 	.byte #0xB2,#0x01	; 434
      000920 43 03                 2761 	.byte #0x43,#0x03	; 835
      000922 36 07                 2762 	.byte #0x36,#0x07	; 1846
      000924 DC 07                 2763 	.byte #0xDC,#0x07	; 2012
      000926 A9 03                 2764 	.byte #0xA9,#0x03	; 937
      000928 08 06                 2765 	.byte #0x08,#0x06	; 1544
      00092A 7D 02                 2766 	.byte #0x7D,#0x02	; 637
      00092C 97 02                 2767 	.byte #0x97,#0x02	; 663
      00092E E2 06                 2768 	.byte #0xE2,#0x06	; 1762
      000930 A0 05                 2769 	.byte #0xA0,#0x05	; 1440
      000932 D5 01                 2770 	.byte #0xD5,#0x01	; 469
      000934 3F 01                 2771 	.byte #0x3F,#0x01	; 319
      000936 4A 05                 2772 	.byte #0x4A,#0x05	; 1354
      000938 EB 00                 2773 	.byte #0xEB,#0x00	; 235
      00093A 9E 04                 2774 	.byte #0x9E,#0x04	; 1182
      00093C 74 04                 2775 	.byte #0x74,#0x04	; 1140
      00093E 01 00                 2776 	.byte #0x01,#0x00	; 1
      000940 96 01                 2777 	.byte #0x96,#0x01	; 406
      000942 E3 05                 2778 	.byte #0xE3,#0x05	; 1507
      000944 09 05                 2779 	.byte #0x09,#0x05	; 1289
      000946 7C 01                 2780 	.byte #0x7C,#0x01	; 380
      000948 DD 04                 2781 	.byte #0xDD,#0x04	; 1245
      00094A A8 00                 2782 	.byte #0xA8,#0x00	; 168
      00094C 42 00                 2783 	.byte #0x42,#0x00	; 66
      00094E 37 04                 2784 	.byte #0x37,#0x04	; 1079
      000950 75 07                 2785 	.byte #0x75,#0x07	; 1909
      000952 00 03                 2786 	.byte #0x00,#0x03	; 768
      000954 EA 03                 2787 	.byte #0xEA,#0x03	; 1002
      000956 9F 07                 2788 	.byte #0x9F,#0x07	; 1951
      000958 3E 02                 2789 	.byte #0x3E,#0x02	; 574
      00095A 4B 06                 2790 	.byte #0x4B,#0x06	; 1611
      00095C A1 06                 2791 	.byte #0xA1,#0x06	; 1697
      00095E D4 02                 2792 	.byte #0xD4,#0x02	; 724
      000960 25 00                 2793 	.byte #0x25,#0x00	; 37
      000962 50 04                 2794 	.byte #0x50,#0x04	; 1104
      000964 BA 04                 2795 	.byte #0xBA,#0x04	; 1210
      000966 CF 00                 2796 	.byte #0xCF,#0x00	; 207
      000968 6E 05                 2797 	.byte #0x6E,#0x05	; 1390
      00096A 1B 01                 2798 	.byte #0x1B,#0x01	; 283
      00096C F1 01                 2799 	.byte #0xF1,#0x01	; 497
      00096E 84 05                 2800 	.byte #0x84,#0x05	; 1412
      000970 C6 06                 2801 	.byte #0xC6,#0x06	; 1734
      000972 B3 02                 2802 	.byte #0xB3,#0x02	; 691
      000974 59 02                 2803 	.byte #0x59,#0x02	; 601
      000976 2C 06                 2804 	.byte #0x2C,#0x06	; 1580
      000978 8D 03                 2805 	.byte #0x8D,#0x03	; 909
      00097A F8 07                 2806 	.byte #0xF8,#0x07	; 2040
      00097C 12 07                 2807 	.byte #0x12,#0x07	; 1810
      00097E 67 03                 2808 	.byte #0x67,#0x03	; 871
      000980 3C 04                 2809 	.byte #0x3C,#0x04	; 1084
      000982 49 00                 2810 	.byte #0x49,#0x00	; 73
      000984 A3 00                 2811 	.byte #0xA3,#0x00	; 163
      000986 D6 04                 2812 	.byte #0xD6,#0x04	; 1238
      000988 77 01                 2813 	.byte #0x77,#0x01	; 375
      00098A 02 05                 2814 	.byte #0x02,#0x05	; 1282
      00098C E8 05                 2815 	.byte #0xE8,#0x05	; 1512
      00098E 9D 01                 2816 	.byte #0x9D,#0x01	; 413
      000990 DF 02                 2817 	.byte #0xDF,#0x02	; 735
      000992 AA 06                 2818 	.byte #0xAA,#0x06	; 1706
      000994 40 06                 2819 	.byte #0x40,#0x06	; 1600
      000996 35 02                 2820 	.byte #0x35,#0x02	; 565
      000998 94 07                 2821 	.byte #0x94,#0x07	; 1940
      00099A E1 03                 2822 	.byte #0xE1,#0x03	; 993
      00099C 0B 03                 2823 	.byte #0x0B,#0x03	; 779
      00099E 7E 07                 2824 	.byte #0x7E,#0x07	; 1918
      0009A0 8F 05                 2825 	.byte #0x8F,#0x05	; 1423
      0009A2 FA 01                 2826 	.byte #0xFA,#0x01	; 506
      0009A4 10 01                 2827 	.byte #0x10,#0x01	; 272
      0009A6 65 05                 2828 	.byte #0x65,#0x05	; 1381
      0009A8 C4 00                 2829 	.byte #0xC4,#0x00	; 196
      0009AA B1 04                 2830 	.byte #0xB1,#0x04	; 1201
      0009AC 5B 04                 2831 	.byte #0x5B,#0x04	; 1115
      0009AE 2E 00                 2832 	.byte #0x2E,#0x00	; 46
      0009B0 6C 03                 2833 	.byte #0x6C,#0x03	; 876
      0009B2 19 07                 2834 	.byte #0x19,#0x07	; 1817
      0009B4 F3 07                 2835 	.byte #0xF3,#0x07	; 2035
      0009B6 86 03                 2836 	.byte #0x86,#0x03	; 902
      0009B8 27 06                 2837 	.byte #0x27,#0x06	; 1575
      0009BA 52 02                 2838 	.byte #0x52,#0x02	; 594
      0009BC B8 02                 2839 	.byte #0xB8,#0x02	; 696
      0009BE CD 06                 2840 	.byte #0xCD,#0x06	; 1741
      0009C0 5A 07                 2841 	.byte #0x5A,#0x07	; 1882
      0009C2 2F 03                 2842 	.byte #0x2F,#0x03	; 815
      0009C4 C5 03                 2843 	.byte #0xC5,#0x03	; 965
      0009C6 B0 07                 2844 	.byte #0xB0,#0x07	; 1968
      0009C8 11 02                 2845 	.byte #0x11,#0x02	; 529
      0009CA 64 06                 2846 	.byte #0x64,#0x06	; 1636
      0009CC 8E 06                 2847 	.byte #0x8E,#0x06	; 1678
      0009CE FB 02                 2848 	.byte #0xFB,#0x02	; 763
      0009D0 B9 01                 2849 	.byte #0xB9,#0x01	; 441
      0009D2 CC 05                 2850 	.byte #0xCC,#0x05	; 1484
      0009D4 26 05                 2851 	.byte #0x26,#0x05	; 1318
      0009D6 53 01                 2852 	.byte #0x53,#0x01	; 339
      0009D8 F2 04                 2853 	.byte #0xF2,#0x04	; 1266
      0009DA 87 00                 2854 	.byte #0x87,#0x00	; 135
      0009DC 6D 00                 2855 	.byte #0x6D,#0x00	; 109
      0009DE 18 04                 2856 	.byte #0x18,#0x04	; 1048
      0009E0 E9 06                 2857 	.byte #0xE9,#0x06	; 1769
      0009E2 9C 02                 2858 	.byte #0x9C,#0x02	; 668
      0009E4 76 02                 2859 	.byte #0x76,#0x02	; 630
      0009E6 03 06                 2860 	.byte #0x03,#0x06	; 1539
      0009E8 A2 03                 2861 	.byte #0xA2,#0x03	; 930
      0009EA D7 07                 2862 	.byte #0xD7,#0x07	; 2007
      0009EC 3D 07                 2863 	.byte #0x3D,#0x07	; 1853
      0009EE 48 03                 2864 	.byte #0x48,#0x03	; 840
      0009F0 0A 00                 2865 	.byte #0x0A,#0x00	; 10
      0009F2 7F 04                 2866 	.byte #0x7F,#0x04	; 1151
      0009F4 95 04                 2867 	.byte #0x95,#0x04	; 1173
      0009F6 E0 00                 2868 	.byte #0xE0,#0x00	; 224
      0009F8 41 05                 2869 	.byte #0x41,#0x05	; 1345
      0009FA 34 01                 2870 	.byte #0x34,#0x01	; 308
      0009FC DE 01                 2871 	.byte #0xDE,#0x01	; 478
      0009FE AB 05                 2872 	.byte #0xAB,#0x05	; 1451
      000A00 C7 00                 2873 	.byte #0xC7,#0x00	; 199
      000A02 B2 04                 2874 	.byte #0xB2,#0x04	; 1202
      000A04 58 04                 2875 	.byte #0x58,#0x04	; 1112
      000A06 2D 00                 2876 	.byte #0x2D,#0x00	; 45
      000A08 8C 05                 2877 	.byte #0x8C,#0x05	; 1420
      000A0A F9 01                 2878 	.byte #0xF9,#0x01	; 505
      000A0C 13 01                 2879 	.byte #0x13,#0x01	; 275
      000A0E 66 05                 2880 	.byte #0x66,#0x05	; 1382
      000A10 24 06                 2881 	.byte #0x24,#0x06	; 1572
      000A12 51 02                 2882 	.byte #0x51,#0x02	; 593
      000A14 BB 02                 2883 	.byte #0xBB,#0x02	; 699
      000A16 CE 06                 2884 	.byte #0xCE,#0x06	; 1742
      000A18 6F 03                 2885 	.byte #0x6F,#0x03	; 879
      000A1A 1A 07                 2886 	.byte #0x1A,#0x07	; 1818
      000A1C F0 07                 2887 	.byte #0xF0,#0x07	; 2032
      000A1E 85 03                 2888 	.byte #0x85,#0x03	; 901
      000A20 74 01                 2889 	.byte #0x74,#0x01	; 372
      000A22 01 05                 2890 	.byte #0x01,#0x05	; 1281
      000A24 EB 05                 2891 	.byte #0xEB,#0x05	; 1515
      000A26 9E 01                 2892 	.byte #0x9E,#0x01	; 414
      000A28 3F 04                 2893 	.byte #0x3F,#0x04	; 1087
      000A2A 4A 00                 2894 	.byte #0x4A,#0x00	; 74
      000A2C A0 00                 2895 	.byte #0xA0,#0x00	; 160
      000A2E D5 04                 2896 	.byte #0xD5,#0x04	; 1237
      000A30 97 07                 2897 	.byte #0x97,#0x07	; 1943
      000A32 E2 03                 2898 	.byte #0xE2,#0x03	; 994
      000A34 08 03                 2899 	.byte #0x08,#0x03	; 776
      000A36 7D 07                 2900 	.byte #0x7D,#0x07	; 1917
      000A38 DC 02                 2901 	.byte #0xDC,#0x02	; 732
      000A3A A9 06                 2902 	.byte #0xA9,#0x06	; 1705
      000A3C 43 06                 2903 	.byte #0x43,#0x06	; 1603
      000A3E 36 02                 2904 	.byte #0x36,#0x02	; 566
      000A40 A1 03                 2905 	.byte #0xA1,#0x03	; 929
      000A42 D4 07                 2906 	.byte #0xD4,#0x07	; 2004
      000A44 3E 07                 2907 	.byte #0x3E,#0x07	; 1854
      000A46 4B 03                 2908 	.byte #0x4B,#0x03	; 843
      000A48 EA 06                 2909 	.byte #0xEA,#0x06	; 1770
      000A4A 9F 02                 2910 	.byte #0x9F,#0x02	; 671
      000A4C 75 02                 2911 	.byte #0x75,#0x02	; 629
      000A4E 00 06                 2912 	.byte #0x00,#0x06	; 1536
      000A50 42 05                 2913 	.byte #0x42,#0x05	; 1346
      000A52 37 01                 2914 	.byte #0x37,#0x01	; 311
      000A54 DD 01                 2915 	.byte #0xDD,#0x01	; 477
      000A56 A8 05                 2916 	.byte #0xA8,#0x05	; 1448
      000A58 09 00                 2917 	.byte #0x09,#0x00	; 9
      000A5A 7C 04                 2918 	.byte #0x7C,#0x04	; 1148
      000A5C 96 04                 2919 	.byte #0x96,#0x04	; 1174
      000A5E E3 00                 2920 	.byte #0xE3,#0x00	; 227
      000A60 12 02                 2921 	.byte #0x12,#0x02	; 530
      000A62 67 06                 2922 	.byte #0x67,#0x06	; 1639
      000A64 8D 06                 2923 	.byte #0x8D,#0x06	; 1677
      000A66 F8 02                 2924 	.byte #0xF8,#0x02	; 760
      000A68 59 07                 2925 	.byte #0x59,#0x07	; 1881
      000A6A 2C 03                 2926 	.byte #0x2C,#0x03	; 812
      000A6C C6 03                 2927 	.byte #0xC6,#0x03	; 966
      000A6E B3 07                 2928 	.byte #0xB3,#0x07	; 1971
      000A70 F1 04                 2929 	.byte #0xF1,#0x04	; 1265
      000A72 84 00                 2930 	.byte #0x84,#0x00	; 132
      000A74 6E 00                 2931 	.byte #0x6E,#0x00	; 110
      000A76 1B 04                 2932 	.byte #0x1B,#0x04	; 1051
      000A78 BA 01                 2933 	.byte #0xBA,#0x01	; 442
      000A7A CF 05                 2934 	.byte #0xCF,#0x05	; 1487
      000A7C 25 05                 2935 	.byte #0x25,#0x05	; 1317
      000A7E 50 01                 2936 	.byte #0x50,#0x01	; 336
      000A80 0B 06                 2937 	.byte #0x0B,#0x06	; 1547
      000A82 7E 02                 2938 	.byte #0x7E,#0x02	; 638
      000A84 94 02                 2939 	.byte #0x94,#0x02	; 660
      000A86 E1 06                 2940 	.byte #0xE1,#0x06	; 1761
      000A88 40 03                 2941 	.byte #0x40,#0x03	; 832
      000A8A 35 07                 2942 	.byte #0x35,#0x07	; 1845
      000A8C DF 07                 2943 	.byte #0xDF,#0x07	; 2015
      000A8E AA 03                 2944 	.byte #0xAA,#0x03	; 938
      000A90 E8 00                 2945 	.byte #0xE8,#0x00	; 232
      000A92 9D 04                 2946 	.byte #0x9D,#0x04	; 1181
      000A94 77 04                 2947 	.byte #0x77,#0x04	; 1143
      000A96 02 00                 2948 	.byte #0x02,#0x00	; 2
      000A98 A3 05                 2949 	.byte #0xA3,#0x05	; 1443
      000A9A D6 01                 2950 	.byte #0xD6,#0x01	; 470
      000A9C 3C 01                 2951 	.byte #0x3C,#0x01	; 316
      000A9E 49 05                 2952 	.byte #0x49,#0x05	; 1353
      000AA0 B8 07                 2953 	.byte #0xB8,#0x07	; 1976
      000AA2 CD 03                 2954 	.byte #0xCD,#0x03	; 973
      000AA4 27 03                 2955 	.byte #0x27,#0x03	; 807
      000AA6 52 07                 2956 	.byte #0x52,#0x07	; 1874
      000AA8 F3 02                 2957 	.byte #0xF3,#0x02	; 755
      000AAA 86 06                 2958 	.byte #0x86,#0x06	; 1670
      000AAC 6C 06                 2959 	.byte #0x6C,#0x06	; 1644
      000AAE 19 02                 2960 	.byte #0x19,#0x02	; 537
      000AB0 5B 01                 2961 	.byte #0x5B,#0x01	; 347
      000AB2 2E 05                 2962 	.byte #0x2E,#0x05	; 1326
      000AB4 C4 05                 2963 	.byte #0xC4,#0x05	; 1476
      000AB6 B1 01                 2964 	.byte #0xB1,#0x01	; 433
      000AB8 10 04                 2965 	.byte #0x10,#0x04	; 1040
      000ABA 65 00                 2966 	.byte #0x65,#0x00	; 101
      000ABC 8F 00                 2967 	.byte #0x8F,#0x00	; 143
      000ABE FA 04                 2968 	.byte #0xFA,#0x04	; 1274
      000AC0 6D 05                 2969 	.byte #0x6D,#0x05	; 1389
      000AC2 18 01                 2970 	.byte #0x18,#0x01	; 280
      000AC4 F2 01                 2971 	.byte #0xF2,#0x01	; 498
      000AC6 87 05                 2972 	.byte #0x87,#0x05	; 1415
      000AC8 26 00                 2973 	.byte #0x26,#0x00	; 38
      000ACA 53 04                 2974 	.byte #0x53,#0x04	; 1107
      000ACC B9 04                 2975 	.byte #0xB9,#0x04	; 1209
      000ACE CC 00                 2976 	.byte #0xCC,#0x00	; 204
      000AD0 8E 03                 2977 	.byte #0x8E,#0x03	; 910
      000AD2 FB 07                 2978 	.byte #0xFB,#0x07	; 2043
      000AD4 11 07                 2979 	.byte #0x11,#0x07	; 1809
      000AD6 64 03                 2980 	.byte #0x64,#0x03	; 868
      000AD8 C5 06                 2981 	.byte #0xC5,#0x06	; 1733
      000ADA B0 02                 2982 	.byte #0xB0,#0x02	; 688
      000ADC 5A 02                 2983 	.byte #0x5A,#0x02	; 602
      000ADE 2F 06                 2984 	.byte #0x2F,#0x06	; 1583
      000AE0 DE 04                 2985 	.byte #0xDE,#0x04	; 1246
      000AE2 AB 00                 2986 	.byte #0xAB,#0x00	; 171
      000AE4 41 00                 2987 	.byte #0x41,#0x00	; 65
      000AE6 34 04                 2988 	.byte #0x34,#0x04	; 1076
      000AE8 95 01                 2989 	.byte #0x95,#0x01	; 405
      000AEA E0 05                 2990 	.byte #0xE0,#0x05	; 1504
      000AEC 0A 05                 2991 	.byte #0x0A,#0x05	; 1290
      000AEE 7F 01                 2992 	.byte #0x7F,#0x01	; 383
      000AF0 3D 02                 2993 	.byte #0x3D,#0x02	; 573
      000AF2 48 06                 2994 	.byte #0x48,#0x06	; 1608
      000AF4 A2 06                 2995 	.byte #0xA2,#0x06	; 1698
      000AF6 D7 02                 2996 	.byte #0xD7,#0x02	; 727
      000AF8 76 07                 2997 	.byte #0x76,#0x07	; 1910
      000AFA 03 03                 2998 	.byte #0x03,#0x03	; 771
      000AFC E9 03                 2999 	.byte #0xE9,#0x03	; 1001
      000AFE 9C 07                 3000 	.byte #0x9C,#0x07	; 1948
      000B00 2A 01                 3001 	.byte #0x2A,#0x01	; 298
      000B02 5F 05                 3002 	.byte #0x5F,#0x05	; 1375
      000B04 B5 05                 3003 	.byte #0xB5,#0x05	; 1461
      000B06 C0 01                 3004 	.byte #0xC0,#0x01	; 448
      000B08 61 04                 3005 	.byte #0x61,#0x04	; 1121
      000B0A 14 00                 3006 	.byte #0x14,#0x00	; 20
      000B0C FE 00                 3007 	.byte #0xFE,#0x00	; 254
      000B0E 8B 04                 3008 	.byte #0x8B,#0x04	; 1163
      000B10 C9 07                 3009 	.byte #0xC9,#0x07	; 1993
      000B12 BC 03                 3010 	.byte #0xBC,#0x03	; 956
      000B14 56 03                 3011 	.byte #0x56,#0x03	; 854
      000B16 23 07                 3012 	.byte #0x23,#0x07	; 1827
      000B18 82 02                 3013 	.byte #0x82,#0x02	; 642
      000B1A F7 06                 3014 	.byte #0xF7,#0x06	; 1783
      000B1C 1D 06                 3015 	.byte #0x1D,#0x06	; 1565
      000B1E 68 02                 3016 	.byte #0x68,#0x02	; 616
      000B20 99 00                 3017 	.byte #0x99,#0x00	; 153
      000B22 EC 04                 3018 	.byte #0xEC,#0x04	; 1260
      000B24 06 04                 3019 	.byte #0x06,#0x04	; 1030
      000B26 73 00                 3020 	.byte #0x73,#0x00	; 115
      000B28 D2 05                 3021 	.byte #0xD2,#0x05	; 1490
      000B2A A7 01                 3022 	.byte #0xA7,#0x01	; 423
      000B2C 4D 01                 3023 	.byte #0x4D,#0x01	; 333
      000B2E 38 05                 3024 	.byte #0x38,#0x05	; 1336
      000B30 7A 06                 3025 	.byte #0x7A,#0x06	; 1658
      000B32 0F 02                 3026 	.byte #0x0F,#0x02	; 527
      000B34 E5 02                 3027 	.byte #0xE5,#0x02	; 741
      000B36 90 06                 3028 	.byte #0x90,#0x06	; 1680
      000B38 31 03                 3029 	.byte #0x31,#0x03	; 817
      000B3A 44 07                 3030 	.byte #0x44,#0x07	; 1860
      000B3C AE 07                 3031 	.byte #0xAE,#0x07	; 1966
      000B3E DB 03                 3032 	.byte #0xDB,#0x03	; 987
      000B40 4C 02                 3033 	.byte #0x4C,#0x02	; 588
      000B42 39 06                 3034 	.byte #0x39,#0x06	; 1593
      000B44 D3 06                 3035 	.byte #0xD3,#0x06	; 1747
      000B46 A6 02                 3036 	.byte #0xA6,#0x02	; 678
      000B48 07 07                 3037 	.byte #0x07,#0x07	; 1799
      000B4A 72 03                 3038 	.byte #0x72,#0x03	; 882
      000B4C 98 03                 3039 	.byte #0x98,#0x03	; 920
      000B4E ED 07                 3040 	.byte #0xED,#0x07	; 2029
      000B50 AF 04                 3041 	.byte #0xAF,#0x04	; 1199
      000B52 DA 00                 3042 	.byte #0xDA,#0x00	; 218
      000B54 30 00                 3043 	.byte #0x30,#0x00	; 48
      000B56 45 04                 3044 	.byte #0x45,#0x04	; 1093
      000B58 E4 01                 3045 	.byte #0xE4,#0x01	; 484
      000B5A 91 05                 3046 	.byte #0x91,#0x05	; 1425
      000B5C 7B 05                 3047 	.byte #0x7B,#0x05	; 1403
      000B5E 0E 01                 3048 	.byte #0x0E,#0x01	; 270
      000B60 FF 03                 3049 	.byte #0xFF,#0x03	; 1023
      000B62 8A 07                 3050 	.byte #0x8A,#0x07	; 1930
      000B64 60 07                 3051 	.byte #0x60,#0x07	; 1888
      000B66 15 03                 3052 	.byte #0x15,#0x03	; 789
      000B68 B4 06                 3053 	.byte #0xB4,#0x06	; 1716
      000B6A C1 02                 3054 	.byte #0xC1,#0x02	; 705
      000B6C 2B 02                 3055 	.byte #0x2B,#0x02	; 555
      000B6E 5E 06                 3056 	.byte #0x5E,#0x06	; 1630
      000B70 1C 05                 3057 	.byte #0x1C,#0x05	; 1308
      000B72 69 01                 3058 	.byte #0x69,#0x01	; 361
      000B74 83 01                 3059 	.byte #0x83,#0x01	; 387
      000B76 F6 05                 3060 	.byte #0xF6,#0x05	; 1526
      000B78 57 00                 3061 	.byte #0x57,#0x00	; 87
      000B7A 22 04                 3062 	.byte #0x22,#0x04	; 1058
      000B7C C8 04                 3063 	.byte #0xC8,#0x04	; 1224
      000B7E BD 00                 3064 	.byte #0xBD,#0x00	; 189
      000B80 E6 07                 3065 	.byte #0xE6,#0x07	; 2022
      000B82 93 03                 3066 	.byte #0x93,#0x03	; 915
      000B84 79 03                 3067 	.byte #0x79,#0x03	; 889
      000B86 0C 07                 3068 	.byte #0x0C,#0x07	; 1804
      000B88 AD 02                 3069 	.byte #0xAD,#0x02	; 685
      000B8A D8 06                 3070 	.byte #0xD8,#0x06	; 1752
      000B8C 32 06                 3071 	.byte #0x32,#0x06	; 1586
      000B8E 47 02                 3072 	.byte #0x47,#0x02	; 583
      000B90 05 01                 3073 	.byte #0x05,#0x01	; 261
      000B92 70 05                 3074 	.byte #0x70,#0x05	; 1392
      000B94 9A 05                 3075 	.byte #0x9A,#0x05	; 1434
      000B96 EF 01                 3076 	.byte #0xEF,#0x01	; 495
      000B98 4E 04                 3077 	.byte #0x4E,#0x04	; 1102
      000B9A 3B 00                 3078 	.byte #0x3B,#0x00	; 59
      000B9C D1 00                 3079 	.byte #0xD1,#0x00	; 209
      000B9E A4 04                 3080 	.byte #0xA4,#0x04	; 1188
      000BA0 55 06                 3081 	.byte #0x55,#0x06	; 1621
      000BA2 20 02                 3082 	.byte #0x20,#0x02	; 544
      000BA4 CA 02                 3083 	.byte #0xCA,#0x02	; 714
      000BA6 BF 06                 3084 	.byte #0xBF,#0x06	; 1727
      000BA8 1E 03                 3085 	.byte #0x1E,#0x03	; 798
      000BAA 6B 07                 3086 	.byte #0x6B,#0x07	; 1899
      000BAC 81 07                 3087 	.byte #0x81,#0x07	; 1921
      000BAE F4 03                 3088 	.byte #0xF4,#0x03	; 1012
      000BB0 B6 00                 3089 	.byte #0xB6,#0x00	; 182
      000BB2 C3 04                 3090 	.byte #0xC3,#0x04	; 1219
      000BB4 29 04                 3091 	.byte #0x29,#0x04	; 1065
      000BB6 5C 00                 3092 	.byte #0x5C,#0x00	; 92
      000BB8 FD 05                 3093 	.byte #0xFD,#0x05	; 1533
      000BBA 88 01                 3094 	.byte #0x88,#0x01	; 392
      000BBC 62 01                 3095 	.byte #0x62,#0x01	; 354
      000BBE 17 05                 3096 	.byte #0x17,#0x05	; 1303
      000BC0 80 04                 3097 	.byte #0x80,#0x04	; 1152
      000BC2 F5 00                 3098 	.byte #0xF5,#0x00	; 245
      000BC4 1F 00                 3099 	.byte #0x1F,#0x00	; 31
      000BC6 6A 04                 3100 	.byte #0x6A,#0x04	; 1130
      000BC8 CB 01                 3101 	.byte #0xCB,#0x01	; 459
      000BCA BE 05                 3102 	.byte #0xBE,#0x05	; 1470
      000BCC 54 05                 3103 	.byte #0x54,#0x05	; 1364
      000BCE 21 01                 3104 	.byte #0x21,#0x01	; 289
      000BD0 63 02                 3105 	.byte #0x63,#0x02	; 611
      000BD2 16 06                 3106 	.byte #0x16,#0x06	; 1558
      000BD4 FC 06                 3107 	.byte #0xFC,#0x06	; 1788
      000BD6 89 02                 3108 	.byte #0x89,#0x02	; 649
      000BD8 28 07                 3109 	.byte #0x28,#0x07	; 1832
      000BDA 5D 03                 3110 	.byte #0x5D,#0x03	; 861
      000BDC B7 03                 3111 	.byte #0xB7,#0x03	; 951
      000BDE C2 07                 3112 	.byte #0xC2,#0x07	; 1986
      000BE0 33 05                 3113 	.byte #0x33,#0x05	; 1331
      000BE2 46 01                 3114 	.byte #0x46,#0x01	; 326
      000BE4 AC 01                 3115 	.byte #0xAC,#0x01	; 428
      000BE6 D9 05                 3116 	.byte #0xD9,#0x05	; 1497
      000BE8 78 00                 3117 	.byte #0x78,#0x00	; 120
      000BEA 0D 04                 3118 	.byte #0x0D,#0x04	; 1037
      000BEC E7 04                 3119 	.byte #0xE7,#0x04	; 1255
      000BEE 92 00                 3120 	.byte #0x92,#0x00	; 146
      000BF0 D0 03                 3121 	.byte #0xD0,#0x03	; 976
      000BF2 A5 07                 3122 	.byte #0xA5,#0x07	; 1957
      000BF4 4F 07                 3123 	.byte #0x4F,#0x07	; 1871
      000BF6 3A 03                 3124 	.byte #0x3A,#0x03	; 826
      000BF8 9B 06                 3125 	.byte #0x9B,#0x06	; 1691
      000BFA EE 02                 3126 	.byte #0xEE,#0x02	; 750
      000BFC 04 02                 3127 	.byte #0x04,#0x02	; 516
      000BFE 71 06                 3128 	.byte #0x71,#0x06	; 1649
      000C00 A9 04                 3129 	.byte #0xA9,#0x04	; 1193
      000C02 DC 00                 3130 	.byte #0xDC,#0x00	; 220
      000C04 36 00                 3131 	.byte #0x36,#0x00	; 54
      000C06 43 04                 3132 	.byte #0x43,#0x04	; 1091
      000C08 E2 01                 3133 	.byte #0xE2,#0x01	; 482
      000C0A 97 05                 3134 	.byte #0x97,#0x05	; 1431
      000C0C 7D 05                 3135 	.byte #0x7D,#0x05	; 1405
      000C0E 08 01                 3136 	.byte #0x08,#0x01	; 264
      000C10 4A 02                 3137 	.byte #0x4A,#0x02	; 586
      000C12 3F 06                 3138 	.byte #0x3F,#0x06	; 1599
      000C14 D5 06                 3139 	.byte #0xD5,#0x06	; 1749
      000C16 A0 02                 3140 	.byte #0xA0,#0x02	; 672
      000C18 01 07                 3141 	.byte #0x01,#0x07	; 1793
      000C1A 74 03                 3142 	.byte #0x74,#0x03	; 884
      000C1C 9E 03                 3143 	.byte #0x9E,#0x03	; 926
      000C1E EB 07                 3144 	.byte #0xEB,#0x07	; 2027
      000C20 1A 05                 3145 	.byte #0x1A,#0x05	; 1306
      000C22 6F 01                 3146 	.byte #0x6F,#0x01	; 367
      000C24 85 01                 3147 	.byte #0x85,#0x01	; 389
      000C26 F0 05                 3148 	.byte #0xF0,#0x05	; 1520
      000C28 51 00                 3149 	.byte #0x51,#0x00	; 81
      000C2A 24 04                 3150 	.byte #0x24,#0x04	; 1060
      000C2C CE 04                 3151 	.byte #0xCE,#0x04	; 1230
      000C2E BB 00                 3152 	.byte #0xBB,#0x00	; 187
      000C30 F9 03                 3153 	.byte #0xF9,#0x03	; 1017
      000C32 8C 07                 3154 	.byte #0x8C,#0x07	; 1932
      000C34 66 07                 3155 	.byte #0x66,#0x07	; 1894
      000C36 13 03                 3156 	.byte #0x13,#0x03	; 787
      000C38 B2 06                 3157 	.byte #0xB2,#0x06	; 1714
      000C3A C7 02                 3158 	.byte #0xC7,#0x02	; 711
      000C3C 2D 02                 3159 	.byte #0x2D,#0x02	; 557
      000C3E 58 06                 3160 	.byte #0x58,#0x06	; 1624
      000C40 CF 07                 3161 	.byte #0xCF,#0x07	; 1999
      000C42 BA 03                 3162 	.byte #0xBA,#0x03	; 954
      000C44 50 03                 3163 	.byte #0x50,#0x03	; 848
      000C46 25 07                 3164 	.byte #0x25,#0x07	; 1829
      000C48 84 02                 3165 	.byte #0x84,#0x02	; 644
      000C4A F1 06                 3166 	.byte #0xF1,#0x06	; 1777
      000C4C 1B 06                 3167 	.byte #0x1B,#0x06	; 1563
      000C4E 6E 02                 3168 	.byte #0x6E,#0x02	; 622
      000C50 2C 01                 3169 	.byte #0x2C,#0x01	; 300
      000C52 59 05                 3170 	.byte #0x59,#0x05	; 1369
      000C54 B3 05                 3171 	.byte #0xB3,#0x05	; 1459
      000C56 C6 01                 3172 	.byte #0xC6,#0x01	; 454
      000C58 67 04                 3173 	.byte #0x67,#0x04	; 1127
      000C5A 12 00                 3174 	.byte #0x12,#0x00	; 18
      000C5C F8 00                 3175 	.byte #0xF8,#0x00	; 248
      000C5E 8D 04                 3176 	.byte #0x8D,#0x04	; 1165
      000C60 7C 06                 3177 	.byte #0x7C,#0x06	; 1660
      000C62 09 02                 3178 	.byte #0x09,#0x02	; 521
      000C64 E3 02                 3179 	.byte #0xE3,#0x02	; 739
      000C66 96 06                 3180 	.byte #0x96,#0x06	; 1686
      000C68 37 03                 3181 	.byte #0x37,#0x03	; 823
      000C6A 42 07                 3182 	.byte #0x42,#0x07	; 1858
      000C6C A8 07                 3183 	.byte #0xA8,#0x07	; 1960
      000C6E DD 03                 3184 	.byte #0xDD,#0x03	; 989
      000C70 9F 00                 3185 	.byte #0x9F,#0x00	; 159
      000C72 EA 04                 3186 	.byte #0xEA,#0x04	; 1258
      000C74 00 04                 3187 	.byte #0x00,#0x04	; 1024
      000C76 75 00                 3188 	.byte #0x75,#0x00	; 117
      000C78 D4 05                 3189 	.byte #0xD4,#0x05	; 1492
      000C7A A1 01                 3190 	.byte #0xA1,#0x01	; 417
      000C7C 4B 01                 3191 	.byte #0x4B,#0x01	; 331
      000C7E 3E 05                 3192 	.byte #0x3E,#0x05	; 1342
      000C80 65 02                 3193 	.byte #0x65,#0x02	; 613
      000C82 10 06                 3194 	.byte #0x10,#0x06	; 1552
      000C84 FA 06                 3195 	.byte #0xFA,#0x06	; 1786
      000C86 8F 02                 3196 	.byte #0x8F,#0x02	; 655
      000C88 2E 07                 3197 	.byte #0x2E,#0x07	; 1838
      000C8A 5B 03                 3198 	.byte #0x5B,#0x03	; 859
      000C8C B1 03                 3199 	.byte #0xB1,#0x03	; 945
      000C8E C4 07                 3200 	.byte #0xC4,#0x07	; 1988
      000C90 86 04                 3201 	.byte #0x86,#0x04	; 1158
      000C92 F3 00                 3202 	.byte #0xF3,#0x00	; 243
      000C94 19 00                 3203 	.byte #0x19,#0x00	; 25
      000C96 6C 04                 3204 	.byte #0x6C,#0x04	; 1132
      000C98 CD 01                 3205 	.byte #0xCD,#0x01	; 461
      000C9A B8 05                 3206 	.byte #0xB8,#0x05	; 1464
      000C9C 52 05                 3207 	.byte #0x52,#0x05	; 1362
      000C9E 27 01                 3208 	.byte #0x27,#0x01	; 295
      000CA0 D6 03                 3209 	.byte #0xD6,#0x03	; 982
      000CA2 A3 07                 3210 	.byte #0xA3,#0x07	; 1955
      000CA4 49 07                 3211 	.byte #0x49,#0x07	; 1865
      000CA6 3C 03                 3212 	.byte #0x3C,#0x03	; 828
      000CA8 9D 06                 3213 	.byte #0x9D,#0x06	; 1693
      000CAA E8 02                 3214 	.byte #0xE8,#0x02	; 744
      000CAC 02 02                 3215 	.byte #0x02,#0x02	; 514
      000CAE 77 06                 3216 	.byte #0x77,#0x06	; 1655
      000CB0 35 05                 3217 	.byte #0x35,#0x05	; 1333
      000CB2 40 01                 3218 	.byte #0x40,#0x01	; 320
      000CB4 AA 01                 3219 	.byte #0xAA,#0x01	; 426
      000CB6 DF 05                 3220 	.byte #0xDF,#0x05	; 1503
      000CB8 7E 00                 3221 	.byte #0x7E,#0x00	; 126
      000CBA 0B 04                 3222 	.byte #0x0B,#0x04	; 1035
      000CBC E1 04                 3223 	.byte #0xE1,#0x04	; 1249
      000CBE 94 00                 3224 	.byte #0x94,#0x00	; 148
      000CC0 03 01                 3225 	.byte #0x03,#0x01	; 259
      000CC2 76 05                 3226 	.byte #0x76,#0x05	; 1398
      000CC4 9C 05                 3227 	.byte #0x9C,#0x05	; 1436
      000CC6 E9 01                 3228 	.byte #0xE9,#0x01	; 489
      000CC8 48 04                 3229 	.byte #0x48,#0x04	; 1096
      000CCA 3D 00                 3230 	.byte #0x3D,#0x00	; 61
      000CCC D7 00                 3231 	.byte #0xD7,#0x00	; 215
      000CCE A2 04                 3232 	.byte #0xA2,#0x04	; 1186
      000CD0 E0 07                 3233 	.byte #0xE0,#0x07	; 2016
      000CD2 95 03                 3234 	.byte #0x95,#0x03	; 917
      000CD4 7F 03                 3235 	.byte #0x7F,#0x03	; 895
      000CD6 0A 07                 3236 	.byte #0x0A,#0x07	; 1802
      000CD8 AB 02                 3237 	.byte #0xAB,#0x02	; 683
      000CDA DE 06                 3238 	.byte #0xDE,#0x06	; 1758
      000CDC 34 06                 3239 	.byte #0x34,#0x06	; 1588
      000CDE 41 02                 3240 	.byte #0x41,#0x02	; 577
      000CE0 B0 00                 3241 	.byte #0xB0,#0x00	; 176
      000CE2 C5 04                 3242 	.byte #0xC5,#0x04	; 1221
      000CE4 2F 04                 3243 	.byte #0x2F,#0x04	; 1071
      000CE6 5A 00                 3244 	.byte #0x5A,#0x00	; 90
      000CE8 FB 05                 3245 	.byte #0xFB,#0x05	; 1531
      000CEA 8E 01                 3246 	.byte #0x8E,#0x01	; 398
      000CEC 64 01                 3247 	.byte #0x64,#0x01	; 356
      000CEE 11 05                 3248 	.byte #0x11,#0x05	; 1297
      000CF0 53 06                 3249 	.byte #0x53,#0x06	; 1619
      000CF2 26 02                 3250 	.byte #0x26,#0x02	; 550
      000CF4 CC 02                 3251 	.byte #0xCC,#0x02	; 716
      000CF6 B9 06                 3252 	.byte #0xB9,#0x06	; 1721
      000CF8 18 03                 3253 	.byte #0x18,#0x03	; 792
      000CFA 6D 07                 3254 	.byte #0x6D,#0x07	; 1901
      000CFC 87 07                 3255 	.byte #0x87,#0x07	; 1927
      000CFE F2 03                 3256 	.byte #0xF2,#0x03	; 1010
      000D00 44 05                 3257 	.byte #0x44,#0x05	; 1348
      000D02 31 01                 3258 	.byte #0x31,#0x01	; 305
      000D04 DB 01                 3259 	.byte #0xDB,#0x01	; 475
      000D06 AE 05                 3260 	.byte #0xAE,#0x05	; 1454
      000D08 0F 00                 3261 	.byte #0x0F,#0x00	; 15
      000D0A 7A 04                 3262 	.byte #0x7A,#0x04	; 1146
      000D0C 90 04                 3263 	.byte #0x90,#0x04	; 1168
      000D0E E5 00                 3264 	.byte #0xE5,#0x00	; 229
      000D10 A7 03                 3265 	.byte #0xA7,#0x03	; 935
      000D12 D2 07                 3266 	.byte #0xD2,#0x07	; 2002
      000D14 38 07                 3267 	.byte #0x38,#0x07	; 1848
      000D16 4D 03                 3268 	.byte #0x4D,#0x03	; 845
      000D18 EC 06                 3269 	.byte #0xEC,#0x06	; 1772
      000D1A 99 02                 3270 	.byte #0x99,#0x02	; 665
      000D1C 73 02                 3271 	.byte #0x73,#0x02	; 627
      000D1E 06 06                 3272 	.byte #0x06,#0x06	; 1542
      000D20 F7 04                 3273 	.byte #0xF7,#0x04	; 1271
      000D22 82 00                 3274 	.byte #0x82,#0x00	; 130
      000D24 68 00                 3275 	.byte #0x68,#0x00	; 104
      000D26 1D 04                 3276 	.byte #0x1D,#0x04	; 1053
      000D28 BC 01                 3277 	.byte #0xBC,#0x01	; 444
      000D2A C9 05                 3278 	.byte #0xC9,#0x05	; 1481
      000D2C 23 05                 3279 	.byte #0x23,#0x05	; 1315
      000D2E 56 01                 3280 	.byte #0x56,#0x01	; 342
      000D30 14 02                 3281 	.byte #0x14,#0x02	; 532
      000D32 61 06                 3282 	.byte #0x61,#0x06	; 1633
      000D34 8B 06                 3283 	.byte #0x8B,#0x06	; 1675
      000D36 FE 02                 3284 	.byte #0xFE,#0x02	; 766
      000D38 5F 07                 3285 	.byte #0x5F,#0x07	; 1887
      000D3A 2A 03                 3286 	.byte #0x2A,#0x03	; 810
      000D3C C0 03                 3287 	.byte #0xC0,#0x03	; 960
      000D3E B5 07                 3288 	.byte #0xB5,#0x07	; 1973
      000D40 22 06                 3289 	.byte #0x22,#0x06	; 1570
      000D42 57 02                 3290 	.byte #0x57,#0x02	; 599
      000D44 BD 02                 3291 	.byte #0xBD,#0x02	; 701
      000D46 C8 06                 3292 	.byte #0xC8,#0x06	; 1736
      000D48 69 03                 3293 	.byte #0x69,#0x03	; 873
      000D4A 1C 07                 3294 	.byte #0x1C,#0x07	; 1820
      000D4C F6 07                 3295 	.byte #0xF6,#0x07	; 2038
      000D4E 83 03                 3296 	.byte #0x83,#0x03	; 899
      000D50 C1 00                 3297 	.byte #0xC1,#0x00	; 193
      000D52 B4 04                 3298 	.byte #0xB4,#0x04	; 1204
      000D54 5E 04                 3299 	.byte #0x5E,#0x04	; 1118
      000D56 2B 00                 3300 	.byte #0x2B,#0x00	; 43
      000D58 8A 05                 3301 	.byte #0x8A,#0x05	; 1418
      000D5A FF 01                 3302 	.byte #0xFF,#0x01	; 511
      000D5C 15 01                 3303 	.byte #0x15,#0x01	; 277
      000D5E 60 05                 3304 	.byte #0x60,#0x05	; 1376
      000D60 91 07                 3305 	.byte #0x91,#0x07	; 1937
      000D62 E4 03                 3306 	.byte #0xE4,#0x03	; 996
      000D64 0E 03                 3307 	.byte #0x0E,#0x03	; 782
      000D66 7B 07                 3308 	.byte #0x7B,#0x07	; 1915
      000D68 DA 02                 3309 	.byte #0xDA,#0x02	; 730
      000D6A AF 06                 3310 	.byte #0xAF,#0x06	; 1711
      000D6C 45 06                 3311 	.byte #0x45,#0x06	; 1605
      000D6E 30 02                 3312 	.byte #0x30,#0x02	; 560
      000D70 72 01                 3313 	.byte #0x72,#0x01	; 370
      000D72 07 05                 3314 	.byte #0x07,#0x05	; 1287
      000D74 ED 05                 3315 	.byte #0xED,#0x05	; 1517
      000D76 98 01                 3316 	.byte #0x98,#0x01	; 408
      000D78 39 04                 3317 	.byte #0x39,#0x04	; 1081
      000D7A 4C 00                 3318 	.byte #0x4C,#0x00	; 76
      000D7C A6 00                 3319 	.byte #0xA6,#0x00	; 166
      000D7E D3 04                 3320 	.byte #0xD3,#0x04	; 1235
      000D80 88 03                 3321 	.byte #0x88,#0x03	; 904
      000D82 FD 07                 3322 	.byte #0xFD,#0x07	; 2045
      000D84 17 07                 3323 	.byte #0x17,#0x07	; 1815
      000D86 62 03                 3324 	.byte #0x62,#0x03	; 866
      000D88 C3 06                 3325 	.byte #0xC3,#0x06	; 1731
      000D8A B6 02                 3326 	.byte #0xB6,#0x02	; 694
      000D8C 5C 02                 3327 	.byte #0x5C,#0x02	; 604
      000D8E 29 06                 3328 	.byte #0x29,#0x06	; 1577
      000D90 6B 05                 3329 	.byte #0x6B,#0x05	; 1387
      000D92 1E 01                 3330 	.byte #0x1E,#0x01	; 286
      000D94 F4 01                 3331 	.byte #0xF4,#0x01	; 500
      000D96 81 05                 3332 	.byte #0x81,#0x05	; 1409
      000D98 20 00                 3333 	.byte #0x20,#0x00	; 32
      000D9A 55 04                 3334 	.byte #0x55,#0x04	; 1109
      000D9C BF 04                 3335 	.byte #0xBF,#0x04	; 1215
      000D9E CA 00                 3336 	.byte #0xCA,#0x00	; 202
      000DA0 3B 02                 3337 	.byte #0x3B,#0x02	; 571
      000DA2 4E 06                 3338 	.byte #0x4E,#0x06	; 1614
      000DA4 A4 06                 3339 	.byte #0xA4,#0x06	; 1700
      000DA6 D1 02                 3340 	.byte #0xD1,#0x02	; 721
      000DA8 70 07                 3341 	.byte #0x70,#0x07	; 1904
      000DAA 05 03                 3342 	.byte #0x05,#0x03	; 773
      000DAC EF 03                 3343 	.byte #0xEF,#0x03	; 1007
      000DAE 9A 07                 3344 	.byte #0x9A,#0x07	; 1946
      000DB0 D8 04                 3345 	.byte #0xD8,#0x04	; 1240
      000DB2 AD 00                 3346 	.byte #0xAD,#0x00	; 173
      000DB4 47 00                 3347 	.byte #0x47,#0x00	; 71
      000DB6 32 04                 3348 	.byte #0x32,#0x04	; 1074
      000DB8 93 01                 3349 	.byte #0x93,#0x01	; 403
      000DBA E6 05                 3350 	.byte #0xE6,#0x05	; 1510
      000DBC 0C 05                 3351 	.byte #0x0C,#0x05	; 1292
      000DBE 79 01                 3352 	.byte #0x79,#0x01	; 377
      000DC0 EE 00                 3353 	.byte #0xEE,#0x00	; 238
      000DC2 9B 04                 3354 	.byte #0x9B,#0x04	; 1179
      000DC4 71 04                 3355 	.byte #0x71,#0x04	; 1137
      000DC6 04 00                 3356 	.byte #0x04,#0x00	; 4
      000DC8 A5 05                 3357 	.byte #0xA5,#0x05	; 1445
      000DCA D0 01                 3358 	.byte #0xD0,#0x01	; 464
      000DCC 3A 01                 3359 	.byte #0x3A,#0x01	; 314
      000DCE 4F 05                 3360 	.byte #0x4F,#0x05	; 1359
      000DD0 0D 06                 3361 	.byte #0x0D,#0x06	; 1549
      000DD2 78 02                 3362 	.byte #0x78,#0x02	; 632
      000DD4 92 02                 3363 	.byte #0x92,#0x02	; 658
      000DD6 E7 06                 3364 	.byte #0xE7,#0x06	; 1767
      000DD8 46 03                 3365 	.byte #0x46,#0x03	; 838
      000DDA 33 07                 3366 	.byte #0x33,#0x07	; 1843
      000DDC D9 07                 3367 	.byte #0xD9,#0x07	; 2009
      000DDE AC 03                 3368 	.byte #0xAC,#0x03	; 940
      000DE0 5D 01                 3369 	.byte #0x5D,#0x01	; 349
      000DE2 28 05                 3370 	.byte #0x28,#0x05	; 1320
      000DE4 C2 05                 3371 	.byte #0xC2,#0x05	; 1474
      000DE6 B7 01                 3372 	.byte #0xB7,#0x01	; 439
      000DE8 16 04                 3373 	.byte #0x16,#0x04	; 1046
      000DEA 63 00                 3374 	.byte #0x63,#0x00	; 99
      000DEC 89 00                 3375 	.byte #0x89,#0x00	; 137
      000DEE FC 04                 3376 	.byte #0xFC,#0x04	; 1276
      000DF0 BE 07                 3377 	.byte #0xBE,#0x07	; 1982
      000DF2 CB 03                 3378 	.byte #0xCB,#0x03	; 971
      000DF4 21 03                 3379 	.byte #0x21,#0x03	; 801
      000DF6 54 07                 3380 	.byte #0x54,#0x07	; 1876
      000DF8 F5 02                 3381 	.byte #0xF5,#0x02	; 757
      000DFA 80 06                 3382 	.byte #0x80,#0x06	; 1664
      000DFC 6A 06                 3383 	.byte #0x6A,#0x06	; 1642
      000DFE 1F 02                 3384 	.byte #0x1F,#0x02	; 543
      000E00 73 07                 3385 	.byte #0x73,#0x07	; 1907
      000E02 06 03                 3386 	.byte #0x06,#0x03	; 774
      000E04 EC 03                 3387 	.byte #0xEC,#0x03	; 1004
      000E06 99 07                 3388 	.byte #0x99,#0x07	; 1945
      000E08 38 02                 3389 	.byte #0x38,#0x02	; 568
      000E0A 4D 06                 3390 	.byte #0x4D,#0x06	; 1613
      000E0C A7 06                 3391 	.byte #0xA7,#0x06	; 1703
      000E0E D2 02                 3392 	.byte #0xD2,#0x02	; 722
      000E10 90 01                 3393 	.byte #0x90,#0x01	; 400
      000E12 E5 05                 3394 	.byte #0xE5,#0x05	; 1509
      000E14 0F 05                 3395 	.byte #0x0F,#0x05	; 1295
      000E16 7A 01                 3396 	.byte #0x7A,#0x01	; 378
      000E18 DB 04                 3397 	.byte #0xDB,#0x04	; 1243
      000E1A AE 00                 3398 	.byte #0xAE,#0x00	; 174
      000E1C 44 00                 3399 	.byte #0x44,#0x00	; 68
      000E1E 31 04                 3400 	.byte #0x31,#0x04	; 1073
      000E20 C0 06                 3401 	.byte #0xC0,#0x06	; 1728
      000E22 B5 02                 3402 	.byte #0xB5,#0x02	; 693
      000E24 5F 02                 3403 	.byte #0x5F,#0x02	; 607
      000E26 2A 06                 3404 	.byte #0x2A,#0x06	; 1578
      000E28 8B 03                 3405 	.byte #0x8B,#0x03	; 907
      000E2A FE 07                 3406 	.byte #0xFE,#0x07	; 2046
      000E2C 14 07                 3407 	.byte #0x14,#0x07	; 1812
      000E2E 61 03                 3408 	.byte #0x61,#0x03	; 865
      000E30 23 00                 3409 	.byte #0x23,#0x00	; 35
      000E32 56 04                 3410 	.byte #0x56,#0x04	; 1110
      000E34 BC 04                 3411 	.byte #0xBC,#0x04	; 1212
      000E36 C9 00                 3412 	.byte #0xC9,#0x00	; 201
      000E38 68 05                 3413 	.byte #0x68,#0x05	; 1384
      000E3A 1D 01                 3414 	.byte #0x1D,#0x01	; 285
      000E3C F7 01                 3415 	.byte #0xF7,#0x01	; 503
      000E3E 82 05                 3416 	.byte #0x82,#0x05	; 1410
      000E40 15 04                 3417 	.byte #0x15,#0x04	; 1045
      000E42 60 00                 3418 	.byte #0x60,#0x00	; 96
      000E44 8A 00                 3419 	.byte #0x8A,#0x00	; 138
      000E46 FF 04                 3420 	.byte #0xFF,#0x04	; 1279
      000E48 5E 01                 3421 	.byte #0x5E,#0x01	; 350
      000E4A 2B 05                 3422 	.byte #0x2B,#0x05	; 1323
      000E4C C1 05                 3423 	.byte #0xC1,#0x05	; 1473
      000E4E B4 01                 3424 	.byte #0xB4,#0x01	; 436
      000E50 F6 02                 3425 	.byte #0xF6,#0x02	; 758
      000E52 83 06                 3426 	.byte #0x83,#0x06	; 1667
      000E54 69 06                 3427 	.byte #0x69,#0x06	; 1641
      000E56 1C 02                 3428 	.byte #0x1C,#0x02	; 540
      000E58 BD 07                 3429 	.byte #0xBD,#0x07	; 1981
      000E5A C8 03                 3430 	.byte #0xC8,#0x03	; 968
      000E5C 22 03                 3431 	.byte #0x22,#0x03	; 802
      000E5E 57 07                 3432 	.byte #0x57,#0x07	; 1879
      000E60 A6 05                 3433 	.byte #0xA6,#0x05	; 1446
      000E62 D3 01                 3434 	.byte #0xD3,#0x01	; 467
      000E64 39 01                 3435 	.byte #0x39,#0x01	; 313
      000E66 4C 05                 3436 	.byte #0x4C,#0x05	; 1356
      000E68 ED 00                 3437 	.byte #0xED,#0x00	; 237
      000E6A 98 04                 3438 	.byte #0x98,#0x04	; 1176
      000E6C 72 04                 3439 	.byte #0x72,#0x04	; 1138
      000E6E 07 00                 3440 	.byte #0x07,#0x00	; 7
      000E70 45 03                 3441 	.byte #0x45,#0x03	; 837
      000E72 30 07                 3442 	.byte #0x30,#0x07	; 1840
      000E74 DA 07                 3443 	.byte #0xDA,#0x07	; 2010
      000E76 AF 03                 3444 	.byte #0xAF,#0x03	; 943
      000E78 0E 06                 3445 	.byte #0x0E,#0x06	; 1550
      000E7A 7B 02                 3446 	.byte #0x7B,#0x02	; 635
      000E7C 91 02                 3447 	.byte #0x91,#0x02	; 657
      000E7E E4 06                 3448 	.byte #0xE4,#0x06	; 1764
      000E80 BF 01                 3449 	.byte #0xBF,#0x01	; 447
      000E82 CA 05                 3450 	.byte #0xCA,#0x05	; 1482
      000E84 20 05                 3451 	.byte #0x20,#0x05	; 1312
      000E86 55 01                 3452 	.byte #0x55,#0x01	; 341
      000E88 F4 04                 3453 	.byte #0xF4,#0x04	; 1268
      000E8A 81 00                 3454 	.byte #0x81,#0x00	; 129
      000E8C 6B 00                 3455 	.byte #0x6B,#0x00	; 107
      000E8E 1E 04                 3456 	.byte #0x1E,#0x04	; 1054
      000E90 5C 07                 3457 	.byte #0x5C,#0x07	; 1884
      000E92 29 03                 3458 	.byte #0x29,#0x03	; 809
      000E94 C3 03                 3459 	.byte #0xC3,#0x03	; 963
      000E96 B6 07                 3460 	.byte #0xB6,#0x07	; 1974
      000E98 17 02                 3461 	.byte #0x17,#0x02	; 535
      000E9A 62 06                 3462 	.byte #0x62,#0x06	; 1634
      000E9C 88 06                 3463 	.byte #0x88,#0x06	; 1672
      000E9E FD 02                 3464 	.byte #0xFD,#0x02	; 765
      000EA0 0C 00                 3465 	.byte #0x0C,#0x00	; 12
      000EA2 79 04                 3466 	.byte #0x79,#0x04	; 1145
      000EA4 93 04                 3467 	.byte #0x93,#0x04	; 1171
      000EA6 E6 00                 3468 	.byte #0xE6,#0x00	; 230
      000EA8 47 05                 3469 	.byte #0x47,#0x05	; 1351
      000EAA 32 01                 3470 	.byte #0x32,#0x01	; 306
      000EAC D8 01                 3471 	.byte #0xD8,#0x01	; 472
      000EAE AD 05                 3472 	.byte #0xAD,#0x05	; 1453
      000EB0 EF 06                 3473 	.byte #0xEF,#0x06	; 1775
      000EB2 9A 02                 3474 	.byte #0x9A,#0x02	; 666
      000EB4 70 02                 3475 	.byte #0x70,#0x02	; 624
      000EB6 05 06                 3476 	.byte #0x05,#0x06	; 1541
      000EB8 A4 03                 3477 	.byte #0xA4,#0x03	; 932
      000EBA D1 07                 3478 	.byte #0xD1,#0x07	; 2001
      000EBC 3B 07                 3479 	.byte #0x3B,#0x07	; 1851
      000EBE 4E 03                 3480 	.byte #0x4E,#0x03	; 846
      000EC0 D9 02                 3481 	.byte #0xD9,#0x02	; 729
      000EC2 AC 06                 3482 	.byte #0xAC,#0x06	; 1708
      000EC4 46 06                 3483 	.byte #0x46,#0x06	; 1606
      000EC6 33 02                 3484 	.byte #0x33,#0x02	; 563
      000EC8 92 07                 3485 	.byte #0x92,#0x07	; 1938
      000ECA E7 03                 3486 	.byte #0xE7,#0x03	; 999
      000ECC 0D 03                 3487 	.byte #0x0D,#0x03	; 781
      000ECE 78 07                 3488 	.byte #0x78,#0x07	; 1912
      000ED0 3A 04                 3489 	.byte #0x3A,#0x04	; 1082
      000ED2 4F 00                 3490 	.byte #0x4F,#0x00	; 79
      000ED4 A5 00                 3491 	.byte #0xA5,#0x00	; 165
      000ED6 D0 04                 3492 	.byte #0xD0,#0x04	; 1232
      000ED8 71 01                 3493 	.byte #0x71,#0x01	; 369
      000EDA 04 05                 3494 	.byte #0x04,#0x05	; 1284
      000EDC EE 05                 3495 	.byte #0xEE,#0x05	; 1518
      000EDE 9B 01                 3496 	.byte #0x9B,#0x01	; 411
      000EE0 6A 03                 3497 	.byte #0x6A,#0x03	; 874
      000EE2 1F 07                 3498 	.byte #0x1F,#0x07	; 1823
      000EE4 F5 07                 3499 	.byte #0xF5,#0x07	; 2037
      000EE6 80 03                 3500 	.byte #0x80,#0x03	; 896
      000EE8 21 06                 3501 	.byte #0x21,#0x06	; 1569
      000EEA 54 02                 3502 	.byte #0x54,#0x02	; 596
      000EEC BE 02                 3503 	.byte #0xBE,#0x02	; 702
      000EEE CB 06                 3504 	.byte #0xCB,#0x06	; 1739
      000EF0 89 05                 3505 	.byte #0x89,#0x05	; 1417
      000EF2 FC 01                 3506 	.byte #0xFC,#0x01	; 508
      000EF4 16 01                 3507 	.byte #0x16,#0x01	; 278
      000EF6 63 05                 3508 	.byte #0x63,#0x05	; 1379
      000EF8 C2 00                 3509 	.byte #0xC2,#0x00	; 194
      000EFA B7 04                 3510 	.byte #0xB7,#0x04	; 1207
      000EFC 5D 04                 3511 	.byte #0x5D,#0x04	; 1117
      000EFE 28 00                 3512 	.byte #0x28,#0x00	; 40
      000F00 9E 06                 3513 	.byte #0x9E,#0x06	; 1694
      000F02 EB 02                 3514 	.byte #0xEB,#0x02	; 747
      000F04 01 02                 3515 	.byte #0x01,#0x02	; 513
      000F06 74 06                 3516 	.byte #0x74,#0x06	; 1652
      000F08 D5 03                 3517 	.byte #0xD5,#0x03	; 981
      000F0A A0 07                 3518 	.byte #0xA0,#0x07	; 1952
      000F0C 4A 07                 3519 	.byte #0x4A,#0x07	; 1866
      000F0E 3F 03                 3520 	.byte #0x3F,#0x03	; 831
      000F10 7D 00                 3521 	.byte #0x7D,#0x00	; 125
      000F12 08 04                 3522 	.byte #0x08,#0x04	; 1032
      000F14 E2 04                 3523 	.byte #0xE2,#0x04	; 1250
      000F16 97 00                 3524 	.byte #0x97,#0x00	; 151
      000F18 36 05                 3525 	.byte #0x36,#0x05	; 1334
      000F1A 43 01                 3526 	.byte #0x43,#0x01	; 323
      000F1C A9 01                 3527 	.byte #0xA9,#0x01	; 425
      000F1E DC 05                 3528 	.byte #0xDC,#0x05	; 1500
      000F20 2D 07                 3529 	.byte #0x2D,#0x07	; 1837
      000F22 58 03                 3530 	.byte #0x58,#0x03	; 856
      000F24 B2 03                 3531 	.byte #0xB2,#0x03	; 946
      000F26 C7 07                 3532 	.byte #0xC7,#0x07	; 1991
      000F28 66 02                 3533 	.byte #0x66,#0x02	; 614
      000F2A 13 06                 3534 	.byte #0x13,#0x06	; 1555
      000F2C F9 06                 3535 	.byte #0xF9,#0x06	; 1785
      000F2E 8C 02                 3536 	.byte #0x8C,#0x02	; 652
      000F30 CE 01                 3537 	.byte #0xCE,#0x01	; 462
      000F32 BB 05                 3538 	.byte #0xBB,#0x05	; 1467
      000F34 51 05                 3539 	.byte #0x51,#0x05	; 1361
      000F36 24 01                 3540 	.byte #0x24,#0x01	; 292
      000F38 85 04                 3541 	.byte #0x85,#0x04	; 1157
      000F3A F0 00                 3542 	.byte #0xF0,#0x00	; 240
      000F3C 1A 00                 3543 	.byte #0x1A,#0x00	; 26
      000F3E 6F 04                 3544 	.byte #0x6F,#0x04	; 1135
      000F40 F8 05                 3545 	.byte #0xF8,#0x05	; 1528
      000F42 8D 01                 3546 	.byte #0x8D,#0x01	; 397
      000F44 67 01                 3547 	.byte #0x67,#0x01	; 359
      000F46 12 05                 3548 	.byte #0x12,#0x05	; 1298
      000F48 B3 00                 3549 	.byte #0xB3,#0x00	; 179
      000F4A C6 04                 3550 	.byte #0xC6,#0x04	; 1222
      000F4C 2C 04                 3551 	.byte #0x2C,#0x04	; 1068
      000F4E 59 00                 3552 	.byte #0x59,#0x00	; 89
      000F50 1B 03                 3553 	.byte #0x1B,#0x03	; 795
      000F52 6E 07                 3554 	.byte #0x6E,#0x07	; 1902
      000F54 84 07                 3555 	.byte #0x84,#0x07	; 1924
      000F56 F1 03                 3556 	.byte #0xF1,#0x03	; 1009
      000F58 50 06                 3557 	.byte #0x50,#0x06	; 1616
      000F5A 25 02                 3558 	.byte #0x25,#0x02	; 549
      000F5C CF 02                 3559 	.byte #0xCF,#0x02	; 719
      000F5E BA 06                 3560 	.byte #0xBA,#0x06	; 1722
      000F60 4B 04                 3561 	.byte #0x4B,#0x04	; 1099
      000F62 3E 00                 3562 	.byte #0x3E,#0x00	; 62
      000F64 D4 00                 3563 	.byte #0xD4,#0x00	; 212
      000F66 A1 04                 3564 	.byte #0xA1,#0x04	; 1185
      000F68 00 01                 3565 	.byte #0x00,#0x01	; 256
      000F6A 75 05                 3566 	.byte #0x75,#0x05	; 1397
      000F6C 9F 05                 3567 	.byte #0x9F,#0x05	; 1439
      000F6E EA 01                 3568 	.byte #0xEA,#0x01	; 490
      000F70 A8 02                 3569 	.byte #0xA8,#0x02	; 680
      000F72 DD 06                 3570 	.byte #0xDD,#0x06	; 1757
      000F74 37 06                 3571 	.byte #0x37,#0x06	; 1591
      000F76 42 02                 3572 	.byte #0x42,#0x02	; 578
      000F78 E3 07                 3573 	.byte #0xE3,#0x07	; 2019
      000F7A 96 03                 3574 	.byte #0x96,#0x03	; 918
      000F7C 7C 03                 3575 	.byte #0x7C,#0x03	; 892
      000F7E 09 07                 3576 	.byte #0x09,#0x07	; 1801
      000F80 52 00                 3577 	.byte #0x52,#0x00	; 82
      000F82 27 04                 3578 	.byte #0x27,#0x04	; 1063
      000F84 CD 04                 3579 	.byte #0xCD,#0x04	; 1229
      000F86 B8 00                 3580 	.byte #0xB8,#0x00	; 184
      000F88 19 05                 3581 	.byte #0x19,#0x05	; 1305
      000F8A 6C 01                 3582 	.byte #0x6C,#0x01	; 364
      000F8C 86 01                 3583 	.byte #0x86,#0x01	; 390
      000F8E F3 05                 3584 	.byte #0xF3,#0x05	; 1523
      000F90 B1 06                 3585 	.byte #0xB1,#0x06	; 1713
      000F92 C4 02                 3586 	.byte #0xC4,#0x02	; 708
      000F94 2E 02                 3587 	.byte #0x2E,#0x02	; 558
      000F96 5B 06                 3588 	.byte #0x5B,#0x06	; 1627
      000F98 FA 03                 3589 	.byte #0xFA,#0x03	; 1018
      000F9A 8F 07                 3590 	.byte #0x8F,#0x07	; 1935
      000F9C 65 07                 3591 	.byte #0x65,#0x07	; 1893
      000F9E 10 03                 3592 	.byte #0x10,#0x03	; 784
      000FA0 E1 01                 3593 	.byte #0xE1,#0x01	; 481
      000FA2 94 05                 3594 	.byte #0x94,#0x05	; 1428
      000FA4 7E 05                 3595 	.byte #0x7E,#0x05	; 1406
      000FA6 0B 01                 3596 	.byte #0x0B,#0x01	; 267
      000FA8 AA 04                 3597 	.byte #0xAA,#0x04	; 1194
      000FAA DF 00                 3598 	.byte #0xDF,#0x00	; 223
      000FAC 35 00                 3599 	.byte #0x35,#0x00	; 53
      000FAE 40 04                 3600 	.byte #0x40,#0x04	; 1088
      000FB0 02 07                 3601 	.byte #0x02,#0x07	; 1794
      000FB2 77 03                 3602 	.byte #0x77,#0x03	; 887
      000FB4 9D 03                 3603 	.byte #0x9D,#0x03	; 925
      000FB6 E8 07                 3604 	.byte #0xE8,#0x07	; 2024
      000FB8 49 02                 3605 	.byte #0x49,#0x02	; 585
      000FBA 3C 06                 3606 	.byte #0x3C,#0x06	; 1596
      000FBC D6 06                 3607 	.byte #0xD6,#0x06	; 1750
      000FBE A3 02                 3608 	.byte #0xA3,#0x02	; 675
      000FC0 34 03                 3609 	.byte #0x34,#0x03	; 820
      000FC2 41 07                 3610 	.byte #0x41,#0x07	; 1857
      000FC4 AB 07                 3611 	.byte #0xAB,#0x07	; 1963
      000FC6 DE 03                 3612 	.byte #0xDE,#0x03	; 990
      000FC8 7F 06                 3613 	.byte #0x7F,#0x06	; 1663
      000FCA 0A 02                 3614 	.byte #0x0A,#0x02	; 522
      000FCC E0 02                 3615 	.byte #0xE0,#0x02	; 736
      000FCE 95 06                 3616 	.byte #0x95,#0x06	; 1685
      000FD0 D7 05                 3617 	.byte #0xD7,#0x05	; 1495
      000FD2 A2 01                 3618 	.byte #0xA2,#0x01	; 418
      000FD4 48 01                 3619 	.byte #0x48,#0x01	; 328
      000FD6 3D 05                 3620 	.byte #0x3D,#0x05	; 1341
      000FD8 9C 00                 3621 	.byte #0x9C,#0x00	; 156
      000FDA E9 04                 3622 	.byte #0xE9,#0x04	; 1257
      000FDC 03 04                 3623 	.byte #0x03,#0x04	; 1027
      000FDE 76 00                 3624 	.byte #0x76,#0x00	; 118
      000FE0 87 02                 3625 	.byte #0x87,#0x02	; 647
      000FE2 F2 06                 3626 	.byte #0xF2,#0x06	; 1778
      000FE4 18 06                 3627 	.byte #0x18,#0x06	; 1560
      000FE6 6D 02                 3628 	.byte #0x6D,#0x02	; 621
      000FE8 CC 07                 3629 	.byte #0xCC,#0x07	; 1996
      000FEA B9 03                 3630 	.byte #0xB9,#0x03	; 953
      000FEC 53 03                 3631 	.byte #0x53,#0x03	; 851
      000FEE 26 07                 3632 	.byte #0x26,#0x07	; 1830
      000FF0 64 04                 3633 	.byte #0x64,#0x04	; 1124
      000FF2 11 00                 3634 	.byte #0x11,#0x00	; 17
      000FF4 FB 00                 3635 	.byte #0xFB,#0x00	; 251
      000FF6 8E 04                 3636 	.byte #0x8E,#0x04	; 1166
      000FF8 2F 01                 3637 	.byte #0x2F,#0x01	; 303
      000FFA 5A 05                 3638 	.byte #0x5A,#0x05	; 1370
      000FFC B0 05                 3639 	.byte #0xB0,#0x05	; 1456
      000FFE C5 01                 3640 	.byte #0xC5,#0x01	; 453
      001000 3A 06                 3641 	.byte #0x3A,#0x06	; 1594
      001002 4F 02                 3642 	.byte #0x4F,#0x02	; 591
      001004 A5 02                 3643 	.byte #0xA5,#0x02	; 677
      001006 D0 06                 3644 	.byte #0xD0,#0x06	; 1744
      001008 71 03                 3645 	.byte #0x71,#0x03	; 881
      00100A 04 07                 3646 	.byte #0x04,#0x07	; 1796
      00100C EE 07                 3647 	.byte #0xEE,#0x07	; 2030
      00100E 9B 03                 3648 	.byte #0x9B,#0x03	; 923
      001010 D9 00                 3649 	.byte #0xD9,#0x00	; 217
      001012 AC 04                 3650 	.byte #0xAC,#0x04	; 1196
      001014 46 04                 3651 	.byte #0x46,#0x04	; 1094
      001016 33 00                 3652 	.byte #0x33,#0x00	; 51
      001018 92 05                 3653 	.byte #0x92,#0x05	; 1426
      00101A E7 01                 3654 	.byte #0xE7,#0x01	; 487
      00101C 0D 01                 3655 	.byte #0x0D,#0x01	; 269
      00101E 78 05                 3656 	.byte #0x78,#0x05	; 1400
      001020 89 07                 3657 	.byte #0x89,#0x07	; 1929
      001022 FC 03                 3658 	.byte #0xFC,#0x03	; 1020
      001024 16 03                 3659 	.byte #0x16,#0x03	; 790
      001026 63 07                 3660 	.byte #0x63,#0x07	; 1891
      001028 C2 02                 3661 	.byte #0xC2,#0x02	; 706
      00102A B7 06                 3662 	.byte #0xB7,#0x06	; 1719
      00102C 5D 06                 3663 	.byte #0x5D,#0x06	; 1629
      00102E 28 02                 3664 	.byte #0x28,#0x02	; 552
      001030 6A 01                 3665 	.byte #0x6A,#0x01	; 362
      001032 1F 05                 3666 	.byte #0x1F,#0x05	; 1311
      001034 F5 05                 3667 	.byte #0xF5,#0x05	; 1525
      001036 80 01                 3668 	.byte #0x80,#0x01	; 384
      001038 21 04                 3669 	.byte #0x21,#0x04	; 1057
      00103A 54 00                 3670 	.byte #0x54,#0x00	; 84
      00103C BE 00                 3671 	.byte #0xBE,#0x00	; 190
      00103E CB 04                 3672 	.byte #0xCB,#0x04	; 1227
      001040 5C 05                 3673 	.byte #0x5C,#0x05	; 1372
      001042 29 01                 3674 	.byte #0x29,#0x01	; 297
      001044 C3 01                 3675 	.byte #0xC3,#0x01	; 451
      001046 B6 05                 3676 	.byte #0xB6,#0x05	; 1462
      001048 17 00                 3677 	.byte #0x17,#0x00	; 23
      00104A 62 04                 3678 	.byte #0x62,#0x04	; 1122
      00104C 88 04                 3679 	.byte #0x88,#0x04	; 1160
      00104E FD 00                 3680 	.byte #0xFD,#0x00	; 253
      001050 BF 03                 3681 	.byte #0xBF,#0x03	; 959
      001052 CA 07                 3682 	.byte #0xCA,#0x07	; 1994
      001054 20 07                 3683 	.byte #0x20,#0x07	; 1824
      001056 55 03                 3684 	.byte #0x55,#0x03	; 853
      001058 F4 06                 3685 	.byte #0xF4,#0x06	; 1780
      00105A 81 02                 3686 	.byte #0x81,#0x02	; 641
      00105C 6B 02                 3687 	.byte #0x6B,#0x02	; 619
      00105E 1E 06                 3688 	.byte #0x1E,#0x06	; 1566
      001060 EF 04                 3689 	.byte #0xEF,#0x04	; 1263
      001062 9A 00                 3690 	.byte #0x9A,#0x00	; 154
      001064 70 00                 3691 	.byte #0x70,#0x00	; 112
      001066 05 04                 3692 	.byte #0x05,#0x04	; 1029
      001068 A4 01                 3693 	.byte #0xA4,#0x01	; 420
      00106A D1 05                 3694 	.byte #0xD1,#0x05	; 1489
      00106C 3B 05                 3695 	.byte #0x3B,#0x05	; 1339
      00106E 4E 01                 3696 	.byte #0x4E,#0x01	; 334
      001070 0C 02                 3697 	.byte #0x0C,#0x02	; 524
      001072 79 06                 3698 	.byte #0x79,#0x06	; 1657
      001074 93 06                 3699 	.byte #0x93,#0x06	; 1683
      001076 E6 02                 3700 	.byte #0xE6,#0x02	; 742
      001078 47 07                 3701 	.byte #0x47,#0x07	; 1863
      00107A 32 03                 3702 	.byte #0x32,#0x03	; 818
      00107C D8 03                 3703 	.byte #0xD8,#0x03	; 984
      00107E AD 07                 3704 	.byte #0xAD,#0x07	; 1965
      001080 F6 00                 3705 	.byte #0xF6,#0x00	; 246
      001082 83 04                 3706 	.byte #0x83,#0x04	; 1155
      001084 69 04                 3707 	.byte #0x69,#0x04	; 1129
      001086 1C 00                 3708 	.byte #0x1C,#0x00	; 28
      001088 BD 05                 3709 	.byte #0xBD,#0x05	; 1469
      00108A C8 01                 3710 	.byte #0xC8,#0x01	; 456
      00108C 22 01                 3711 	.byte #0x22,#0x01	; 290
      00108E 57 05                 3712 	.byte #0x57,#0x05	; 1367
      001090 15 06                 3713 	.byte #0x15,#0x06	; 1557
      001092 60 02                 3714 	.byte #0x60,#0x02	; 608
      001094 8A 02                 3715 	.byte #0x8A,#0x02	; 650
      001096 FF 06                 3716 	.byte #0xFF,#0x06	; 1791
      001098 5E 03                 3717 	.byte #0x5E,#0x03	; 862
      00109A 2B 07                 3718 	.byte #0x2B,#0x07	; 1835
      00109C C1 07                 3719 	.byte #0xC1,#0x07	; 1985
      00109E B4 03                 3720 	.byte #0xB4,#0x03	; 948
      0010A0 45 01                 3721 	.byte #0x45,#0x01	; 325
      0010A2 30 05                 3722 	.byte #0x30,#0x05	; 1328
      0010A4 DA 05                 3723 	.byte #0xDA,#0x05	; 1498
      0010A6 AF 01                 3724 	.byte #0xAF,#0x01	; 431
      0010A8 0E 04                 3725 	.byte #0x0E,#0x04	; 1038
      0010AA 7B 00                 3726 	.byte #0x7B,#0x00	; 123
      0010AC 91 00                 3727 	.byte #0x91,#0x00	; 145
      0010AE E4 04                 3728 	.byte #0xE4,#0x04	; 1252
      0010B0 A6 07                 3729 	.byte #0xA6,#0x07	; 1958
      0010B2 D3 03                 3730 	.byte #0xD3,#0x03	; 979
      0010B4 39 03                 3731 	.byte #0x39,#0x03	; 825
      0010B6 4C 07                 3732 	.byte #0x4C,#0x07	; 1868
      0010B8 ED 02                 3733 	.byte #0xED,#0x02	; 749
      0010BA 98 06                 3734 	.byte #0x98,#0x06	; 1688
      0010BC 72 06                 3735 	.byte #0x72,#0x06	; 1650
      0010BE 07 02                 3736 	.byte #0x07,#0x02	; 519
      0010C0 90 03                 3737 	.byte #0x90,#0x03	; 912
      0010C2 E5 07                 3738 	.byte #0xE5,#0x07	; 2021
      0010C4 0F 07                 3739 	.byte #0x0F,#0x07	; 1807
      0010C6 7A 03                 3740 	.byte #0x7A,#0x03	; 890
      0010C8 DB 06                 3741 	.byte #0xDB,#0x06	; 1755
      0010CA AE 02                 3742 	.byte #0xAE,#0x02	; 686
      0010CC 44 02                 3743 	.byte #0x44,#0x02	; 580
      0010CE 31 06                 3744 	.byte #0x31,#0x06	; 1585
      0010D0 73 05                 3745 	.byte #0x73,#0x05	; 1395
      0010D2 06 01                 3746 	.byte #0x06,#0x01	; 262
      0010D4 EC 01                 3747 	.byte #0xEC,#0x01	; 492
      0010D6 99 05                 3748 	.byte #0x99,#0x05	; 1433
      0010D8 38 00                 3749 	.byte #0x38,#0x00	; 56
      0010DA 4D 04                 3750 	.byte #0x4D,#0x04	; 1101
      0010DC A7 04                 3751 	.byte #0xA7,#0x04	; 1191
      0010DE D2 00                 3752 	.byte #0xD2,#0x00	; 210
      0010E0 23 02                 3753 	.byte #0x23,#0x02	; 547
      0010E2 56 06                 3754 	.byte #0x56,#0x06	; 1622
      0010E4 BC 06                 3755 	.byte #0xBC,#0x06	; 1724
      0010E6 C9 02                 3756 	.byte #0xC9,#0x02	; 713
      0010E8 68 07                 3757 	.byte #0x68,#0x07	; 1896
      0010EA 1D 03                 3758 	.byte #0x1D,#0x03	; 797
      0010EC F7 03                 3759 	.byte #0xF7,#0x03	; 1015
      0010EE 82 07                 3760 	.byte #0x82,#0x07	; 1922
      0010F0 C0 04                 3761 	.byte #0xC0,#0x04	; 1216
      0010F2 B5 00                 3762 	.byte #0xB5,#0x00	; 181
      0010F4 5F 00                 3763 	.byte #0x5F,#0x00	; 95
      0010F6 2A 04                 3764 	.byte #0x2A,#0x04	; 1066
      0010F8 8B 01                 3765 	.byte #0x8B,#0x01	; 395
      0010FA FE 05                 3766 	.byte #0xFE,#0x05	; 1534
      0010FC 14 05                 3767 	.byte #0x14,#0x05	; 1300
      0010FE 61 01                 3768 	.byte #0x61,#0x01	; 353
      001100 D7 07                 3769 	.byte #0xD7,#0x07	; 2007
      001102 A2 03                 3770 	.byte #0xA2,#0x03	; 930
      001104 48 03                 3771 	.byte #0x48,#0x03	; 840
      001106 3D 07                 3772 	.byte #0x3D,#0x07	; 1853
      001108 9C 02                 3773 	.byte #0x9C,#0x02	; 668
      00110A E9 06                 3774 	.byte #0xE9,#0x06	; 1769
      00110C 03 06                 3775 	.byte #0x03,#0x06	; 1539
      00110E 76 02                 3776 	.byte #0x76,#0x02	; 630
      001110 34 01                 3777 	.byte #0x34,#0x01	; 308
      001112 41 05                 3778 	.byte #0x41,#0x05	; 1345
      001114 AB 05                 3779 	.byte #0xAB,#0x05	; 1451
      001116 DE 01                 3780 	.byte #0xDE,#0x01	; 478
      001118 7F 04                 3781 	.byte #0x7F,#0x04	; 1151
      00111A 0A 00                 3782 	.byte #0x0A,#0x00	; 10
      00111C E0 00                 3783 	.byte #0xE0,#0x00	; 224
      00111E 95 04                 3784 	.byte #0x95,#0x04	; 1173
      001120 64 06                 3785 	.byte #0x64,#0x06	; 1636
      001122 11 02                 3786 	.byte #0x11,#0x02	; 529
      001124 FB 02                 3787 	.byte #0xFB,#0x02	; 763
      001126 8E 06                 3788 	.byte #0x8E,#0x06	; 1678
      001128 2F 03                 3789 	.byte #0x2F,#0x03	; 815
      00112A 5A 07                 3790 	.byte #0x5A,#0x07	; 1882
      00112C B0 07                 3791 	.byte #0xB0,#0x07	; 1968
      00112E C5 03                 3792 	.byte #0xC5,#0x03	; 965
      001130 87 00                 3793 	.byte #0x87,#0x00	; 135
      001132 F2 04                 3794 	.byte #0xF2,#0x04	; 1266
      001134 18 04                 3795 	.byte #0x18,#0x04	; 1048
      001136 6D 00                 3796 	.byte #0x6D,#0x00	; 109
      001138 CC 05                 3797 	.byte #0xCC,#0x05	; 1484
      00113A B9 01                 3798 	.byte #0xB9,#0x01	; 441
      00113C 53 01                 3799 	.byte #0x53,#0x01	; 339
      00113E 26 05                 3800 	.byte #0x26,#0x05	; 1318
      001140 B1 04                 3801 	.byte #0xB1,#0x04	; 1201
      001142 C4 00                 3802 	.byte #0xC4,#0x00	; 196
      001144 2E 00                 3803 	.byte #0x2E,#0x00	; 46
      001146 5B 04                 3804 	.byte #0x5B,#0x04	; 1115
      001148 FA 01                 3805 	.byte #0xFA,#0x01	; 506
      00114A 8F 05                 3806 	.byte #0x8F,#0x05	; 1423
      00114C 65 05                 3807 	.byte #0x65,#0x05	; 1381
      00114E 10 01                 3808 	.byte #0x10,#0x01	; 272
      001150 52 02                 3809 	.byte #0x52,#0x02	; 594
      001152 27 06                 3810 	.byte #0x27,#0x06	; 1575
      001154 CD 06                 3811 	.byte #0xCD,#0x06	; 1741
      001156 B8 02                 3812 	.byte #0xB8,#0x02	; 696
      001158 19 07                 3813 	.byte #0x19,#0x07	; 1817
      00115A 6C 03                 3814 	.byte #0x6C,#0x03	; 876
      00115C 86 03                 3815 	.byte #0x86,#0x03	; 902
      00115E F3 07                 3816 	.byte #0xF3,#0x07	; 2035
      001160 02 05                 3817 	.byte #0x02,#0x05	; 1282
      001162 77 01                 3818 	.byte #0x77,#0x01	; 375
      001164 9D 01                 3819 	.byte #0x9D,#0x01	; 413
      001166 E8 05                 3820 	.byte #0xE8,#0x05	; 1512
      001168 49 00                 3821 	.byte #0x49,#0x00	; 73
      00116A 3C 04                 3822 	.byte #0x3C,#0x04	; 1084
      00116C D6 04                 3823 	.byte #0xD6,#0x04	; 1238
      00116E A3 00                 3824 	.byte #0xA3,#0x00	; 163
      001170 E1 03                 3825 	.byte #0xE1,#0x03	; 993
      001172 94 07                 3826 	.byte #0x94,#0x07	; 1940
      001174 7E 07                 3827 	.byte #0x7E,#0x07	; 1918
      001176 0B 03                 3828 	.byte #0x0B,#0x03	; 779
      001178 AA 06                 3829 	.byte #0xAA,#0x06	; 1706
      00117A DF 02                 3830 	.byte #0xDF,#0x02	; 735
      00117C 35 02                 3831 	.byte #0x35,#0x02	; 565
      00117E 40 06                 3832 	.byte #0x40,#0x06	; 1600
      001180 1B 01                 3833 	.byte #0x1B,#0x01	; 283
      001182 6E 05                 3834 	.byte #0x6E,#0x05	; 1390
      001184 84 05                 3835 	.byte #0x84,#0x05	; 1412
      001186 F1 01                 3836 	.byte #0xF1,#0x01	; 497
      001188 50 04                 3837 	.byte #0x50,#0x04	; 1104
      00118A 25 00                 3838 	.byte #0x25,#0x00	; 37
      00118C CF 00                 3839 	.byte #0xCF,#0x00	; 207
      00118E BA 04                 3840 	.byte #0xBA,#0x04	; 1210
      001190 F8 07                 3841 	.byte #0xF8,#0x07	; 2040
      001192 8D 03                 3842 	.byte #0x8D,#0x03	; 909
      001194 67 03                 3843 	.byte #0x67,#0x03	; 871
      001196 12 07                 3844 	.byte #0x12,#0x07	; 1810
      001198 B3 02                 3845 	.byte #0xB3,#0x02	; 691
      00119A C6 06                 3846 	.byte #0xC6,#0x06	; 1734
      00119C 2C 06                 3847 	.byte #0x2C,#0x06	; 1580
      00119E 59 02                 3848 	.byte #0x59,#0x02	; 601
      0011A0 A8 00                 3849 	.byte #0xA8,#0x00	; 168
      0011A2 DD 04                 3850 	.byte #0xDD,#0x04	; 1245
      0011A4 37 04                 3851 	.byte #0x37,#0x04	; 1079
      0011A6 42 00                 3852 	.byte #0x42,#0x00	; 66
      0011A8 E3 05                 3853 	.byte #0xE3,#0x05	; 1507
      0011AA 96 01                 3854 	.byte #0x96,#0x01	; 406
      0011AC 7C 01                 3855 	.byte #0x7C,#0x01	; 380
      0011AE 09 05                 3856 	.byte #0x09,#0x05	; 1289
      0011B0 4B 06                 3857 	.byte #0x4B,#0x06	; 1611
      0011B2 3E 02                 3858 	.byte #0x3E,#0x02	; 574
      0011B4 D4 02                 3859 	.byte #0xD4,#0x02	; 724
      0011B6 A1 06                 3860 	.byte #0xA1,#0x06	; 1697
      0011B8 00 03                 3861 	.byte #0x00,#0x03	; 768
      0011BA 75 07                 3862 	.byte #0x75,#0x07	; 1909
      0011BC 9F 07                 3863 	.byte #0x9F,#0x07	; 1951
      0011BE EA 03                 3864 	.byte #0xEA,#0x03	; 1002
      0011C0 7D 02                 3865 	.byte #0x7D,#0x02	; 637
      0011C2 08 06                 3866 	.byte #0x08,#0x06	; 1544
      0011C4 E2 06                 3867 	.byte #0xE2,#0x06	; 1762
      0011C6 97 02                 3868 	.byte #0x97,#0x02	; 663
      0011C8 36 07                 3869 	.byte #0x36,#0x07	; 1846
      0011CA 43 03                 3870 	.byte #0x43,#0x03	; 835
      0011CC A9 03                 3871 	.byte #0xA9,#0x03	; 937
      0011CE DC 07                 3872 	.byte #0xDC,#0x07	; 2012
      0011D0 9E 04                 3873 	.byte #0x9E,#0x04	; 1182
      0011D2 EB 00                 3874 	.byte #0xEB,#0x00	; 235
      0011D4 01 00                 3875 	.byte #0x01,#0x00	; 1
      0011D6 74 04                 3876 	.byte #0x74,#0x04	; 1140
      0011D8 D5 01                 3877 	.byte #0xD5,#0x01	; 469
      0011DA A0 05                 3878 	.byte #0xA0,#0x05	; 1440
      0011DC 4A 05                 3879 	.byte #0x4A,#0x05	; 1354
      0011DE 3F 01                 3880 	.byte #0x3F,#0x01	; 319
      0011E0 CE 03                 3881 	.byte #0xCE,#0x03	; 974
      0011E2 BB 07                 3882 	.byte #0xBB,#0x07	; 1979
      0011E4 51 07                 3883 	.byte #0x51,#0x07	; 1873
      0011E6 24 03                 3884 	.byte #0x24,#0x03	; 804
      0011E8 85 06                 3885 	.byte #0x85,#0x06	; 1669
      0011EA F0 02                 3886 	.byte #0xF0,#0x02	; 752
      0011EC 1A 02                 3887 	.byte #0x1A,#0x02	; 538
      0011EE 6F 06                 3888 	.byte #0x6F,#0x06	; 1647
      0011F0 2D 05                 3889 	.byte #0x2D,#0x05	; 1325
      0011F2 58 01                 3890 	.byte #0x58,#0x01	; 344
      0011F4 B2 01                 3891 	.byte #0xB2,#0x01	; 434
      0011F6 C7 05                 3892 	.byte #0xC7,#0x05	; 1479
      0011F8 66 00                 3893 	.byte #0x66,#0x00	; 102
      0011FA 13 04                 3894 	.byte #0x13,#0x04	; 1043
      0011FC F9 04                 3895 	.byte #0xF9,#0x04	; 1273
      0011FE 8C 00                 3896 	.byte #0x8C,#0x00	; 140
      001200 E0 05                 3897 	.byte #0xE0,#0x05	; 1504
      001202 95 01                 3898 	.byte #0x95,#0x01	; 405
      001204 7F 01                 3899 	.byte #0x7F,#0x01	; 383
      001206 0A 05                 3900 	.byte #0x0A,#0x05	; 1290
      001208 AB 00                 3901 	.byte #0xAB,#0x00	; 171
      00120A DE 04                 3902 	.byte #0xDE,#0x04	; 1246
      00120C 34 04                 3903 	.byte #0x34,#0x04	; 1076
      00120E 41 00                 3904 	.byte #0x41,#0x00	; 65
      001210 03 03                 3905 	.byte #0x03,#0x03	; 771
      001212 76 07                 3906 	.byte #0x76,#0x07	; 1910
      001214 9C 07                 3907 	.byte #0x9C,#0x07	; 1948
      001216 E9 03                 3908 	.byte #0xE9,#0x03	; 1001
      001218 48 06                 3909 	.byte #0x48,#0x06	; 1608
      00121A 3D 02                 3910 	.byte #0x3D,#0x02	; 573
      00121C D7 02                 3911 	.byte #0xD7,#0x02	; 727
      00121E A2 06                 3912 	.byte #0xA2,#0x06	; 1698
      001220 53 04                 3913 	.byte #0x53,#0x04	; 1107
      001222 26 00                 3914 	.byte #0x26,#0x00	; 38
      001224 CC 00                 3915 	.byte #0xCC,#0x00	; 204
      001226 B9 04                 3916 	.byte #0xB9,#0x04	; 1209
      001228 18 01                 3917 	.byte #0x18,#0x01	; 280
      00122A 6D 05                 3918 	.byte #0x6D,#0x05	; 1389
      00122C 87 05                 3919 	.byte #0x87,#0x05	; 1415
      00122E F2 01                 3920 	.byte #0xF2,#0x01	; 498
      001230 B0 02                 3921 	.byte #0xB0,#0x02	; 688
      001232 C5 06                 3922 	.byte #0xC5,#0x06	; 1733
      001234 2F 06                 3923 	.byte #0x2F,#0x06	; 1583
      001236 5A 02                 3924 	.byte #0x5A,#0x02	; 602
      001238 FB 07                 3925 	.byte #0xFB,#0x07	; 2043
      00123A 8E 03                 3926 	.byte #0x8E,#0x03	; 910
      00123C 64 03                 3927 	.byte #0x64,#0x03	; 868
      00123E 11 07                 3928 	.byte #0x11,#0x07	; 1809
      001240 86 06                 3929 	.byte #0x86,#0x06	; 1670
      001242 F3 02                 3930 	.byte #0xF3,#0x02	; 755
      001244 19 02                 3931 	.byte #0x19,#0x02	; 537
      001246 6C 06                 3932 	.byte #0x6C,#0x06	; 1644
      001248 CD 03                 3933 	.byte #0xCD,#0x03	; 973
      00124A B8 07                 3934 	.byte #0xB8,#0x07	; 1976
      00124C 52 07                 3935 	.byte #0x52,#0x07	; 1874
      00124E 27 03                 3936 	.byte #0x27,#0x03	; 807
      001250 65 00                 3937 	.byte #0x65,#0x00	; 101
      001252 10 04                 3938 	.byte #0x10,#0x04	; 1040
      001254 FA 04                 3939 	.byte #0xFA,#0x04	; 1274
      001256 8F 00                 3940 	.byte #0x8F,#0x00	; 143
      001258 2E 05                 3941 	.byte #0x2E,#0x05	; 1326
      00125A 5B 01                 3942 	.byte #0x5B,#0x01	; 347
      00125C B1 01                 3943 	.byte #0xB1,#0x01	; 433
      00125E C4 05                 3944 	.byte #0xC4,#0x05	; 1476
      001260 35 07                 3945 	.byte #0x35,#0x07	; 1845
      001262 40 03                 3946 	.byte #0x40,#0x03	; 832
      001264 AA 03                 3947 	.byte #0xAA,#0x03	; 938
      001266 DF 07                 3948 	.byte #0xDF,#0x07	; 2015
      001268 7E 02                 3949 	.byte #0x7E,#0x02	; 638
      00126A 0B 06                 3950 	.byte #0x0B,#0x06	; 1547
      00126C E1 06                 3951 	.byte #0xE1,#0x06	; 1761
      00126E 94 02                 3952 	.byte #0x94,#0x02	; 660
      001270 D6 01                 3953 	.byte #0xD6,#0x01	; 470
      001272 A3 05                 3954 	.byte #0xA3,#0x05	; 1443
      001274 49 05                 3955 	.byte #0x49,#0x05	; 1353
      001276 3C 01                 3956 	.byte #0x3C,#0x01	; 316
      001278 9D 04                 3957 	.byte #0x9D,#0x04	; 1181
      00127A E8 00                 3958 	.byte #0xE8,#0x00	; 232
      00127C 02 00                 3959 	.byte #0x02,#0x00	; 2
      00127E 77 04                 3960 	.byte #0x77,#0x04	; 1143
      001280 2C 03                 3961 	.byte #0x2C,#0x03	; 812
      001282 59 07                 3962 	.byte #0x59,#0x07	; 1881
      001284 B3 07                 3963 	.byte #0xB3,#0x07	; 1971
      001286 C6 03                 3964 	.byte #0xC6,#0x03	; 966
      001288 67 06                 3965 	.byte #0x67,#0x06	; 1639
      00128A 12 02                 3966 	.byte #0x12,#0x02	; 530
      00128C F8 02                 3967 	.byte #0xF8,#0x02	; 760
      00128E 8D 06                 3968 	.byte #0x8D,#0x06	; 1677
      001290 CF 05                 3969 	.byte #0xCF,#0x05	; 1487
      001292 BA 01                 3970 	.byte #0xBA,#0x01	; 442
      001294 50 01                 3971 	.byte #0x50,#0x01	; 336
      001296 25 05                 3972 	.byte #0x25,#0x05	; 1317
      001298 84 00                 3973 	.byte #0x84,#0x00	; 132
      00129A F1 04                 3974 	.byte #0xF1,#0x04	; 1265
      00129C 1B 04                 3975 	.byte #0x1B,#0x04	; 1051
      00129E 6E 00                 3976 	.byte #0x6E,#0x00	; 110
      0012A0 9F 02                 3977 	.byte #0x9F,#0x02	; 671
      0012A2 EA 06                 3978 	.byte #0xEA,#0x06	; 1770
      0012A4 00 06                 3979 	.byte #0x00,#0x06	; 1536
      0012A6 75 02                 3980 	.byte #0x75,#0x02	; 629
      0012A8 D4 07                 3981 	.byte #0xD4,#0x07	; 2004
      0012AA A1 03                 3982 	.byte #0xA1,#0x03	; 929
      0012AC 4B 03                 3983 	.byte #0x4B,#0x03	; 843
      0012AE 3E 07                 3984 	.byte #0x3E,#0x07	; 1854
      0012B0 7C 04                 3985 	.byte #0x7C,#0x04	; 1148
      0012B2 09 00                 3986 	.byte #0x09,#0x00	; 9
      0012B4 E3 00                 3987 	.byte #0xE3,#0x00	; 227
      0012B6 96 04                 3988 	.byte #0x96,#0x04	; 1174
      0012B8 37 01                 3989 	.byte #0x37,#0x01	; 311
      0012BA 42 05                 3990 	.byte #0x42,#0x05	; 1346
      0012BC A8 05                 3991 	.byte #0xA8,#0x05	; 1448
      0012BE DD 01                 3992 	.byte #0xDD,#0x01	; 477
      0012C0 4A 00                 3993 	.byte #0x4A,#0x00	; 74
      0012C2 3F 04                 3994 	.byte #0x3F,#0x04	; 1087
      0012C4 D5 04                 3995 	.byte #0xD5,#0x04	; 1237
      0012C6 A0 00                 3996 	.byte #0xA0,#0x00	; 160
      0012C8 01 05                 3997 	.byte #0x01,#0x05	; 1281
      0012CA 74 01                 3998 	.byte #0x74,#0x01	; 372
      0012CC 9E 01                 3999 	.byte #0x9E,#0x01	; 414
      0012CE EB 05                 4000 	.byte #0xEB,#0x05	; 1515
      0012D0 A9 06                 4001 	.byte #0xA9,#0x06	; 1705
      0012D2 DC 02                 4002 	.byte #0xDC,#0x02	; 732
      0012D4 36 02                 4003 	.byte #0x36,#0x02	; 566
      0012D6 43 06                 4004 	.byte #0x43,#0x06	; 1603
      0012D8 E2 03                 4005 	.byte #0xE2,#0x03	; 994
      0012DA 97 07                 4006 	.byte #0x97,#0x07	; 1943
      0012DC 7D 07                 4007 	.byte #0x7D,#0x07	; 1917
      0012DE 08 03                 4008 	.byte #0x08,#0x03	; 776
      0012E0 F9 01                 4009 	.byte #0xF9,#0x01	; 505
      0012E2 8C 05                 4010 	.byte #0x8C,#0x05	; 1420
      0012E4 66 05                 4011 	.byte #0x66,#0x05	; 1382
      0012E6 13 01                 4012 	.byte #0x13,#0x01	; 275
      0012E8 B2 04                 4013 	.byte #0xB2,#0x04	; 1202
      0012EA C7 00                 4014 	.byte #0xC7,#0x00	; 199
      0012EC 2D 00                 4015 	.byte #0x2D,#0x00	; 45
      0012EE 58 04                 4016 	.byte #0x58,#0x04	; 1112
      0012F0 1A 07                 4017 	.byte #0x1A,#0x07	; 1818
      0012F2 6F 03                 4018 	.byte #0x6F,#0x03	; 879
      0012F4 85 03                 4019 	.byte #0x85,#0x03	; 901
      0012F6 F0 07                 4020 	.byte #0xF0,#0x07	; 2032
      0012F8 51 02                 4021 	.byte #0x51,#0x02	; 593
      0012FA 24 06                 4022 	.byte #0x24,#0x06	; 1572
      0012FC CE 06                 4023 	.byte #0xCE,#0x06	; 1742
      0012FE BB 02                 4024 	.byte #0xBB,#0x02	; 699
      001300 0D 04                 4025 	.byte #0x0D,#0x04	; 1037
      001302 78 00                 4026 	.byte #0x78,#0x00	; 120
      001304 92 00                 4027 	.byte #0x92,#0x00	; 146
      001306 E7 04                 4028 	.byte #0xE7,#0x04	; 1255
      001308 46 01                 4029 	.byte #0x46,#0x01	; 326
      00130A 33 05                 4030 	.byte #0x33,#0x05	; 1331
      00130C D9 05                 4031 	.byte #0xD9,#0x05	; 1497
      00130E AC 01                 4032 	.byte #0xAC,#0x01	; 428
      001310 EE 02                 4033 	.byte #0xEE,#0x02	; 750
      001312 9B 06                 4034 	.byte #0x9B,#0x06	; 1691
      001314 71 06                 4035 	.byte #0x71,#0x06	; 1649
      001316 04 02                 4036 	.byte #0x04,#0x02	; 516
      001318 A5 07                 4037 	.byte #0xA5,#0x07	; 1957
      00131A D0 03                 4038 	.byte #0xD0,#0x03	; 976
      00131C 3A 03                 4039 	.byte #0x3A,#0x03	; 826
      00131E 4F 07                 4040 	.byte #0x4F,#0x07	; 1871
      001320 BE 05                 4041 	.byte #0xBE,#0x05	; 1470
      001322 CB 01                 4042 	.byte #0xCB,#0x01	; 459
      001324 21 01                 4043 	.byte #0x21,#0x01	; 289
      001326 54 05                 4044 	.byte #0x54,#0x05	; 1364
      001328 F5 00                 4045 	.byte #0xF5,#0x00	; 245
      00132A 80 04                 4046 	.byte #0x80,#0x04	; 1152
      00132C 6A 04                 4047 	.byte #0x6A,#0x04	; 1130
      00132E 1F 00                 4048 	.byte #0x1F,#0x00	; 31
      001330 5D 03                 4049 	.byte #0x5D,#0x03	; 861
      001332 28 07                 4050 	.byte #0x28,#0x07	; 1832
      001334 C2 07                 4051 	.byte #0xC2,#0x07	; 1986
      001336 B7 03                 4052 	.byte #0xB7,#0x03	; 951
      001338 16 06                 4053 	.byte #0x16,#0x06	; 1558
      00133A 63 02                 4054 	.byte #0x63,#0x02	; 611
      00133C 89 02                 4055 	.byte #0x89,#0x02	; 649
      00133E FC 06                 4056 	.byte #0xFC,#0x06	; 1788
      001340 6B 07                 4057 	.byte #0x6B,#0x07	; 1899
      001342 1E 03                 4058 	.byte #0x1E,#0x03	; 798
      001344 F4 03                 4059 	.byte #0xF4,#0x03	; 1012
      001346 81 07                 4060 	.byte #0x81,#0x07	; 1921
      001348 20 02                 4061 	.byte #0x20,#0x02	; 544
      00134A 55 06                 4062 	.byte #0x55,#0x06	; 1621
      00134C BF 06                 4063 	.byte #0xBF,#0x06	; 1727
      00134E CA 02                 4064 	.byte #0xCA,#0x02	; 714
      001350 88 01                 4065 	.byte #0x88,#0x01	; 392
      001352 FD 05                 4066 	.byte #0xFD,#0x05	; 1533
      001354 17 05                 4067 	.byte #0x17,#0x05	; 1303
      001356 62 01                 4068 	.byte #0x62,#0x01	; 354
      001358 C3 04                 4069 	.byte #0xC3,#0x04	; 1219
      00135A B6 00                 4070 	.byte #0xB6,#0x00	; 182
      00135C 5C 00                 4071 	.byte #0x5C,#0x00	; 92
      00135E 29 04                 4072 	.byte #0x29,#0x04	; 1065
      001360 D8 06                 4073 	.byte #0xD8,#0x06	; 1752
      001362 AD 02                 4074 	.byte #0xAD,#0x02	; 685
      001364 47 02                 4075 	.byte #0x47,#0x02	; 583
      001366 32 06                 4076 	.byte #0x32,#0x06	; 1586
      001368 93 03                 4077 	.byte #0x93,#0x03	; 915
      00136A E6 07                 4078 	.byte #0xE6,#0x07	; 2022
      00136C 0C 07                 4079 	.byte #0x0C,#0x07	; 1804
      00136E 79 03                 4080 	.byte #0x79,#0x03	; 889
      001370 3B 00                 4081 	.byte #0x3B,#0x00	; 59
      001372 4E 04                 4082 	.byte #0x4E,#0x04	; 1102
      001374 A4 04                 4083 	.byte #0xA4,#0x04	; 1188
      001376 D1 00                 4084 	.byte #0xD1,#0x00	; 209
      001378 70 05                 4085 	.byte #0x70,#0x05	; 1392
      00137A 05 01                 4086 	.byte #0x05,#0x01	; 261
      00137C EF 01                 4087 	.byte #0xEF,#0x01	; 495
      00137E 9A 05                 4088 	.byte #0x9A,#0x05	; 1434
      001380 C1 02                 4089 	.byte #0xC1,#0x02	; 705
      001382 B4 06                 4090 	.byte #0xB4,#0x06	; 1716
      001384 5E 06                 4091 	.byte #0x5E,#0x06	; 1630
      001386 2B 02                 4092 	.byte #0x2B,#0x02	; 555
      001388 8A 07                 4093 	.byte #0x8A,#0x07	; 1930
      00138A FF 03                 4094 	.byte #0xFF,#0x03	; 1023
      00138C 15 03                 4095 	.byte #0x15,#0x03	; 789
      00138E 60 07                 4096 	.byte #0x60,#0x07	; 1888
      001390 22 04                 4097 	.byte #0x22,#0x04	; 1058
      001392 57 00                 4098 	.byte #0x57,#0x00	; 87
      001394 BD 00                 4099 	.byte #0xBD,#0x00	; 189
      001396 C8 04                 4100 	.byte #0xC8,#0x04	; 1224
      001398 69 01                 4101 	.byte #0x69,#0x01	; 361
      00139A 1C 05                 4102 	.byte #0x1C,#0x05	; 1308
      00139C F6 05                 4103 	.byte #0xF6,#0x05	; 1526
      00139E 83 01                 4104 	.byte #0x83,#0x01	; 387
      0013A0 72 03                 4105 	.byte #0x72,#0x03	; 882
      0013A2 07 07                 4106 	.byte #0x07,#0x07	; 1799
      0013A4 ED 07                 4107 	.byte #0xED,#0x07	; 2029
      0013A6 98 03                 4108 	.byte #0x98,#0x03	; 920
      0013A8 39 06                 4109 	.byte #0x39,#0x06	; 1593
      0013AA 4C 02                 4110 	.byte #0x4C,#0x02	; 588
      0013AC A6 02                 4111 	.byte #0xA6,#0x02	; 678
      0013AE D3 06                 4112 	.byte #0xD3,#0x06	; 1747
      0013B0 91 05                 4113 	.byte #0x91,#0x05	; 1425
      0013B2 E4 01                 4114 	.byte #0xE4,#0x01	; 484
      0013B4 0E 01                 4115 	.byte #0x0E,#0x01	; 270
      0013B6 7B 05                 4116 	.byte #0x7B,#0x05	; 1403
      0013B8 DA 00                 4117 	.byte #0xDA,#0x00	; 218
      0013BA AF 04                 4118 	.byte #0xAF,#0x04	; 1199
      0013BC 45 04                 4119 	.byte #0x45,#0x04	; 1093
      0013BE 30 00                 4120 	.byte #0x30,#0x00	; 48
      0013C0 A7 01                 4121 	.byte #0xA7,#0x01	; 423
      0013C2 D2 05                 4122 	.byte #0xD2,#0x05	; 1490
      0013C4 38 05                 4123 	.byte #0x38,#0x05	; 1336
      0013C6 4D 01                 4124 	.byte #0x4D,#0x01	; 333
      0013C8 EC 04                 4125 	.byte #0xEC,#0x04	; 1260
      0013CA 99 00                 4126 	.byte #0x99,#0x00	; 153
      0013CC 73 00                 4127 	.byte #0x73,#0x00	; 115
      0013CE 06 04                 4128 	.byte #0x06,#0x04	; 1030
      0013D0 44 07                 4129 	.byte #0x44,#0x07	; 1860
      0013D2 31 03                 4130 	.byte #0x31,#0x03	; 817
      0013D4 DB 03                 4131 	.byte #0xDB,#0x03	; 987
      0013D6 AE 07                 4132 	.byte #0xAE,#0x07	; 1966
      0013D8 0F 02                 4133 	.byte #0x0F,#0x02	; 527
      0013DA 7A 06                 4134 	.byte #0x7A,#0x06	; 1658
      0013DC 90 06                 4135 	.byte #0x90,#0x06	; 1680
      0013DE E5 02                 4136 	.byte #0xE5,#0x02	; 741
      0013E0 14 00                 4137 	.byte #0x14,#0x00	; 20
      0013E2 61 04                 4138 	.byte #0x61,#0x04	; 1121
      0013E4 8B 04                 4139 	.byte #0x8B,#0x04	; 1163
      0013E6 FE 00                 4140 	.byte #0xFE,#0x00	; 254
      0013E8 5F 05                 4141 	.byte #0x5F,#0x05	; 1375
      0013EA 2A 01                 4142 	.byte #0x2A,#0x01	; 298
      0013EC C0 01                 4143 	.byte #0xC0,#0x01	; 448
      0013EE B5 05                 4144 	.byte #0xB5,#0x05	; 1461
      0013F0 F7 06                 4145 	.byte #0xF7,#0x06	; 1783
      0013F2 82 02                 4146 	.byte #0x82,#0x02	; 642
      0013F4 68 02                 4147 	.byte #0x68,#0x02	; 616
      0013F6 1D 06                 4148 	.byte #0x1D,#0x06	; 1565
      0013F8 BC 03                 4149 	.byte #0xBC,#0x03	; 956
      0013FA C9 07                 4150 	.byte #0xC9,#0x07	; 1993
      0013FC 23 07                 4151 	.byte #0x23,#0x07	; 1827
      0013FE 56 03                 4152 	.byte #0x56,#0x03	; 854
      001400 8E 01                 4153 	.byte #0x8E,#0x01	; 398
      001402 FB 05                 4154 	.byte #0xFB,#0x05	; 1531
      001404 11 05                 4155 	.byte #0x11,#0x05	; 1297
      001406 64 01                 4156 	.byte #0x64,#0x01	; 356
      001408 C5 04                 4157 	.byte #0xC5,#0x04	; 1221
      00140A B0 00                 4158 	.byte #0xB0,#0x00	; 176
      00140C 5A 00                 4159 	.byte #0x5A,#0x00	; 90
      00140E 2F 04                 4160 	.byte #0x2F,#0x04	; 1071
      001410 6D 07                 4161 	.byte #0x6D,#0x07	; 1901
      001412 18 03                 4162 	.byte #0x18,#0x03	; 792
      001414 F2 03                 4163 	.byte #0xF2,#0x03	; 1010
      001416 87 07                 4164 	.byte #0x87,#0x07	; 1927
      001418 26 02                 4165 	.byte #0x26,#0x02	; 550
      00141A 53 06                 4166 	.byte #0x53,#0x06	; 1619
      00141C B9 06                 4167 	.byte #0xB9,#0x06	; 1721
      00141E CC 02                 4168 	.byte #0xCC,#0x02	; 716
      001420 3D 00                 4169 	.byte #0x3D,#0x00	; 61
      001422 48 04                 4170 	.byte #0x48,#0x04	; 1096
      001424 A2 04                 4171 	.byte #0xA2,#0x04	; 1186
      001426 D7 00                 4172 	.byte #0xD7,#0x00	; 215
      001428 76 05                 4173 	.byte #0x76,#0x05	; 1398
      00142A 03 01                 4174 	.byte #0x03,#0x01	; 259
      00142C E9 01                 4175 	.byte #0xE9,#0x01	; 489
      00142E 9C 05                 4176 	.byte #0x9C,#0x05	; 1436
      001430 DE 06                 4177 	.byte #0xDE,#0x06	; 1758
      001432 AB 02                 4178 	.byte #0xAB,#0x02	; 683
      001434 41 02                 4179 	.byte #0x41,#0x02	; 577
      001436 34 06                 4180 	.byte #0x34,#0x06	; 1588
      001438 95 03                 4181 	.byte #0x95,#0x03	; 917
      00143A E0 07                 4182 	.byte #0xE0,#0x07	; 2016
      00143C 0A 07                 4183 	.byte #0x0A,#0x07	; 1802
      00143E 7F 03                 4184 	.byte #0x7F,#0x03	; 895
      001440 E8 02                 4185 	.byte #0xE8,#0x02	; 744
      001442 9D 06                 4186 	.byte #0x9D,#0x06	; 1693
      001444 77 06                 4187 	.byte #0x77,#0x06	; 1655
      001446 02 02                 4188 	.byte #0x02,#0x02	; 514
      001448 A3 07                 4189 	.byte #0xA3,#0x07	; 1955
      00144A D6 03                 4190 	.byte #0xD6,#0x03	; 982
      00144C 3C 03                 4191 	.byte #0x3C,#0x03	; 828
      00144E 49 07                 4192 	.byte #0x49,#0x07	; 1865
      001450 0B 04                 4193 	.byte #0x0B,#0x04	; 1035
      001452 7E 00                 4194 	.byte #0x7E,#0x00	; 126
      001454 94 00                 4195 	.byte #0x94,#0x00	; 148
      001456 E1 04                 4196 	.byte #0xE1,#0x04	; 1249
      001458 40 01                 4197 	.byte #0x40,#0x01	; 320
      00145A 35 05                 4198 	.byte #0x35,#0x05	; 1333
      00145C DF 05                 4199 	.byte #0xDF,#0x05	; 1503
      00145E AA 01                 4200 	.byte #0xAA,#0x01	; 426
      001460 5B 03                 4201 	.byte #0x5B,#0x03	; 859
      001462 2E 07                 4202 	.byte #0x2E,#0x07	; 1838
      001464 C4 07                 4203 	.byte #0xC4,#0x07	; 1988
      001466 B1 03                 4204 	.byte #0xB1,#0x03	; 945
      001468 10 06                 4205 	.byte #0x10,#0x06	; 1552
      00146A 65 02                 4206 	.byte #0x65,#0x02	; 613
      00146C 8F 02                 4207 	.byte #0x8F,#0x02	; 655
      00146E FA 06                 4208 	.byte #0xFA,#0x06	; 1786
      001470 B8 05                 4209 	.byte #0xB8,#0x05	; 1464
      001472 CD 01                 4210 	.byte #0xCD,#0x01	; 461
      001474 27 01                 4211 	.byte #0x27,#0x01	; 295
      001476 52 05                 4212 	.byte #0x52,#0x05	; 1362
      001478 F3 00                 4213 	.byte #0xF3,#0x00	; 243
      00147A 86 04                 4214 	.byte #0x86,#0x04	; 1158
      00147C 6C 04                 4215 	.byte #0x6C,#0x04	; 1132
      00147E 19 00                 4216 	.byte #0x19,#0x00	; 25
      001480 42 07                 4217 	.byte #0x42,#0x07	; 1858
      001482 37 03                 4218 	.byte #0x37,#0x03	; 823
      001484 DD 03                 4219 	.byte #0xDD,#0x03	; 989
      001486 A8 07                 4220 	.byte #0xA8,#0x07	; 1960
      001488 09 02                 4221 	.byte #0x09,#0x02	; 521
      00148A 7C 06                 4222 	.byte #0x7C,#0x06	; 1660
      00148C 96 06                 4223 	.byte #0x96,#0x06	; 1686
      00148E E3 02                 4224 	.byte #0xE3,#0x02	; 739
      001490 A1 01                 4225 	.byte #0xA1,#0x01	; 417
      001492 D4 05                 4226 	.byte #0xD4,#0x05	; 1492
      001494 3E 05                 4227 	.byte #0x3E,#0x05	; 1342
      001496 4B 01                 4228 	.byte #0x4B,#0x01	; 331
      001498 EA 04                 4229 	.byte #0xEA,#0x04	; 1258
      00149A 9F 00                 4230 	.byte #0x9F,#0x00	; 159
      00149C 75 00                 4231 	.byte #0x75,#0x00	; 117
      00149E 00 04                 4232 	.byte #0x00,#0x04	; 1024
      0014A0 F1 06                 4233 	.byte #0xF1,#0x06	; 1777
      0014A2 84 02                 4234 	.byte #0x84,#0x02	; 644
      0014A4 6E 02                 4235 	.byte #0x6E,#0x02	; 622
      0014A6 1B 06                 4236 	.byte #0x1B,#0x06	; 1563
      0014A8 BA 03                 4237 	.byte #0xBA,#0x03	; 954
      0014AA CF 07                 4238 	.byte #0xCF,#0x07	; 1999
      0014AC 25 07                 4239 	.byte #0x25,#0x07	; 1829
      0014AE 50 03                 4240 	.byte #0x50,#0x03	; 848
      0014B0 12 00                 4241 	.byte #0x12,#0x00	; 18
      0014B2 67 04                 4242 	.byte #0x67,#0x04	; 1127
      0014B4 8D 04                 4243 	.byte #0x8D,#0x04	; 1165
      0014B6 F8 00                 4244 	.byte #0xF8,#0x00	; 248
      0014B8 59 05                 4245 	.byte #0x59,#0x05	; 1369
      0014BA 2C 01                 4246 	.byte #0x2C,#0x01	; 300
      0014BC C6 01                 4247 	.byte #0xC6,#0x01	; 454
      0014BE B3 05                 4248 	.byte #0xB3,#0x05	; 1459
      0014C0 24 04                 4249 	.byte #0x24,#0x04	; 1060
      0014C2 51 00                 4250 	.byte #0x51,#0x00	; 81
      0014C4 BB 00                 4251 	.byte #0xBB,#0x00	; 187
      0014C6 CE 04                 4252 	.byte #0xCE,#0x04	; 1230
      0014C8 6F 01                 4253 	.byte #0x6F,#0x01	; 367
      0014CA 1A 05                 4254 	.byte #0x1A,#0x05	; 1306
      0014CC F0 05                 4255 	.byte #0xF0,#0x05	; 1520
      0014CE 85 01                 4256 	.byte #0x85,#0x01	; 389
      0014D0 C7 02                 4257 	.byte #0xC7,#0x02	; 711
      0014D2 B2 06                 4258 	.byte #0xB2,#0x06	; 1714
      0014D4 58 06                 4259 	.byte #0x58,#0x06	; 1624
      0014D6 2D 02                 4260 	.byte #0x2D,#0x02	; 557
      0014D8 8C 07                 4261 	.byte #0x8C,#0x07	; 1932
      0014DA F9 03                 4262 	.byte #0xF9,#0x03	; 1017
      0014DC 13 03                 4263 	.byte #0x13,#0x03	; 787
      0014DE 66 07                 4264 	.byte #0x66,#0x07	; 1894
      0014E0 97 05                 4265 	.byte #0x97,#0x05	; 1431
      0014E2 E2 01                 4266 	.byte #0xE2,#0x01	; 482
      0014E4 08 01                 4267 	.byte #0x08,#0x01	; 264
      0014E6 7D 05                 4268 	.byte #0x7D,#0x05	; 1405
      0014E8 DC 00                 4269 	.byte #0xDC,#0x00	; 220
      0014EA A9 04                 4270 	.byte #0xA9,#0x04	; 1193
      0014EC 43 04                 4271 	.byte #0x43,#0x04	; 1091
      0014EE 36 00                 4272 	.byte #0x36,#0x00	; 54
      0014F0 74 03                 4273 	.byte #0x74,#0x03	; 884
      0014F2 01 07                 4274 	.byte #0x01,#0x07	; 1793
      0014F4 EB 07                 4275 	.byte #0xEB,#0x07	; 2027
      0014F6 9E 03                 4276 	.byte #0x9E,#0x03	; 926
      0014F8 3F 06                 4277 	.byte #0x3F,#0x06	; 1599
      0014FA 4A 02                 4278 	.byte #0x4A,#0x02	; 586
      0014FC A0 02                 4279 	.byte #0xA0,#0x02	; 672
      0014FE D5 06                 4280 	.byte #0xD5,#0x06	; 1749
      001500 63 00                 4281 	.byte #0x63,#0x00	; 99
      001502 16 04                 4282 	.byte #0x16,#0x04	; 1046
      001504 FC 04                 4283 	.byte #0xFC,#0x04	; 1276
      001506 89 00                 4284 	.byte #0x89,#0x00	; 137
      001508 28 05                 4285 	.byte #0x28,#0x05	; 1320
      00150A 5D 01                 4286 	.byte #0x5D,#0x01	; 349
      00150C B7 01                 4287 	.byte #0xB7,#0x01	; 439
      00150E C2 05                 4288 	.byte #0xC2,#0x05	; 1474
      001510 80 06                 4289 	.byte #0x80,#0x06	; 1664
      001512 F5 02                 4290 	.byte #0xF5,#0x02	; 757
      001514 1F 02                 4291 	.byte #0x1F,#0x02	; 543
      001516 6A 06                 4292 	.byte #0x6A,#0x06	; 1642
      001518 CB 03                 4293 	.byte #0xCB,#0x03	; 971
      00151A BE 07                 4294 	.byte #0xBE,#0x07	; 1982
      00151C 54 07                 4295 	.byte #0x54,#0x07	; 1876
      00151E 21 03                 4296 	.byte #0x21,#0x03	; 801
      001520 D0 01                 4297 	.byte #0xD0,#0x01	; 464
      001522 A5 05                 4298 	.byte #0xA5,#0x05	; 1445
      001524 4F 05                 4299 	.byte #0x4F,#0x05	; 1359
      001526 3A 01                 4300 	.byte #0x3A,#0x01	; 314
      001528 9B 04                 4301 	.byte #0x9B,#0x04	; 1179
      00152A EE 00                 4302 	.byte #0xEE,#0x00	; 238
      00152C 04 00                 4303 	.byte #0x04,#0x00	; 4
      00152E 71 04                 4304 	.byte #0x71,#0x04	; 1137
      001530 33 07                 4305 	.byte #0x33,#0x07	; 1843
      001532 46 03                 4306 	.byte #0x46,#0x03	; 838
      001534 AC 03                 4307 	.byte #0xAC,#0x03	; 940
      001536 D9 07                 4308 	.byte #0xD9,#0x07	; 2009
      001538 78 02                 4309 	.byte #0x78,#0x02	; 632
      00153A 0D 06                 4310 	.byte #0x0D,#0x06	; 1549
      00153C E7 06                 4311 	.byte #0xE7,#0x06	; 1767
      00153E 92 02                 4312 	.byte #0x92,#0x02	; 658
      001540 05 03                 4313 	.byte #0x05,#0x03	; 773
      001542 70 07                 4314 	.byte #0x70,#0x07	; 1904
      001544 9A 07                 4315 	.byte #0x9A,#0x07	; 1946
      001546 EF 03                 4316 	.byte #0xEF,#0x03	; 1007
      001548 4E 06                 4317 	.byte #0x4E,#0x06	; 1614
      00154A 3B 02                 4318 	.byte #0x3B,#0x02	; 571
      00154C D1 02                 4319 	.byte #0xD1,#0x02	; 721
      00154E A4 06                 4320 	.byte #0xA4,#0x06	; 1700
      001550 E6 05                 4321 	.byte #0xE6,#0x05	; 1510
      001552 93 01                 4322 	.byte #0x93,#0x01	; 403
      001554 79 01                 4323 	.byte #0x79,#0x01	; 377
      001556 0C 05                 4324 	.byte #0x0C,#0x05	; 1292
      001558 AD 00                 4325 	.byte #0xAD,#0x00	; 173
      00155A D8 04                 4326 	.byte #0xD8,#0x04	; 1240
      00155C 32 04                 4327 	.byte #0x32,#0x04	; 1074
      00155E 47 00                 4328 	.byte #0x47,#0x00	; 71
      001560 B6 02                 4329 	.byte #0xB6,#0x02	; 694
      001562 C3 06                 4330 	.byte #0xC3,#0x06	; 1731
      001564 29 06                 4331 	.byte #0x29,#0x06	; 1577
      001566 5C 02                 4332 	.byte #0x5C,#0x02	; 604
      001568 FD 07                 4333 	.byte #0xFD,#0x07	; 2045
      00156A 88 03                 4334 	.byte #0x88,#0x03	; 904
      00156C 62 03                 4335 	.byte #0x62,#0x03	; 866
      00156E 17 07                 4336 	.byte #0x17,#0x07	; 1815
      001570 55 04                 4337 	.byte #0x55,#0x04	; 1109
      001572 20 00                 4338 	.byte #0x20,#0x00	; 32
      001574 CA 00                 4339 	.byte #0xCA,#0x00	; 202
      001576 BF 04                 4340 	.byte #0xBF,#0x04	; 1215
      001578 1E 01                 4341 	.byte #0x1E,#0x01	; 286
      00157A 6B 05                 4342 	.byte #0x6B,#0x05	; 1387
      00157C 81 05                 4343 	.byte #0x81,#0x05	; 1409
      00157E F4 01                 4344 	.byte #0xF4,#0x01	; 500
      001580 AF 06                 4345 	.byte #0xAF,#0x06	; 1711
      001582 DA 02                 4346 	.byte #0xDA,#0x02	; 730
      001584 30 02                 4347 	.byte #0x30,#0x02	; 560
      001586 45 06                 4348 	.byte #0x45,#0x06	; 1605
      001588 E4 03                 4349 	.byte #0xE4,#0x03	; 996
      00158A 91 07                 4350 	.byte #0x91,#0x07	; 1937
      00158C 7B 07                 4351 	.byte #0x7B,#0x07	; 1915
      00158E 0E 03                 4352 	.byte #0x0E,#0x03	; 782
      001590 4C 00                 4353 	.byte #0x4C,#0x00	; 76
      001592 39 04                 4354 	.byte #0x39,#0x04	; 1081
      001594 D3 04                 4355 	.byte #0xD3,#0x04	; 1235
      001596 A6 00                 4356 	.byte #0xA6,#0x00	; 166
      001598 07 05                 4357 	.byte #0x07,#0x05	; 1287
      00159A 72 01                 4358 	.byte #0x72,#0x01	; 370
      00159C 98 01                 4359 	.byte #0x98,#0x01	; 408
      00159E ED 05                 4360 	.byte #0xED,#0x05	; 1517
      0015A0 1C 07                 4361 	.byte #0x1C,#0x07	; 1820
      0015A2 69 03                 4362 	.byte #0x69,#0x03	; 873
      0015A4 83 03                 4363 	.byte #0x83,#0x03	; 899
      0015A6 F6 07                 4364 	.byte #0xF6,#0x07	; 2038
      0015A8 57 02                 4365 	.byte #0x57,#0x02	; 599
      0015AA 22 06                 4366 	.byte #0x22,#0x06	; 1570
      0015AC C8 06                 4367 	.byte #0xC8,#0x06	; 1736
      0015AE BD 02                 4368 	.byte #0xBD,#0x02	; 701
      0015B0 FF 01                 4369 	.byte #0xFF,#0x01	; 511
      0015B2 8A 05                 4370 	.byte #0x8A,#0x05	; 1418
      0015B4 60 05                 4371 	.byte #0x60,#0x05	; 1376
      0015B6 15 01                 4372 	.byte #0x15,#0x01	; 277
      0015B8 B4 04                 4373 	.byte #0xB4,#0x04	; 1204
      0015BA C1 00                 4374 	.byte #0xC1,#0x00	; 193
      0015BC 2B 00                 4375 	.byte #0x2B,#0x00	; 43
      0015BE 5E 04                 4376 	.byte #0x5E,#0x04	; 1118
      0015C0 C9 05                 4377 	.byte #0xC9,#0x05	; 1481
      0015C2 BC 01                 4378 	.byte #0xBC,#0x01	; 444
      0015C4 56 01                 4379 	.byte #0x56,#0x01	; 342
      0015C6 23 05                 4380 	.byte #0x23,#0x05	; 1315
      0015C8 82 00                 4381 	.byte #0x82,#0x00	; 130
      0015CA F7 04                 4382 	.byte #0xF7,#0x04	; 1271
      0015CC 1D 04                 4383 	.byte #0x1D,#0x04	; 1053
      0015CE 68 00                 4384 	.byte #0x68,#0x00	; 104
      0015D0 2A 03                 4385 	.byte #0x2A,#0x03	; 810
      0015D2 5F 07                 4386 	.byte #0x5F,#0x07	; 1887
      0015D4 B5 07                 4387 	.byte #0xB5,#0x07	; 1973
      0015D6 C0 03                 4388 	.byte #0xC0,#0x03	; 960
      0015D8 61 06                 4389 	.byte #0x61,#0x06	; 1633
      0015DA 14 02                 4390 	.byte #0x14,#0x02	; 532
      0015DC FE 02                 4391 	.byte #0xFE,#0x02	; 766
      0015DE 8B 06                 4392 	.byte #0x8B,#0x06	; 1675
      0015E0 7A 04                 4393 	.byte #0x7A,#0x04	; 1146
      0015E2 0F 00                 4394 	.byte #0x0F,#0x00	; 15
      0015E4 E5 00                 4395 	.byte #0xE5,#0x00	; 229
      0015E6 90 04                 4396 	.byte #0x90,#0x04	; 1168
      0015E8 31 01                 4397 	.byte #0x31,#0x01	; 305
      0015EA 44 05                 4398 	.byte #0x44,#0x05	; 1348
      0015EC AE 05                 4399 	.byte #0xAE,#0x05	; 1454
      0015EE DB 01                 4400 	.byte #0xDB,#0x01	; 475
      0015F0 99 02                 4401 	.byte #0x99,#0x02	; 665
      0015F2 EC 06                 4402 	.byte #0xEC,#0x06	; 1772
      0015F4 06 06                 4403 	.byte #0x06,#0x06	; 1542
      0015F6 73 02                 4404 	.byte #0x73,#0x02	; 627
      0015F8 D2 07                 4405 	.byte #0xD2,#0x07	; 2002
      0015FA A7 03                 4406 	.byte #0xA7,#0x03	; 935
      0015FC 4D 03                 4407 	.byte #0x4D,#0x03	; 845
      0015FE 38 07                 4408 	.byte #0x38,#0x07	; 1848
      001600 54 02                 4409 	.byte #0x54,#0x02	; 596
      001602 21 06                 4410 	.byte #0x21,#0x06	; 1569
      001604 CB 06                 4411 	.byte #0xCB,#0x06	; 1739
      001606 BE 02                 4412 	.byte #0xBE,#0x02	; 702
      001608 1F 07                 4413 	.byte #0x1F,#0x07	; 1823
      00160A 6A 03                 4414 	.byte #0x6A,#0x03	; 874
      00160C 80 03                 4415 	.byte #0x80,#0x03	; 896
      00160E F5 07                 4416 	.byte #0xF5,#0x07	; 2037
      001610 B7 04                 4417 	.byte #0xB7,#0x04	; 1207
      001612 C2 00                 4418 	.byte #0xC2,#0x00	; 194
      001614 28 00                 4419 	.byte #0x28,#0x00	; 40
      001616 5D 04                 4420 	.byte #0x5D,#0x04	; 1117
      001618 FC 01                 4421 	.byte #0xFC,#0x01	; 508
      00161A 89 05                 4422 	.byte #0x89,#0x05	; 1417
      00161C 63 05                 4423 	.byte #0x63,#0x05	; 1379
      00161E 16 01                 4424 	.byte #0x16,#0x01	; 278
      001620 E7 03                 4425 	.byte #0xE7,#0x03	; 999
      001622 92 07                 4426 	.byte #0x92,#0x07	; 1938
      001624 78 07                 4427 	.byte #0x78,#0x07	; 1912
      001626 0D 03                 4428 	.byte #0x0D,#0x03	; 781
      001628 AC 06                 4429 	.byte #0xAC,#0x06	; 1708
      00162A D9 02                 4430 	.byte #0xD9,#0x02	; 729
      00162C 33 02                 4431 	.byte #0x33,#0x02	; 563
      00162E 46 06                 4432 	.byte #0x46,#0x06	; 1606
      001630 04 05                 4433 	.byte #0x04,#0x05	; 1284
      001632 71 01                 4434 	.byte #0x71,#0x01	; 369
      001634 9B 01                 4435 	.byte #0x9B,#0x01	; 411
      001636 EE 05                 4436 	.byte #0xEE,#0x05	; 1518
      001638 4F 00                 4437 	.byte #0x4F,#0x00	; 79
      00163A 3A 04                 4438 	.byte #0x3A,#0x04	; 1082
      00163C D0 04                 4439 	.byte #0xD0,#0x04	; 1232
      00163E A5 00                 4440 	.byte #0xA5,#0x00	; 165
      001640 32 01                 4441 	.byte #0x32,#0x01	; 306
      001642 47 05                 4442 	.byte #0x47,#0x05	; 1351
      001644 AD 05                 4443 	.byte #0xAD,#0x05	; 1453
      001646 D8 01                 4444 	.byte #0xD8,#0x01	; 472
      001648 79 04                 4445 	.byte #0x79,#0x04	; 1145
      00164A 0C 00                 4446 	.byte #0x0C,#0x00	; 12
      00164C E6 00                 4447 	.byte #0xE6,#0x00	; 230
      00164E 93 04                 4448 	.byte #0x93,#0x04	; 1171
      001650 D1 07                 4449 	.byte #0xD1,#0x07	; 2001
      001652 A4 03                 4450 	.byte #0xA4,#0x03	; 932
      001654 4E 03                 4451 	.byte #0x4E,#0x03	; 846
      001656 3B 07                 4452 	.byte #0x3B,#0x07	; 1851
      001658 9A 02                 4453 	.byte #0x9A,#0x02	; 666
      00165A EF 06                 4454 	.byte #0xEF,#0x06	; 1775
      00165C 05 06                 4455 	.byte #0x05,#0x06	; 1541
      00165E 70 02                 4456 	.byte #0x70,#0x02	; 624
      001660 81 00                 4457 	.byte #0x81,#0x00	; 129
      001662 F4 04                 4458 	.byte #0xF4,#0x04	; 1268
      001664 1E 04                 4459 	.byte #0x1E,#0x04	; 1054
      001666 6B 00                 4460 	.byte #0x6B,#0x00	; 107
      001668 CA 05                 4461 	.byte #0xCA,#0x05	; 1482
      00166A BF 01                 4462 	.byte #0xBF,#0x01	; 447
      00166C 55 01                 4463 	.byte #0x55,#0x01	; 341
      00166E 20 05                 4464 	.byte #0x20,#0x05	; 1312
      001670 62 06                 4465 	.byte #0x62,#0x06	; 1634
      001672 17 02                 4466 	.byte #0x17,#0x02	; 535
      001674 FD 02                 4467 	.byte #0xFD,#0x02	; 765
      001676 88 06                 4468 	.byte #0x88,#0x06	; 1672
      001678 29 03                 4469 	.byte #0x29,#0x03	; 809
      00167A 5C 07                 4470 	.byte #0x5C,#0x07	; 1884
      00167C B6 07                 4471 	.byte #0xB6,#0x07	; 1974
      00167E C3 03                 4472 	.byte #0xC3,#0x03	; 963
      001680 98 04                 4473 	.byte #0x98,#0x04	; 1176
      001682 ED 00                 4474 	.byte #0xED,#0x00	; 237
      001684 07 00                 4475 	.byte #0x07,#0x00	; 7
      001686 72 04                 4476 	.byte #0x72,#0x04	; 1138
      001688 D3 01                 4477 	.byte #0xD3,#0x01	; 467
      00168A A6 05                 4478 	.byte #0xA6,#0x05	; 1446
      00168C 4C 05                 4479 	.byte #0x4C,#0x05	; 1356
      00168E 39 01                 4480 	.byte #0x39,#0x01	; 313
      001690 7B 02                 4481 	.byte #0x7B,#0x02	; 635
      001692 0E 06                 4482 	.byte #0x0E,#0x06	; 1550
      001694 E4 06                 4483 	.byte #0xE4,#0x06	; 1764
      001696 91 02                 4484 	.byte #0x91,#0x02	; 657
      001698 30 07                 4485 	.byte #0x30,#0x07	; 1840
      00169A 45 03                 4486 	.byte #0x45,#0x03	; 837
      00169C AF 03                 4487 	.byte #0xAF,#0x03	; 943
      00169E DA 07                 4488 	.byte #0xDA,#0x07	; 2010
      0016A0 2B 05                 4489 	.byte #0x2B,#0x05	; 1323
      0016A2 5E 01                 4490 	.byte #0x5E,#0x01	; 350
      0016A4 B4 01                 4491 	.byte #0xB4,#0x01	; 436
      0016A6 C1 05                 4492 	.byte #0xC1,#0x05	; 1473
      0016A8 60 00                 4493 	.byte #0x60,#0x00	; 96
      0016AA 15 04                 4494 	.byte #0x15,#0x04	; 1045
      0016AC FF 04                 4495 	.byte #0xFF,#0x04	; 1279
      0016AE 8A 00                 4496 	.byte #0x8A,#0x00	; 138
      0016B0 C8 03                 4497 	.byte #0xC8,#0x03	; 968
      0016B2 BD 07                 4498 	.byte #0xBD,#0x07	; 1981
      0016B4 57 07                 4499 	.byte #0x57,#0x07	; 1879
      0016B6 22 03                 4500 	.byte #0x22,#0x03	; 802
      0016B8 83 06                 4501 	.byte #0x83,#0x06	; 1667
      0016BA F6 02                 4502 	.byte #0xF6,#0x02	; 758
      0016BC 1C 02                 4503 	.byte #0x1C,#0x02	; 540
      0016BE 69 06                 4504 	.byte #0x69,#0x06	; 1641
      0016C0 FE 07                 4505 	.byte #0xFE,#0x07	; 2046
      0016C2 8B 03                 4506 	.byte #0x8B,#0x03	; 907
      0016C4 61 03                 4507 	.byte #0x61,#0x03	; 865
      0016C6 14 07                 4508 	.byte #0x14,#0x07	; 1812
      0016C8 B5 02                 4509 	.byte #0xB5,#0x02	; 693
      0016CA C0 06                 4510 	.byte #0xC0,#0x06	; 1728
      0016CC 2A 06                 4511 	.byte #0x2A,#0x06	; 1578
      0016CE 5F 02                 4512 	.byte #0x5F,#0x02	; 607
      0016D0 1D 01                 4513 	.byte #0x1D,#0x01	; 285
      0016D2 68 05                 4514 	.byte #0x68,#0x05	; 1384
      0016D4 82 05                 4515 	.byte #0x82,#0x05	; 1410
      0016D6 F7 01                 4516 	.byte #0xF7,#0x01	; 503
      0016D8 56 04                 4517 	.byte #0x56,#0x04	; 1110
      0016DA 23 00                 4518 	.byte #0x23,#0x00	; 35
      0016DC C9 00                 4519 	.byte #0xC9,#0x00	; 201
      0016DE BC 04                 4520 	.byte #0xBC,#0x04	; 1212
      0016E0 4D 06                 4521 	.byte #0x4D,#0x06	; 1613
      0016E2 38 02                 4522 	.byte #0x38,#0x02	; 568
      0016E4 D2 02                 4523 	.byte #0xD2,#0x02	; 722
      0016E6 A7 06                 4524 	.byte #0xA7,#0x06	; 1703
      0016E8 06 03                 4525 	.byte #0x06,#0x03	; 774
      0016EA 73 07                 4526 	.byte #0x73,#0x07	; 1907
      0016EC 99 07                 4527 	.byte #0x99,#0x07	; 1945
      0016EE EC 03                 4528 	.byte #0xEC,#0x03	; 1004
      0016F0 AE 00                 4529 	.byte #0xAE,#0x00	; 174
      0016F2 DB 04                 4530 	.byte #0xDB,#0x04	; 1243
      0016F4 31 04                 4531 	.byte #0x31,#0x04	; 1073
      0016F6 44 00                 4532 	.byte #0x44,#0x00	; 68
      0016F8 E5 05                 4533 	.byte #0xE5,#0x05	; 1509
      0016FA 90 01                 4534 	.byte #0x90,#0x01	; 400
      0016FC 7A 01                 4535 	.byte #0x7A,#0x01	; 378
      0016FE 0F 05                 4536 	.byte #0x0F,#0x05	; 1295
      001700 B9 03                 4537 	.byte #0xB9,#0x03	; 953
      001702 CC 07                 4538 	.byte #0xCC,#0x07	; 1996
      001704 26 07                 4539 	.byte #0x26,#0x07	; 1830
      001706 53 03                 4540 	.byte #0x53,#0x03	; 851
      001708 F2 06                 4541 	.byte #0xF2,#0x06	; 1778
      00170A 87 02                 4542 	.byte #0x87,#0x02	; 647
      00170C 6D 02                 4543 	.byte #0x6D,#0x02	; 621
      00170E 18 06                 4544 	.byte #0x18,#0x06	; 1560
      001710 5A 05                 4545 	.byte #0x5A,#0x05	; 1370
      001712 2F 01                 4546 	.byte #0x2F,#0x01	; 303
      001714 C5 01                 4547 	.byte #0xC5,#0x01	; 453
      001716 B0 05                 4548 	.byte #0xB0,#0x05	; 1456
      001718 11 00                 4549 	.byte #0x11,#0x00	; 17
      00171A 64 04                 4550 	.byte #0x64,#0x04	; 1124
      00171C 8E 04                 4551 	.byte #0x8E,#0x04	; 1166
      00171E FB 00                 4552 	.byte #0xFB,#0x00	; 251
      001720 0A 02                 4553 	.byte #0x0A,#0x02	; 522
      001722 7F 06                 4554 	.byte #0x7F,#0x06	; 1663
      001724 95 06                 4555 	.byte #0x95,#0x06	; 1685
      001726 E0 02                 4556 	.byte #0xE0,#0x02	; 736
      001728 41 07                 4557 	.byte #0x41,#0x07	; 1857
      00172A 34 03                 4558 	.byte #0x34,#0x03	; 820
      00172C DE 03                 4559 	.byte #0xDE,#0x03	; 990
      00172E AB 07                 4560 	.byte #0xAB,#0x07	; 1963
      001730 E9 04                 4561 	.byte #0xE9,#0x04	; 1257
      001732 9C 00                 4562 	.byte #0x9C,#0x00	; 156
      001734 76 00                 4563 	.byte #0x76,#0x00	; 118
      001736 03 04                 4564 	.byte #0x03,#0x04	; 1027
      001738 A2 01                 4565 	.byte #0xA2,#0x01	; 418
      00173A D7 05                 4566 	.byte #0xD7,#0x05	; 1495
      00173C 3D 05                 4567 	.byte #0x3D,#0x05	; 1341
      00173E 48 01                 4568 	.byte #0x48,#0x01	; 328
      001740 DF 00                 4569 	.byte #0xDF,#0x00	; 223
      001742 AA 04                 4570 	.byte #0xAA,#0x04	; 1194
      001744 40 04                 4571 	.byte #0x40,#0x04	; 1088
      001746 35 00                 4572 	.byte #0x35,#0x00	; 53
      001748 94 05                 4573 	.byte #0x94,#0x05	; 1428
      00174A E1 01                 4574 	.byte #0xE1,#0x01	; 481
      00174C 0B 01                 4575 	.byte #0x0B,#0x01	; 267
      00174E 7E 05                 4576 	.byte #0x7E,#0x05	; 1406
      001750 3C 06                 4577 	.byte #0x3C,#0x06	; 1596
      001752 49 02                 4578 	.byte #0x49,#0x02	; 585
      001754 A3 02                 4579 	.byte #0xA3,#0x02	; 675
      001756 D6 06                 4580 	.byte #0xD6,#0x06	; 1750
      001758 77 03                 4581 	.byte #0x77,#0x03	; 887
      00175A 02 07                 4582 	.byte #0x02,#0x07	; 1794
      00175C E8 07                 4583 	.byte #0xE8,#0x07	; 2024
      00175E 9D 03                 4584 	.byte #0x9D,#0x03	; 925
      001760 6C 01                 4585 	.byte #0x6C,#0x01	; 364
      001762 19 05                 4586 	.byte #0x19,#0x05	; 1305
      001764 F3 05                 4587 	.byte #0xF3,#0x05	; 1523
      001766 86 01                 4588 	.byte #0x86,#0x01	; 390
      001768 27 04                 4589 	.byte #0x27,#0x04	; 1063
      00176A 52 00                 4590 	.byte #0x52,#0x00	; 82
      00176C B8 00                 4591 	.byte #0xB8,#0x00	; 184
      00176E CD 04                 4592 	.byte #0xCD,#0x04	; 1229
      001770 8F 07                 4593 	.byte #0x8F,#0x07	; 1935
      001772 FA 03                 4594 	.byte #0xFA,#0x03	; 1018
      001774 10 03                 4595 	.byte #0x10,#0x03	; 784
      001776 65 07                 4596 	.byte #0x65,#0x07	; 1893
      001778 C4 02                 4597 	.byte #0xC4,#0x02	; 708
      00177A B1 06                 4598 	.byte #0xB1,#0x06	; 1713
      00177C 5B 06                 4599 	.byte #0x5B,#0x06	; 1627
      00177E 2E 02                 4600 	.byte #0x2E,#0x02	; 558
      001780 75 05                 4601 	.byte #0x75,#0x05	; 1397
      001782 00 01                 4602 	.byte #0x00,#0x01	; 256
      001784 EA 01                 4603 	.byte #0xEA,#0x01	; 490
      001786 9F 05                 4604 	.byte #0x9F,#0x05	; 1439
      001788 3E 00                 4605 	.byte #0x3E,#0x00	; 62
      00178A 4B 04                 4606 	.byte #0x4B,#0x04	; 1099
      00178C A1 04                 4607 	.byte #0xA1,#0x04	; 1185
      00178E D4 00                 4608 	.byte #0xD4,#0x00	; 212
      001790 96 03                 4609 	.byte #0x96,#0x03	; 918
      001792 E3 07                 4610 	.byte #0xE3,#0x07	; 2019
      001794 09 07                 4611 	.byte #0x09,#0x07	; 1801
      001796 7C 03                 4612 	.byte #0x7C,#0x03	; 892
      001798 DD 06                 4613 	.byte #0xDD,#0x06	; 1757
      00179A A8 02                 4614 	.byte #0xA8,#0x02	; 680
      00179C 42 02                 4615 	.byte #0x42,#0x02	; 578
      00179E 37 06                 4616 	.byte #0x37,#0x06	; 1591
      0017A0 C6 04                 4617 	.byte #0xC6,#0x04	; 1222
      0017A2 B3 00                 4618 	.byte #0xB3,#0x00	; 179
      0017A4 59 00                 4619 	.byte #0x59,#0x00	; 89
      0017A6 2C 04                 4620 	.byte #0x2C,#0x04	; 1068
      0017A8 8D 01                 4621 	.byte #0x8D,#0x01	; 397
      0017AA F8 05                 4622 	.byte #0xF8,#0x05	; 1528
      0017AC 12 05                 4623 	.byte #0x12,#0x05	; 1298
      0017AE 67 01                 4624 	.byte #0x67,#0x01	; 359
      0017B0 25 02                 4625 	.byte #0x25,#0x02	; 549
      0017B2 50 06                 4626 	.byte #0x50,#0x06	; 1616
      0017B4 BA 06                 4627 	.byte #0xBA,#0x06	; 1722
      0017B6 CF 02                 4628 	.byte #0xCF,#0x02	; 719
      0017B8 6E 07                 4629 	.byte #0x6E,#0x07	; 1902
      0017BA 1B 03                 4630 	.byte #0x1B,#0x03	; 795
      0017BC F1 03                 4631 	.byte #0xF1,#0x03	; 1009
      0017BE 84 07                 4632 	.byte #0x84,#0x07	; 1924
      0017C0 13 06                 4633 	.byte #0x13,#0x06	; 1555
      0017C2 66 02                 4634 	.byte #0x66,#0x02	; 614
      0017C4 8C 02                 4635 	.byte #0x8C,#0x02	; 652
      0017C6 F9 06                 4636 	.byte #0xF9,#0x06	; 1785
      0017C8 58 03                 4637 	.byte #0x58,#0x03	; 856
      0017CA 2D 07                 4638 	.byte #0x2D,#0x07	; 1837
      0017CC C7 07                 4639 	.byte #0xC7,#0x07	; 1991
      0017CE B2 03                 4640 	.byte #0xB2,#0x03	; 946
      0017D0 F0 00                 4641 	.byte #0xF0,#0x00	; 240
      0017D2 85 04                 4642 	.byte #0x85,#0x04	; 1157
      0017D4 6F 04                 4643 	.byte #0x6F,#0x04	; 1135
      0017D6 1A 00                 4644 	.byte #0x1A,#0x00	; 26
      0017D8 BB 05                 4645 	.byte #0xBB,#0x05	; 1467
      0017DA CE 01                 4646 	.byte #0xCE,#0x01	; 462
      0017DC 24 01                 4647 	.byte #0x24,#0x01	; 292
      0017DE 51 05                 4648 	.byte #0x51,#0x05	; 1361
      0017E0 A0 07                 4649 	.byte #0xA0,#0x07	; 1952
      0017E2 D5 03                 4650 	.byte #0xD5,#0x03	; 981
      0017E4 3F 03                 4651 	.byte #0x3F,#0x03	; 831
      0017E6 4A 07                 4652 	.byte #0x4A,#0x07	; 1866
      0017E8 EB 02                 4653 	.byte #0xEB,#0x02	; 747
      0017EA 9E 06                 4654 	.byte #0x9E,#0x06	; 1694
      0017EC 74 06                 4655 	.byte #0x74,#0x06	; 1652
      0017EE 01 02                 4656 	.byte #0x01,#0x02	; 513
      0017F0 43 01                 4657 	.byte #0x43,#0x01	; 323
      0017F2 36 05                 4658 	.byte #0x36,#0x05	; 1334
      0017F4 DC 05                 4659 	.byte #0xDC,#0x05	; 1500
      0017F6 A9 01                 4660 	.byte #0xA9,#0x01	; 425
      0017F8 08 04                 4661 	.byte #0x08,#0x04	; 1032
      0017FA 7D 00                 4662 	.byte #0x7D,#0x00	; 125
      0017FC 97 00                 4663 	.byte #0x97,#0x00	; 151
      0017FE E2 04                 4664 	.byte #0xE2,#0x04	; 1250
      001800 27 05                 4665 	.byte #0x27,#0x05	; 1319
      001802 52 01                 4666 	.byte #0x52,#0x01	; 338
      001804 B8 01                 4667 	.byte #0xB8,#0x01	; 440
      001806 CD 05                 4668 	.byte #0xCD,#0x05	; 1485
      001808 6C 00                 4669 	.byte #0x6C,#0x00	; 108
      00180A 19 04                 4670 	.byte #0x19,#0x04	; 1049
      00180C F3 04                 4671 	.byte #0xF3,#0x04	; 1267
      00180E 86 00                 4672 	.byte #0x86,#0x00	; 134
      001810 C4 03                 4673 	.byte #0xC4,#0x03	; 964
      001812 B1 07                 4674 	.byte #0xB1,#0x07	; 1969
      001814 5B 07                 4675 	.byte #0x5B,#0x07	; 1883
      001816 2E 03                 4676 	.byte #0x2E,#0x03	; 814
      001818 8F 06                 4677 	.byte #0x8F,#0x06	; 1679
      00181A FA 02                 4678 	.byte #0xFA,#0x02	; 762
      00181C 10 02                 4679 	.byte #0x10,#0x02	; 528
      00181E 65 06                 4680 	.byte #0x65,#0x06	; 1637
      001820 94 04                 4681 	.byte #0x94,#0x04	; 1172
      001822 E1 00                 4682 	.byte #0xE1,#0x00	; 225
      001824 0B 00                 4683 	.byte #0x0B,#0x00	; 11
      001826 7E 04                 4684 	.byte #0x7E,#0x04	; 1150
      001828 DF 01                 4685 	.byte #0xDF,#0x01	; 479
      00182A AA 05                 4686 	.byte #0xAA,#0x05	; 1450
      00182C 40 05                 4687 	.byte #0x40,#0x05	; 1344
      00182E 35 01                 4688 	.byte #0x35,#0x01	; 309
      001830 77 02                 4689 	.byte #0x77,#0x02	; 631
      001832 02 06                 4690 	.byte #0x02,#0x06	; 1538
      001834 E8 06                 4691 	.byte #0xE8,#0x06	; 1768
      001836 9D 02                 4692 	.byte #0x9D,#0x02	; 669
      001838 3C 07                 4693 	.byte #0x3C,#0x07	; 1852
      00183A 49 03                 4694 	.byte #0x49,#0x03	; 841
      00183C A3 03                 4695 	.byte #0xA3,#0x03	; 931
      00183E D6 07                 4696 	.byte #0xD6,#0x07	; 2006
      001840 41 06                 4697 	.byte #0x41,#0x06	; 1601
      001842 34 02                 4698 	.byte #0x34,#0x02	; 564
      001844 DE 02                 4699 	.byte #0xDE,#0x02	; 734
      001846 AB 06                 4700 	.byte #0xAB,#0x06	; 1707
      001848 0A 03                 4701 	.byte #0x0A,#0x03	; 778
      00184A 7F 07                 4702 	.byte #0x7F,#0x07	; 1919
      00184C 95 07                 4703 	.byte #0x95,#0x07	; 1941
      00184E E0 03                 4704 	.byte #0xE0,#0x03	; 992
      001850 A2 00                 4705 	.byte #0xA2,#0x00	; 162
      001852 D7 04                 4706 	.byte #0xD7,#0x04	; 1239
      001854 3D 04                 4707 	.byte #0x3D,#0x04	; 1085
      001856 48 00                 4708 	.byte #0x48,#0x00	; 72
      001858 E9 05                 4709 	.byte #0xE9,#0x05	; 1513
      00185A 9C 01                 4710 	.byte #0x9C,#0x01	; 412
      00185C 76 01                 4711 	.byte #0x76,#0x01	; 374
      00185E 03 05                 4712 	.byte #0x03,#0x05	; 1283
      001860 F2 07                 4713 	.byte #0xF2,#0x07	; 2034
      001862 87 03                 4714 	.byte #0x87,#0x03	; 903
      001864 6D 03                 4715 	.byte #0x6D,#0x03	; 877
      001866 18 07                 4716 	.byte #0x18,#0x07	; 1816
      001868 B9 02                 4717 	.byte #0xB9,#0x02	; 697
      00186A CC 06                 4718 	.byte #0xCC,#0x06	; 1740
      00186C 26 06                 4719 	.byte #0x26,#0x06	; 1574
      00186E 53 02                 4720 	.byte #0x53,#0x02	; 595
      001870 11 01                 4721 	.byte #0x11,#0x01	; 273
      001872 64 05                 4722 	.byte #0x64,#0x05	; 1380
      001874 8E 05                 4723 	.byte #0x8E,#0x05	; 1422
      001876 FB 01                 4724 	.byte #0xFB,#0x01	; 507
      001878 5A 04                 4725 	.byte #0x5A,#0x04	; 1114
      00187A 2F 00                 4726 	.byte #0x2F,#0x00	; 47
      00187C C5 00                 4727 	.byte #0xC5,#0x00	; 197
      00187E B0 04                 4728 	.byte #0xB0,#0x04	; 1200
      001880 EB 03                 4729 	.byte #0xEB,#0x03	; 1003
      001882 9E 07                 4730 	.byte #0x9E,#0x07	; 1950
      001884 74 07                 4731 	.byte #0x74,#0x07	; 1908
      001886 01 03                 4732 	.byte #0x01,#0x03	; 769
      001888 A0 06                 4733 	.byte #0xA0,#0x06	; 1696
      00188A D5 02                 4734 	.byte #0xD5,#0x02	; 725
      00188C 3F 02                 4735 	.byte #0x3F,#0x02	; 575
      00188E 4A 06                 4736 	.byte #0x4A,#0x06	; 1610
      001890 08 05                 4737 	.byte #0x08,#0x05	; 1288
      001892 7D 01                 4738 	.byte #0x7D,#0x01	; 381
      001894 97 01                 4739 	.byte #0x97,#0x01	; 407
      001896 E2 05                 4740 	.byte #0xE2,#0x05	; 1506
      001898 43 00                 4741 	.byte #0x43,#0x00	; 67
      00189A 36 04                 4742 	.byte #0x36,#0x04	; 1078
      00189C DC 04                 4743 	.byte #0xDC,#0x04	; 1244
      00189E A9 00                 4744 	.byte #0xA9,#0x00	; 169
      0018A0 58 02                 4745 	.byte #0x58,#0x02	; 600
      0018A2 2D 06                 4746 	.byte #0x2D,#0x06	; 1581
      0018A4 C7 06                 4747 	.byte #0xC7,#0x06	; 1735
      0018A6 B2 02                 4748 	.byte #0xB2,#0x02	; 690
      0018A8 13 07                 4749 	.byte #0x13,#0x07	; 1811
      0018AA 66 03                 4750 	.byte #0x66,#0x03	; 870
      0018AC 8C 03                 4751 	.byte #0x8C,#0x03	; 908
      0018AE F9 07                 4752 	.byte #0xF9,#0x07	; 2041
      0018B0 BB 04                 4753 	.byte #0xBB,#0x04	; 1211
      0018B2 CE 00                 4754 	.byte #0xCE,#0x00	; 206
      0018B4 24 00                 4755 	.byte #0x24,#0x00	; 36
      0018B6 51 04                 4756 	.byte #0x51,#0x04	; 1105
      0018B8 F0 01                 4757 	.byte #0xF0,#0x01	; 496
      0018BA 85 05                 4758 	.byte #0x85,#0x05	; 1413
      0018BC 6F 05                 4759 	.byte #0x6F,#0x05	; 1391
      0018BE 1A 01                 4760 	.byte #0x1A,#0x01	; 282
      0018C0 8D 00                 4761 	.byte #0x8D,#0x00	; 141
      0018C2 F8 04                 4762 	.byte #0xF8,#0x04	; 1272
      0018C4 12 04                 4763 	.byte #0x12,#0x04	; 1042
      0018C6 67 00                 4764 	.byte #0x67,#0x00	; 103
      0018C8 C6 05                 4765 	.byte #0xC6,#0x05	; 1478
      0018CA B3 01                 4766 	.byte #0xB3,#0x01	; 435
      0018CC 59 01                 4767 	.byte #0x59,#0x01	; 345
      0018CE 2C 05                 4768 	.byte #0x2C,#0x05	; 1324
      0018D0 6E 06                 4769 	.byte #0x6E,#0x06	; 1646
      0018D2 1B 02                 4770 	.byte #0x1B,#0x02	; 539
      0018D4 F1 02                 4771 	.byte #0xF1,#0x02	; 753
      0018D6 84 06                 4772 	.byte #0x84,#0x06	; 1668
      0018D8 25 03                 4773 	.byte #0x25,#0x03	; 805
      0018DA 50 07                 4774 	.byte #0x50,#0x07	; 1872
      0018DC BA 07                 4775 	.byte #0xBA,#0x07	; 1978
      0018DE CF 03                 4776 	.byte #0xCF,#0x03	; 975
      0018E0 3E 01                 4777 	.byte #0x3E,#0x01	; 318
      0018E2 4B 05                 4778 	.byte #0x4B,#0x05	; 1355
      0018E4 A1 05                 4779 	.byte #0xA1,#0x05	; 1441
      0018E6 D4 01                 4780 	.byte #0xD4,#0x01	; 468
      0018E8 75 04                 4781 	.byte #0x75,#0x04	; 1141
      0018EA 00 00                 4782 	.byte #0x00,#0x00	; 0
      0018EC EA 00                 4783 	.byte #0xEA,#0x00	; 234
      0018EE 9F 04                 4784 	.byte #0x9F,#0x04	; 1183
      0018F0 DD 07                 4785 	.byte #0xDD,#0x07	; 2013
      0018F2 A8 03                 4786 	.byte #0xA8,#0x03	; 936
      0018F4 42 03                 4787 	.byte #0x42,#0x03	; 834
      0018F6 37 07                 4788 	.byte #0x37,#0x07	; 1847
      0018F8 96 02                 4789 	.byte #0x96,#0x02	; 662
      0018FA E3 06                 4790 	.byte #0xE3,#0x06	; 1763
      0018FC 09 06                 4791 	.byte #0x09,#0x06	; 1545
      0018FE 7C 02                 4792 	.byte #0x7C,#0x02	; 636
      001900 CA 04                 4793 	.byte #0xCA,#0x04	; 1226
      001902 BF 00                 4794 	.byte #0xBF,#0x00	; 191
      001904 55 00                 4795 	.byte #0x55,#0x00	; 85
      001906 20 04                 4796 	.byte #0x20,#0x04	; 1056
      001908 81 01                 4797 	.byte #0x81,#0x01	; 385
      00190A F4 05                 4798 	.byte #0xF4,#0x05	; 1524
      00190C 1E 05                 4799 	.byte #0x1E,#0x05	; 1310
      00190E 6B 01                 4800 	.byte #0x6B,#0x01	; 363
      001910 29 02                 4801 	.byte #0x29,#0x02	; 553
      001912 5C 06                 4802 	.byte #0x5C,#0x06	; 1628
      001914 B6 06                 4803 	.byte #0xB6,#0x06	; 1718
      001916 C3 02                 4804 	.byte #0xC3,#0x02	; 707
      001918 62 07                 4805 	.byte #0x62,#0x07	; 1890
      00191A 17 03                 4806 	.byte #0x17,#0x03	; 791
      00191C FD 03                 4807 	.byte #0xFD,#0x03	; 1021
      00191E 88 07                 4808 	.byte #0x88,#0x07	; 1928
      001920 79 05                 4809 	.byte #0x79,#0x05	; 1401
      001922 0C 01                 4810 	.byte #0x0C,#0x01	; 268
      001924 E6 01                 4811 	.byte #0xE6,#0x01	; 486
      001926 93 05                 4812 	.byte #0x93,#0x05	; 1427
      001928 32 00                 4813 	.byte #0x32,#0x00	; 50
      00192A 47 04                 4814 	.byte #0x47,#0x04	; 1095
      00192C AD 04                 4815 	.byte #0xAD,#0x04	; 1197
      00192E D8 00                 4816 	.byte #0xD8,#0x00	; 216
      001930 9A 03                 4817 	.byte #0x9A,#0x03	; 922
      001932 EF 07                 4818 	.byte #0xEF,#0x07	; 2031
      001934 05 07                 4819 	.byte #0x05,#0x07	; 1797
      001936 70 03                 4820 	.byte #0x70,#0x03	; 880
      001938 D1 06                 4821 	.byte #0xD1,#0x06	; 1745
      00193A A4 02                 4822 	.byte #0xA4,#0x02	; 676
      00193C 4E 02                 4823 	.byte #0x4E,#0x02	; 590
      00193E 3B 06                 4824 	.byte #0x3B,#0x06	; 1595
      001940 AC 07                 4825 	.byte #0xAC,#0x07	; 1964
      001942 D9 03                 4826 	.byte #0xD9,#0x03	; 985
      001944 33 03                 4827 	.byte #0x33,#0x03	; 819
      001946 46 07                 4828 	.byte #0x46,#0x07	; 1862
      001948 E7 02                 4829 	.byte #0xE7,#0x02	; 743
      00194A 92 06                 4830 	.byte #0x92,#0x06	; 1682
      00194C 78 06                 4831 	.byte #0x78,#0x06	; 1656
      00194E 0D 02                 4832 	.byte #0x0D,#0x02	; 525
      001950 4F 01                 4833 	.byte #0x4F,#0x01	; 335
      001952 3A 05                 4834 	.byte #0x3A,#0x05	; 1338
      001954 D0 05                 4835 	.byte #0xD0,#0x05	; 1488
      001956 A5 01                 4836 	.byte #0xA5,#0x01	; 421
      001958 04 04                 4837 	.byte #0x04,#0x04	; 1028
      00195A 71 00                 4838 	.byte #0x71,#0x00	; 113
      00195C 9B 00                 4839 	.byte #0x9B,#0x00	; 155
      00195E EE 04                 4840 	.byte #0xEE,#0x04	; 1262
      001960 1F 06                 4841 	.byte #0x1F,#0x06	; 1567
      001962 6A 02                 4842 	.byte #0x6A,#0x02	; 618
      001964 80 02                 4843 	.byte #0x80,#0x02	; 640
      001966 F5 06                 4844 	.byte #0xF5,#0x06	; 1781
      001968 54 03                 4845 	.byte #0x54,#0x03	; 852
      00196A 21 07                 4846 	.byte #0x21,#0x07	; 1825
      00196C CB 07                 4847 	.byte #0xCB,#0x07	; 1995
      00196E BE 03                 4848 	.byte #0xBE,#0x03	; 958
      001970 FC 00                 4849 	.byte #0xFC,#0x00	; 252
      001972 89 04                 4850 	.byte #0x89,#0x04	; 1161
      001974 63 04                 4851 	.byte #0x63,#0x04	; 1123
      001976 16 00                 4852 	.byte #0x16,#0x00	; 22
      001978 B7 05                 4853 	.byte #0xB7,#0x05	; 1463
      00197A C2 01                 4854 	.byte #0xC2,#0x01	; 450
      00197C 28 01                 4855 	.byte #0x28,#0x01	; 296
      00197E 5D 05                 4856 	.byte #0x5D,#0x05	; 1373
      001980 06 02                 4857 	.byte #0x06,#0x02	; 518
      001982 73 06                 4858 	.byte #0x73,#0x06	; 1651
      001984 99 06                 4859 	.byte #0x99,#0x06	; 1689
      001986 EC 02                 4860 	.byte #0xEC,#0x02	; 748
      001988 4D 07                 4861 	.byte #0x4D,#0x07	; 1869
      00198A 38 03                 4862 	.byte #0x38,#0x03	; 824
      00198C D2 03                 4863 	.byte #0xD2,#0x03	; 978
      00198E A7 07                 4864 	.byte #0xA7,#0x07	; 1959
      001990 E5 04                 4865 	.byte #0xE5,#0x04	; 1253
      001992 90 00                 4866 	.byte #0x90,#0x00	; 144
      001994 7A 00                 4867 	.byte #0x7A,#0x00	; 122
      001996 0F 04                 4868 	.byte #0x0F,#0x04	; 1039
      001998 AE 01                 4869 	.byte #0xAE,#0x01	; 430
      00199A DB 05                 4870 	.byte #0xDB,#0x05	; 1499
      00199C 31 05                 4871 	.byte #0x31,#0x05	; 1329
      00199E 44 01                 4872 	.byte #0x44,#0x01	; 324
      0019A0 B5 03                 4873 	.byte #0xB5,#0x03	; 949
      0019A2 C0 07                 4874 	.byte #0xC0,#0x07	; 1984
      0019A4 2A 07                 4875 	.byte #0x2A,#0x07	; 1834
      0019A6 5F 03                 4876 	.byte #0x5F,#0x03	; 863
      0019A8 FE 06                 4877 	.byte #0xFE,#0x06	; 1790
      0019AA 8B 02                 4878 	.byte #0x8B,#0x02	; 651
      0019AC 61 02                 4879 	.byte #0x61,#0x02	; 609
      0019AE 14 06                 4880 	.byte #0x14,#0x06	; 1556
      0019B0 56 05                 4881 	.byte #0x56,#0x05	; 1366
      0019B2 23 01                 4882 	.byte #0x23,#0x01	; 291
      0019B4 C9 01                 4883 	.byte #0xC9,#0x01	; 457
      0019B6 BC 05                 4884 	.byte #0xBC,#0x05	; 1468
      0019B8 1D 00                 4885 	.byte #0x1D,#0x00	; 29
      0019BA 68 04                 4886 	.byte #0x68,#0x04	; 1128
      0019BC 82 04                 4887 	.byte #0x82,#0x04	; 1154
      0019BE F7 00                 4888 	.byte #0xF7,#0x00	; 247
      0019C0 60 01                 4889 	.byte #0x60,#0x01	; 352
      0019C2 15 05                 4890 	.byte #0x15,#0x05	; 1301
      0019C4 FF 05                 4891 	.byte #0xFF,#0x05	; 1535
      0019C6 8A 01                 4892 	.byte #0x8A,#0x01	; 394
      0019C8 2B 04                 4893 	.byte #0x2B,#0x04	; 1067
      0019CA 5E 00                 4894 	.byte #0x5E,#0x00	; 94
      0019CC B4 00                 4895 	.byte #0xB4,#0x00	; 180
      0019CE C1 04                 4896 	.byte #0xC1,#0x04	; 1217
      0019D0 83 07                 4897 	.byte #0x83,#0x07	; 1923
      0019D2 F6 03                 4898 	.byte #0xF6,#0x03	; 1014
      0019D4 1C 03                 4899 	.byte #0x1C,#0x03	; 796
      0019D6 69 07                 4900 	.byte #0x69,#0x07	; 1897
      0019D8 C8 02                 4901 	.byte #0xC8,#0x02	; 712
      0019DA BD 06                 4902 	.byte #0xBD,#0x06	; 1725
      0019DC 57 06                 4903 	.byte #0x57,#0x06	; 1623
      0019DE 22 02                 4904 	.byte #0x22,#0x02	; 546
      0019E0 D3 00                 4905 	.byte #0xD3,#0x00	; 211
      0019E2 A6 04                 4906 	.byte #0xA6,#0x04	; 1190
      0019E4 4C 04                 4907 	.byte #0x4C,#0x04	; 1100
      0019E6 39 00                 4908 	.byte #0x39,#0x00	; 57
      0019E8 98 05                 4909 	.byte #0x98,#0x05	; 1432
      0019EA ED 01                 4910 	.byte #0xED,#0x01	; 493
      0019EC 07 01                 4911 	.byte #0x07,#0x01	; 263
      0019EE 72 05                 4912 	.byte #0x72,#0x05	; 1394
      0019F0 30 06                 4913 	.byte #0x30,#0x06	; 1584
      0019F2 45 02                 4914 	.byte #0x45,#0x02	; 581
      0019F4 AF 02                 4915 	.byte #0xAF,#0x02	; 687
      0019F6 DA 06                 4916 	.byte #0xDA,#0x06	; 1754
      0019F8 7B 03                 4917 	.byte #0x7B,#0x03	; 891
      0019FA 0E 07                 4918 	.byte #0x0E,#0x07	; 1806
      0019FC E4 07                 4919 	.byte #0xE4,#0x07	; 2020
      0019FE 91 03                 4920 	.byte #0x91,#0x03	; 913
      001A00 FD 06                 4921 	.byte #0xFD,#0x06	; 1789
      001A02 88 02                 4922 	.byte #0x88,#0x02	; 648
      001A04 62 02                 4923 	.byte #0x62,#0x02	; 610
      001A06 17 06                 4924 	.byte #0x17,#0x06	; 1559
      001A08 B6 03                 4925 	.byte #0xB6,#0x03	; 950
      001A0A C3 07                 4926 	.byte #0xC3,#0x07	; 1987
      001A0C 29 07                 4927 	.byte #0x29,#0x07	; 1833
      001A0E 5C 03                 4928 	.byte #0x5C,#0x03	; 860
      001A10 1E 00                 4929 	.byte #0x1E,#0x00	; 30
      001A12 6B 04                 4930 	.byte #0x6B,#0x04	; 1131
      001A14 81 04                 4931 	.byte #0x81,#0x04	; 1153
      001A16 F4 00                 4932 	.byte #0xF4,#0x00	; 244
      001A18 55 05                 4933 	.byte #0x55,#0x05	; 1365
      001A1A 20 01                 4934 	.byte #0x20,#0x01	; 288
      001A1C CA 01                 4935 	.byte #0xCA,#0x01	; 458
      001A1E BF 05                 4936 	.byte #0xBF,#0x05	; 1471
      001A20 4E 07                 4937 	.byte #0x4E,#0x07	; 1870
      001A22 3B 03                 4938 	.byte #0x3B,#0x03	; 827
      001A24 D1 03                 4939 	.byte #0xD1,#0x03	; 977
      001A26 A4 07                 4940 	.byte #0xA4,#0x07	; 1956
      001A28 05 02                 4941 	.byte #0x05,#0x02	; 517
      001A2A 70 06                 4942 	.byte #0x70,#0x06	; 1648
      001A2C 9A 06                 4943 	.byte #0x9A,#0x06	; 1690
      001A2E EF 02                 4944 	.byte #0xEF,#0x02	; 751
      001A30 AD 01                 4945 	.byte #0xAD,#0x01	; 429
      001A32 D8 05                 4946 	.byte #0xD8,#0x05	; 1496
      001A34 32 05                 4947 	.byte #0x32,#0x05	; 1330
      001A36 47 01                 4948 	.byte #0x47,#0x01	; 327
      001A38 E6 04                 4949 	.byte #0xE6,#0x04	; 1254
      001A3A 93 00                 4950 	.byte #0x93,#0x00	; 147
      001A3C 79 00                 4951 	.byte #0x79,#0x00	; 121
      001A3E 0C 04                 4952 	.byte #0x0C,#0x04	; 1036
      001A40 9B 05                 4953 	.byte #0x9B,#0x05	; 1435
      001A42 EE 01                 4954 	.byte #0xEE,#0x01	; 494
      001A44 04 01                 4955 	.byte #0x04,#0x01	; 260
      001A46 71 05                 4956 	.byte #0x71,#0x05	; 1393
      001A48 D0 00                 4957 	.byte #0xD0,#0x00	; 208
      001A4A A5 04                 4958 	.byte #0xA5,#0x04	; 1189
      001A4C 4F 04                 4959 	.byte #0x4F,#0x04	; 1103
      001A4E 3A 00                 4960 	.byte #0x3A,#0x00	; 58
      001A50 78 03                 4961 	.byte #0x78,#0x03	; 888
      001A52 0D 07                 4962 	.byte #0x0D,#0x07	; 1805
      001A54 E7 07                 4963 	.byte #0xE7,#0x07	; 2023
      001A56 92 03                 4964 	.byte #0x92,#0x03	; 914
      001A58 33 06                 4965 	.byte #0x33,#0x06	; 1587
      001A5A 46 02                 4966 	.byte #0x46,#0x02	; 582
      001A5C AC 02                 4967 	.byte #0xAC,#0x02	; 684
      001A5E D9 06                 4968 	.byte #0xD9,#0x06	; 1753
      001A60 28 04                 4969 	.byte #0x28,#0x04	; 1064
      001A62 5D 00                 4970 	.byte #0x5D,#0x00	; 93
      001A64 B7 00                 4971 	.byte #0xB7,#0x00	; 183
      001A66 C2 04                 4972 	.byte #0xC2,#0x04	; 1218
      001A68 63 01                 4973 	.byte #0x63,#0x01	; 355
      001A6A 16 05                 4974 	.byte #0x16,#0x05	; 1302
      001A6C FC 05                 4975 	.byte #0xFC,#0x05	; 1532
      001A6E 89 01                 4976 	.byte #0x89,#0x01	; 393
      001A70 CB 02                 4977 	.byte #0xCB,#0x02	; 715
      001A72 BE 06                 4978 	.byte #0xBE,#0x06	; 1726
      001A74 54 06                 4979 	.byte #0x54,#0x06	; 1620
      001A76 21 02                 4980 	.byte #0x21,#0x02	; 545
      001A78 80 07                 4981 	.byte #0x80,#0x07	; 1920
      001A7A F5 03                 4982 	.byte #0xF5,#0x03	; 1013
      001A7C 1F 03                 4983 	.byte #0x1F,#0x03	; 799
      001A7E 6A 07                 4984 	.byte #0x6A,#0x07	; 1898
      001A80 31 00                 4985 	.byte #0x31,#0x00	; 49
      001A82 44 04                 4986 	.byte #0x44,#0x04	; 1092
      001A84 AE 04                 4987 	.byte #0xAE,#0x04	; 1198
      001A86 DB 00                 4988 	.byte #0xDB,#0x00	; 219
      001A88 7A 05                 4989 	.byte #0x7A,#0x05	; 1402
      001A8A 0F 01                 4990 	.byte #0x0F,#0x01	; 271
      001A8C E5 01                 4991 	.byte #0xE5,#0x01	; 485
      001A8E 90 05                 4992 	.byte #0x90,#0x05	; 1424
      001A90 D2 06                 4993 	.byte #0xD2,#0x06	; 1746
      001A92 A7 02                 4994 	.byte #0xA7,#0x02	; 679
      001A94 4D 02                 4995 	.byte #0x4D,#0x02	; 589
      001A96 38 06                 4996 	.byte #0x38,#0x06	; 1592
      001A98 99 03                 4997 	.byte #0x99,#0x03	; 921
      001A9A EC 07                 4998 	.byte #0xEC,#0x07	; 2028
      001A9C 06 07                 4999 	.byte #0x06,#0x07	; 1798
      001A9E 73 03                 5000 	.byte #0x73,#0x03	; 883
      001AA0 82 01                 5001 	.byte #0x82,#0x01	; 386
      001AA2 F7 05                 5002 	.byte #0xF7,#0x05	; 1527
      001AA4 1D 05                 5003 	.byte #0x1D,#0x05	; 1309
      001AA6 68 01                 5004 	.byte #0x68,#0x01	; 360
      001AA8 C9 04                 5005 	.byte #0xC9,#0x04	; 1225
      001AAA BC 00                 5006 	.byte #0xBC,#0x00	; 188
      001AAC 56 00                 5007 	.byte #0x56,#0x00	; 86
      001AAE 23 04                 5008 	.byte #0x23,#0x04	; 1059
      001AB0 61 07                 5009 	.byte #0x61,#0x07	; 1889
      001AB2 14 03                 5010 	.byte #0x14,#0x03	; 788
      001AB4 FE 03                 5011 	.byte #0xFE,#0x03	; 1022
      001AB6 8B 07                 5012 	.byte #0x8B,#0x07	; 1931
      001AB8 2A 02                 5013 	.byte #0x2A,#0x02	; 554
      001ABA 5F 06                 5014 	.byte #0x5F,#0x06	; 1631
      001ABC B5 06                 5015 	.byte #0xB5,#0x06	; 1717
      001ABE C0 02                 5016 	.byte #0xC0,#0x02	; 704
      001AC0 57 03                 5017 	.byte #0x57,#0x03	; 855
      001AC2 22 07                 5018 	.byte #0x22,#0x07	; 1826
      001AC4 C8 07                 5019 	.byte #0xC8,#0x07	; 1992
      001AC6 BD 03                 5020 	.byte #0xBD,#0x03	; 957
      001AC8 1C 06                 5021 	.byte #0x1C,#0x06	; 1564
      001ACA 69 02                 5022 	.byte #0x69,#0x02	; 617
      001ACC 83 02                 5023 	.byte #0x83,#0x02	; 643
      001ACE F6 06                 5024 	.byte #0xF6,#0x06	; 1782
      001AD0 B4 05                 5025 	.byte #0xB4,#0x05	; 1460
      001AD2 C1 01                 5026 	.byte #0xC1,#0x01	; 449
      001AD4 2B 01                 5027 	.byte #0x2B,#0x01	; 299
      001AD6 5E 05                 5028 	.byte #0x5E,#0x05	; 1374
      001AD8 FF 00                 5029 	.byte #0xFF,#0x00	; 255
      001ADA 8A 04                 5030 	.byte #0x8A,#0x04	; 1162
      001ADC 60 04                 5031 	.byte #0x60,#0x04	; 1120
      001ADE 15 00                 5032 	.byte #0x15,#0x00	; 21
      001AE0 E4 02                 5033 	.byte #0xE4,#0x02	; 740
      001AE2 91 06                 5034 	.byte #0x91,#0x06	; 1681
      001AE4 7B 06                 5035 	.byte #0x7B,#0x06	; 1659
      001AE6 0E 02                 5036 	.byte #0x0E,#0x02	; 526
      001AE8 AF 07                 5037 	.byte #0xAF,#0x07	; 1967
      001AEA DA 03                 5038 	.byte #0xDA,#0x03	; 986
      001AEC 30 03                 5039 	.byte #0x30,#0x03	; 816
      001AEE 45 07                 5040 	.byte #0x45,#0x07	; 1861
      001AF0 07 04                 5041 	.byte #0x07,#0x04	; 1031
      001AF2 72 00                 5042 	.byte #0x72,#0x00	; 114
      001AF4 98 00                 5043 	.byte #0x98,#0x00	; 152
      001AF6 ED 04                 5044 	.byte #0xED,#0x04	; 1261
      001AF8 4C 01                 5045 	.byte #0x4C,#0x01	; 332
      001AFA 39 05                 5046 	.byte #0x39,#0x05	; 1337
      001AFC D3 05                 5047 	.byte #0xD3,#0x05	; 1491
      001AFE A6 01                 5048 	.byte #0xA6,#0x01	; 422
      001B00 10 07                 5049 	.byte #0x10,#0x07	; 1808
      001B02 65 03                 5050 	.byte #0x65,#0x03	; 869
      001B04 8F 03                 5051 	.byte #0x8F,#0x03	; 911
      001B06 FA 07                 5052 	.byte #0xFA,#0x07	; 2042
      001B08 5B 02                 5053 	.byte #0x5B,#0x02	; 603
      001B0A 2E 06                 5054 	.byte #0x2E,#0x06	; 1582
      001B0C C4 06                 5055 	.byte #0xC4,#0x06	; 1732
      001B0E B1 02                 5056 	.byte #0xB1,#0x02	; 689
      001B10 F3 01                 5057 	.byte #0xF3,#0x01	; 499
      001B12 86 05                 5058 	.byte #0x86,#0x05	; 1414
      001B14 6C 05                 5059 	.byte #0x6C,#0x05	; 1388
      001B16 19 01                 5060 	.byte #0x19,#0x01	; 281
      001B18 B8 04                 5061 	.byte #0xB8,#0x04	; 1208
      001B1A CD 00                 5062 	.byte #0xCD,#0x00	; 205
      001B1C 27 00                 5063 	.byte #0x27,#0x00	; 39
      001B1E 52 04                 5064 	.byte #0x52,#0x04	; 1106
      001B20 A3 06                 5065 	.byte #0xA3,#0x06	; 1699
      001B22 D6 02                 5066 	.byte #0xD6,#0x02	; 726
      001B24 3C 02                 5067 	.byte #0x3C,#0x02	; 572
      001B26 49 06                 5068 	.byte #0x49,#0x06	; 1609
      001B28 E8 03                 5069 	.byte #0xE8,#0x03	; 1000
      001B2A 9D 07                 5070 	.byte #0x9D,#0x07	; 1949
      001B2C 77 07                 5071 	.byte #0x77,#0x07	; 1911
      001B2E 02 03                 5072 	.byte #0x02,#0x03	; 770
      001B30 40 00                 5073 	.byte #0x40,#0x00	; 64
      001B32 35 04                 5074 	.byte #0x35,#0x04	; 1077
      001B34 DF 04                 5075 	.byte #0xDF,#0x04	; 1247
      001B36 AA 00                 5076 	.byte #0xAA,#0x00	; 170
      001B38 0B 05                 5077 	.byte #0x0B,#0x05	; 1291
      001B3A 7E 01                 5078 	.byte #0x7E,#0x01	; 382
      001B3C 94 01                 5079 	.byte #0x94,#0x01	; 404
      001B3E E1 05                 5080 	.byte #0xE1,#0x05	; 1505
      001B40 76 04                 5081 	.byte #0x76,#0x04	; 1142
      001B42 03 00                 5082 	.byte #0x03,#0x00	; 3
      001B44 E9 00                 5083 	.byte #0xE9,#0x00	; 233
      001B46 9C 04                 5084 	.byte #0x9C,#0x04	; 1180
      001B48 3D 01                 5085 	.byte #0x3D,#0x01	; 317
      001B4A 48 05                 5086 	.byte #0x48,#0x05	; 1352
      001B4C A2 05                 5087 	.byte #0xA2,#0x05	; 1442
      001B4E D7 01                 5088 	.byte #0xD7,#0x01	; 471
      001B50 95 02                 5089 	.byte #0x95,#0x02	; 661
      001B52 E0 06                 5090 	.byte #0xE0,#0x06	; 1760
      001B54 0A 06                 5091 	.byte #0x0A,#0x06	; 1546
      001B56 7F 02                 5092 	.byte #0x7F,#0x02	; 639
      001B58 DE 07                 5093 	.byte #0xDE,#0x07	; 2014
      001B5A AB 03                 5094 	.byte #0xAB,#0x03	; 939
      001B5C 41 03                 5095 	.byte #0x41,#0x03	; 833
      001B5E 34 07                 5096 	.byte #0x34,#0x07	; 1844
      001B60 C5 05                 5097 	.byte #0xC5,#0x05	; 1477
      001B62 B0 01                 5098 	.byte #0xB0,#0x01	; 432
      001B64 5A 01                 5099 	.byte #0x5A,#0x01	; 346
      001B66 2F 05                 5100 	.byte #0x2F,#0x05	; 1327
      001B68 8E 00                 5101 	.byte #0x8E,#0x00	; 142
      001B6A FB 04                 5102 	.byte #0xFB,#0x04	; 1275
      001B6C 11 04                 5103 	.byte #0x11,#0x04	; 1041
      001B6E 64 00                 5104 	.byte #0x64,#0x00	; 100
      001B70 26 03                 5105 	.byte #0x26,#0x03	; 806
      001B72 53 07                 5106 	.byte #0x53,#0x07	; 1875
      001B74 B9 07                 5107 	.byte #0xB9,#0x07	; 1977
      001B76 CC 03                 5108 	.byte #0xCC,#0x03	; 972
      001B78 6D 06                 5109 	.byte #0x6D,#0x06	; 1645
      001B7A 18 02                 5110 	.byte #0x18,#0x02	; 536
      001B7C F2 02                 5111 	.byte #0xF2,#0x02	; 754
      001B7E 87 06                 5112 	.byte #0x87,#0x06	; 1671
      001B80 DC 01                 5113 	.byte #0xDC,#0x01	; 476
      001B82 A9 05                 5114 	.byte #0xA9,#0x05	; 1449
      001B84 43 05                 5115 	.byte #0x43,#0x05	; 1347
      001B86 36 01                 5116 	.byte #0x36,#0x01	; 310
      001B88 97 04                 5117 	.byte #0x97,#0x04	; 1175
      001B8A E2 00                 5118 	.byte #0xE2,#0x00	; 226
      001B8C 08 00                 5119 	.byte #0x08,#0x00	; 8
      001B8E 7D 04                 5120 	.byte #0x7D,#0x04	; 1149
      001B90 3F 07                 5121 	.byte #0x3F,#0x07	; 1855
      001B92 4A 03                 5122 	.byte #0x4A,#0x03	; 842
      001B94 A0 03                 5123 	.byte #0xA0,#0x03	; 928
      001B96 D5 07                 5124 	.byte #0xD5,#0x07	; 2005
      001B98 74 02                 5125 	.byte #0x74,#0x02	; 628
      001B9A 01 06                 5126 	.byte #0x01,#0x06	; 1537
      001B9C EB 06                 5127 	.byte #0xEB,#0x06	; 1771
      001B9E 9E 02                 5128 	.byte #0x9E,#0x02	; 670
      001BA0 6F 00                 5129 	.byte #0x6F,#0x00	; 111
      001BA2 1A 04                 5130 	.byte #0x1A,#0x04	; 1050
      001BA4 F0 04                 5131 	.byte #0xF0,#0x04	; 1264
      001BA6 85 00                 5132 	.byte #0x85,#0x00	; 133
      001BA8 24 05                 5133 	.byte #0x24,#0x05	; 1316
      001BAA 51 01                 5134 	.byte #0x51,#0x01	; 337
      001BAC BB 01                 5135 	.byte #0xBB,#0x01	; 443
      001BAE CE 05                 5136 	.byte #0xCE,#0x05	; 1486
      001BB0 8C 06                 5137 	.byte #0x8C,#0x06	; 1676
      001BB2 F9 02                 5138 	.byte #0xF9,#0x02	; 761
      001BB4 13 02                 5139 	.byte #0x13,#0x02	; 531
      001BB6 66 06                 5140 	.byte #0x66,#0x06	; 1638
      001BB8 C7 03                 5141 	.byte #0xC7,#0x03	; 967
      001BBA B2 07                 5142 	.byte #0xB2,#0x07	; 1970
      001BBC 58 07                 5143 	.byte #0x58,#0x07	; 1880
      001BBE 2D 03                 5144 	.byte #0x2D,#0x03	; 813
      001BC0 BA 02                 5145 	.byte #0xBA,#0x02	; 698
      001BC2 CF 06                 5146 	.byte #0xCF,#0x06	; 1743
      001BC4 25 06                 5147 	.byte #0x25,#0x06	; 1573
      001BC6 50 02                 5148 	.byte #0x50,#0x02	; 592
      001BC8 F1 07                 5149 	.byte #0xF1,#0x07	; 2033
      001BCA 84 03                 5150 	.byte #0x84,#0x03	; 900
      001BCC 6E 03                 5151 	.byte #0x6E,#0x03	; 878
      001BCE 1B 07                 5152 	.byte #0x1B,#0x07	; 1819
      001BD0 59 04                 5153 	.byte #0x59,#0x04	; 1113
      001BD2 2C 00                 5154 	.byte #0x2C,#0x00	; 44
      001BD4 C6 00                 5155 	.byte #0xC6,#0x00	; 198
      001BD6 B3 04                 5156 	.byte #0xB3,#0x04	; 1203
      001BD8 12 01                 5157 	.byte #0x12,#0x01	; 274
      001BDA 67 05                 5158 	.byte #0x67,#0x05	; 1383
      001BDC 8D 05                 5159 	.byte #0x8D,#0x05	; 1421
      001BDE F8 01                 5160 	.byte #0xF8,#0x01	; 504
      001BE0 09 03                 5161 	.byte #0x09,#0x03	; 777
      001BE2 7C 07                 5162 	.byte #0x7C,#0x07	; 1916
      001BE4 96 07                 5163 	.byte #0x96,#0x07	; 1942
      001BE6 E3 03                 5164 	.byte #0xE3,#0x03	; 995
      001BE8 42 06                 5165 	.byte #0x42,#0x06	; 1602
      001BEA 37 02                 5166 	.byte #0x37,#0x02	; 567
      001BEC DD 02                 5167 	.byte #0xDD,#0x02	; 733
      001BEE A8 06                 5168 	.byte #0xA8,#0x06	; 1704
      001BF0 EA 05                 5169 	.byte #0xEA,#0x05	; 1514
      001BF2 9F 01                 5170 	.byte #0x9F,#0x01	; 415
      001BF4 75 01                 5171 	.byte #0x75,#0x01	; 373
      001BF6 00 05                 5172 	.byte #0x00,#0x05	; 1280
      001BF8 A1 00                 5173 	.byte #0xA1,#0x00	; 161
      001BFA D4 04                 5174 	.byte #0xD4,#0x04	; 1236
      001BFC 3E 04                 5175 	.byte #0x3E,#0x04	; 1086
      001BFE 4B 00                 5176 	.byte #0x4B,#0x00	; 75
      001C00 93 02                 5177 	.byte #0x93,#0x02	; 659
      001C02 E6 06                 5178 	.byte #0xE6,#0x06	; 1766
      001C04 0C 06                 5179 	.byte #0x0C,#0x06	; 1548
      001C06 79 02                 5180 	.byte #0x79,#0x02	; 633
      001C08 D8 07                 5181 	.byte #0xD8,#0x07	; 2008
      001C0A AD 03                 5182 	.byte #0xAD,#0x03	; 941
      001C0C 47 03                 5183 	.byte #0x47,#0x03	; 839
      001C0E 32 07                 5184 	.byte #0x32,#0x07	; 1842
      001C10 70 04                 5185 	.byte #0x70,#0x04	; 1136
      001C12 05 00                 5186 	.byte #0x05,#0x00	; 5
      001C14 EF 00                 5187 	.byte #0xEF,#0x00	; 239
      001C16 9A 04                 5188 	.byte #0x9A,#0x04	; 1178
      001C18 3B 01                 5189 	.byte #0x3B,#0x01	; 315
      001C1A 4E 05                 5190 	.byte #0x4E,#0x05	; 1358
      001C1C A4 05                 5191 	.byte #0xA4,#0x05	; 1444
      001C1E D1 01                 5192 	.byte #0xD1,#0x01	; 465
      001C20 20 03                 5193 	.byte #0x20,#0x03	; 800
      001C22 55 07                 5194 	.byte #0x55,#0x07	; 1877
      001C24 BF 07                 5195 	.byte #0xBF,#0x07	; 1983
      001C26 CA 03                 5196 	.byte #0xCA,#0x03	; 970
      001C28 6B 06                 5197 	.byte #0x6B,#0x06	; 1643
      001C2A 1E 02                 5198 	.byte #0x1E,#0x02	; 542
      001C2C F4 02                 5199 	.byte #0xF4,#0x02	; 756
      001C2E 81 06                 5200 	.byte #0x81,#0x06	; 1665
      001C30 C3 05                 5201 	.byte #0xC3,#0x05	; 1475
      001C32 B6 01                 5202 	.byte #0xB6,#0x01	; 438
      001C34 5C 01                 5203 	.byte #0x5C,#0x01	; 348
      001C36 29 05                 5204 	.byte #0x29,#0x05	; 1321
      001C38 88 00                 5205 	.byte #0x88,#0x00	; 136
      001C3A FD 04                 5206 	.byte #0xFD,#0x04	; 1277
      001C3C 17 04                 5207 	.byte #0x17,#0x04	; 1047
      001C3E 62 00                 5208 	.byte #0x62,#0x00	; 98
      001C40 F5 01                 5209 	.byte #0xF5,#0x01	; 501
      001C42 80 05                 5210 	.byte #0x80,#0x05	; 1408
      001C44 6A 05                 5211 	.byte #0x6A,#0x05	; 1386
      001C46 1F 01                 5212 	.byte #0x1F,#0x01	; 287
      001C48 BE 04                 5213 	.byte #0xBE,#0x04	; 1214
      001C4A CB 00                 5214 	.byte #0xCB,#0x00	; 203
      001C4C 21 00                 5215 	.byte #0x21,#0x00	; 33
      001C4E 54 04                 5216 	.byte #0x54,#0x04	; 1108
      001C50 16 07                 5217 	.byte #0x16,#0x07	; 1814
      001C52 63 03                 5218 	.byte #0x63,#0x03	; 867
      001C54 89 03                 5219 	.byte #0x89,#0x03	; 905
      001C56 FC 07                 5220 	.byte #0xFC,#0x07	; 2044
      001C58 5D 02                 5221 	.byte #0x5D,#0x02	; 605
      001C5A 28 06                 5222 	.byte #0x28,#0x06	; 1576
      001C5C C2 06                 5223 	.byte #0xC2,#0x06	; 1730
      001C5E B7 02                 5224 	.byte #0xB7,#0x02	; 695
      001C60 46 00                 5225 	.byte #0x46,#0x00	; 70
      001C62 33 04                 5226 	.byte #0x33,#0x04	; 1075
      001C64 D9 04                 5227 	.byte #0xD9,#0x04	; 1241
      001C66 AC 00                 5228 	.byte #0xAC,#0x00	; 172
      001C68 0D 05                 5229 	.byte #0x0D,#0x05	; 1293
      001C6A 78 01                 5230 	.byte #0x78,#0x01	; 376
      001C6C 92 01                 5231 	.byte #0x92,#0x01	; 402
      001C6E E7 05                 5232 	.byte #0xE7,#0x05	; 1511
      001C70 A5 06                 5233 	.byte #0xA5,#0x06	; 1701
      001C72 D0 02                 5234 	.byte #0xD0,#0x02	; 720
      001C74 3A 02                 5235 	.byte #0x3A,#0x02	; 570
      001C76 4F 06                 5236 	.byte #0x4F,#0x06	; 1615
      001C78 EE 03                 5237 	.byte #0xEE,#0x03	; 1006
      001C7A 9B 07                 5238 	.byte #0x9B,#0x07	; 1947
      001C7C 71 07                 5239 	.byte #0x71,#0x07	; 1905
      001C7E 04 03                 5240 	.byte #0x04,#0x03	; 772
      001C80 5F 04                 5241 	.byte #0x5F,#0x04	; 1119
      001C82 2A 00                 5242 	.byte #0x2A,#0x00	; 42
      001C84 C0 00                 5243 	.byte #0xC0,#0x00	; 192
      001C86 B5 04                 5244 	.byte #0xB5,#0x04	; 1205
      001C88 14 01                 5245 	.byte #0x14,#0x01	; 276
      001C8A 61 05                 5246 	.byte #0x61,#0x05	; 1377
      001C8C 8B 05                 5247 	.byte #0x8B,#0x05	; 1419
      001C8E FE 01                 5248 	.byte #0xFE,#0x01	; 510
      001C90 BC 02                 5249 	.byte #0xBC,#0x02	; 700
      001C92 C9 06                 5250 	.byte #0xC9,#0x06	; 1737
      001C94 23 06                 5251 	.byte #0x23,#0x06	; 1571
      001C96 56 02                 5252 	.byte #0x56,#0x02	; 598
      001C98 F7 07                 5253 	.byte #0xF7,#0x07	; 2039
      001C9A 82 03                 5254 	.byte #0x82,#0x03	; 898
      001C9C 68 03                 5255 	.byte #0x68,#0x03	; 872
      001C9E 1D 07                 5256 	.byte #0x1D,#0x07	; 1821
      001CA0 EC 05                 5257 	.byte #0xEC,#0x05	; 1516
      001CA2 99 01                 5258 	.byte #0x99,#0x01	; 409
      001CA4 73 01                 5259 	.byte #0x73,#0x01	; 371
      001CA6 06 05                 5260 	.byte #0x06,#0x05	; 1286
      001CA8 A7 00                 5261 	.byte #0xA7,#0x00	; 167
      001CAA D2 04                 5262 	.byte #0xD2,#0x04	; 1234
      001CAC 38 04                 5263 	.byte #0x38,#0x04	; 1080
      001CAE 4D 00                 5264 	.byte #0x4D,#0x00	; 77
      001CB0 0F 03                 5265 	.byte #0x0F,#0x03	; 783
      001CB2 7A 07                 5266 	.byte #0x7A,#0x07	; 1914
      001CB4 90 07                 5267 	.byte #0x90,#0x07	; 1936
      001CB6 E5 03                 5268 	.byte #0xE5,#0x03	; 997
      001CB8 44 06                 5269 	.byte #0x44,#0x06	; 1604
      001CBA 31 02                 5270 	.byte #0x31,#0x02	; 561
      001CBC DB 02                 5271 	.byte #0xDB,#0x02	; 731
      001CBE AE 06                 5272 	.byte #0xAE,#0x06	; 1710
      001CC0 39 07                 5273 	.byte #0x39,#0x07	; 1849
      001CC2 4C 03                 5274 	.byte #0x4C,#0x03	; 844
      001CC4 A6 03                 5275 	.byte #0xA6,#0x03	; 934
      001CC6 D3 07                 5276 	.byte #0xD3,#0x07	; 2003
      001CC8 72 02                 5277 	.byte #0x72,#0x02	; 626
      001CCA 07 06                 5278 	.byte #0x07,#0x06	; 1543
      001CCC ED 06                 5279 	.byte #0xED,#0x06	; 1773
      001CCE 98 02                 5280 	.byte #0x98,#0x02	; 664
      001CD0 DA 01                 5281 	.byte #0xDA,#0x01	; 474
      001CD2 AF 05                 5282 	.byte #0xAF,#0x05	; 1455
      001CD4 45 05                 5283 	.byte #0x45,#0x05	; 1349
      001CD6 30 01                 5284 	.byte #0x30,#0x01	; 304
      001CD8 91 04                 5285 	.byte #0x91,#0x04	; 1169
      001CDA E4 00                 5286 	.byte #0xE4,#0x00	; 228
      001CDC 0E 00                 5287 	.byte #0x0E,#0x00	; 14
      001CDE 7B 04                 5288 	.byte #0x7B,#0x04	; 1147
      001CE0 8A 06                 5289 	.byte #0x8A,#0x06	; 1674
      001CE2 FF 02                 5290 	.byte #0xFF,#0x02	; 767
      001CE4 15 02                 5291 	.byte #0x15,#0x02	; 533
      001CE6 60 06                 5292 	.byte #0x60,#0x06	; 1632
      001CE8 C1 03                 5293 	.byte #0xC1,#0x03	; 961
      001CEA B4 07                 5294 	.byte #0xB4,#0x07	; 1972
      001CEC 5E 07                 5295 	.byte #0x5E,#0x07	; 1886
      001CEE 2B 03                 5296 	.byte #0x2B,#0x03	; 811
      001CF0 69 00                 5297 	.byte #0x69,#0x00	; 105
      001CF2 1C 04                 5298 	.byte #0x1C,#0x04	; 1052
      001CF4 F6 04                 5299 	.byte #0xF6,#0x04	; 1270
      001CF6 83 00                 5300 	.byte #0x83,#0x00	; 131
      001CF8 22 05                 5301 	.byte #0x22,#0x05	; 1314
      001CFA 57 01                 5302 	.byte #0x57,#0x01	; 343
      001CFC BD 01                 5303 	.byte #0xBD,#0x01	; 445
      001CFE C8 05                 5304 	.byte #0xC8,#0x05	; 1480
      001D00 7E 03                 5305 	.byte #0x7E,#0x03	; 894
      001D02 0B 07                 5306 	.byte #0x0B,#0x07	; 1803
      001D04 E1 07                 5307 	.byte #0xE1,#0x07	; 2017
      001D06 94 03                 5308 	.byte #0x94,#0x03	; 916
      001D08 35 06                 5309 	.byte #0x35,#0x06	; 1589
      001D0A 40 02                 5310 	.byte #0x40,#0x02	; 576
      001D0C AA 02                 5311 	.byte #0xAA,#0x02	; 682
      001D0E DF 06                 5312 	.byte #0xDF,#0x06	; 1759
      001D10 9D 05                 5313 	.byte #0x9D,#0x05	; 1437
      001D12 E8 01                 5314 	.byte #0xE8,#0x01	; 488
      001D14 02 01                 5315 	.byte #0x02,#0x01	; 258
      001D16 77 05                 5316 	.byte #0x77,#0x05	; 1399
      001D18 D6 00                 5317 	.byte #0xD6,#0x00	; 214
      001D1A A3 04                 5318 	.byte #0xA3,#0x04	; 1187
      001D1C 49 04                 5319 	.byte #0x49,#0x04	; 1097
      001D1E 3C 00                 5320 	.byte #0x3C,#0x00	; 60
      001D20 CD 02                 5321 	.byte #0xCD,#0x02	; 717
      001D22 B8 06                 5322 	.byte #0xB8,#0x06	; 1720
      001D24 52 06                 5323 	.byte #0x52,#0x06	; 1618
      001D26 27 02                 5324 	.byte #0x27,#0x02	; 551
      001D28 86 07                 5325 	.byte #0x86,#0x07	; 1926
      001D2A F3 03                 5326 	.byte #0xF3,#0x03	; 1011
      001D2C 19 03                 5327 	.byte #0x19,#0x03	; 793
      001D2E 6C 07                 5328 	.byte #0x6C,#0x07	; 1900
      001D30 2E 04                 5329 	.byte #0x2E,#0x04	; 1070
      001D32 5B 00                 5330 	.byte #0x5B,#0x00	; 91
      001D34 B1 00                 5331 	.byte #0xB1,#0x00	; 177
      001D36 C4 04                 5332 	.byte #0xC4,#0x04	; 1220
      001D38 65 01                 5333 	.byte #0x65,#0x01	; 357
      001D3A 10 05                 5334 	.byte #0x10,#0x05	; 1296
      001D3C FA 05                 5335 	.byte #0xFA,#0x05	; 1530
      001D3E 8F 01                 5336 	.byte #0x8F,#0x01	; 399
      001D40 18 00                 5337 	.byte #0x18,#0x00	; 24
      001D42 6D 04                 5338 	.byte #0x6D,#0x04	; 1133
      001D44 87 04                 5339 	.byte #0x87,#0x04	; 1159
      001D46 F2 00                 5340 	.byte #0xF2,#0x00	; 242
      001D48 53 05                 5341 	.byte #0x53,#0x05	; 1363
      001D4A 26 01                 5342 	.byte #0x26,#0x01	; 294
      001D4C CC 01                 5343 	.byte #0xCC,#0x01	; 460
      001D4E B9 05                 5344 	.byte #0xB9,#0x05	; 1465
      001D50 FB 06                 5345 	.byte #0xFB,#0x06	; 1787
      001D52 8E 02                 5346 	.byte #0x8E,#0x02	; 654
      001D54 64 02                 5347 	.byte #0x64,#0x02	; 612
      001D56 11 06                 5348 	.byte #0x11,#0x06	; 1553
      001D58 B0 03                 5349 	.byte #0xB0,#0x03	; 944
      001D5A C5 07                 5350 	.byte #0xC5,#0x07	; 1989
      001D5C 2F 07                 5351 	.byte #0x2F,#0x07	; 1839
      001D5E 5A 03                 5352 	.byte #0x5A,#0x03	; 858
      001D60 AB 01                 5353 	.byte #0xAB,#0x01	; 427
      001D62 DE 05                 5354 	.byte #0xDE,#0x05	; 1502
      001D64 34 05                 5355 	.byte #0x34,#0x05	; 1332
      001D66 41 01                 5356 	.byte #0x41,#0x01	; 321
      001D68 E0 04                 5357 	.byte #0xE0,#0x04	; 1248
      001D6A 95 00                 5358 	.byte #0x95,#0x00	; 149
      001D6C 7F 00                 5359 	.byte #0x7F,#0x00	; 127
      001D6E 0A 04                 5360 	.byte #0x0A,#0x04	; 1034
      001D70 48 07                 5361 	.byte #0x48,#0x07	; 1864
      001D72 3D 03                 5362 	.byte #0x3D,#0x03	; 829
      001D74 D7 03                 5363 	.byte #0xD7,#0x03	; 983
      001D76 A2 07                 5364 	.byte #0xA2,#0x07	; 1954
      001D78 03 02                 5365 	.byte #0x03,#0x02	; 515
      001D7A 76 06                 5366 	.byte #0x76,#0x06	; 1654
      001D7C 9C 06                 5367 	.byte #0x9C,#0x06	; 1692
      001D7E E9 02                 5368 	.byte #0xE9,#0x02	; 745
      001D80 B2 05                 5369 	.byte #0xB2,#0x05	; 1458
      001D82 C7 01                 5370 	.byte #0xC7,#0x01	; 455
      001D84 2D 01                 5371 	.byte #0x2D,#0x01	; 301
      001D86 58 05                 5372 	.byte #0x58,#0x05	; 1368
      001D88 F9 00                 5373 	.byte #0xF9,#0x00	; 249
      001D8A 8C 04                 5374 	.byte #0x8C,#0x04	; 1164
      001D8C 66 04                 5375 	.byte #0x66,#0x04	; 1126
      001D8E 13 00                 5376 	.byte #0x13,#0x00	; 19
      001D90 51 03                 5377 	.byte #0x51,#0x03	; 849
      001D92 24 07                 5378 	.byte #0x24,#0x07	; 1828
      001D94 CE 07                 5379 	.byte #0xCE,#0x07	; 1998
      001D96 BB 03                 5380 	.byte #0xBB,#0x03	; 955
      001D98 1A 06                 5381 	.byte #0x1A,#0x06	; 1562
      001D9A 6F 02                 5382 	.byte #0x6F,#0x02	; 623
      001D9C 85 02                 5383 	.byte #0x85,#0x02	; 645
      001D9E F0 06                 5384 	.byte #0xF0,#0x06	; 1776
      001DA0 01 04                 5385 	.byte #0x01,#0x04	; 1025
      001DA2 74 00                 5386 	.byte #0x74,#0x00	; 116
      001DA4 9E 00                 5387 	.byte #0x9E,#0x00	; 158
      001DA6 EB 04                 5388 	.byte #0xEB,#0x04	; 1259
      001DA8 4A 01                 5389 	.byte #0x4A,#0x01	; 330
      001DAA 3F 05                 5390 	.byte #0x3F,#0x05	; 1343
      001DAC D5 05                 5391 	.byte #0xD5,#0x05	; 1493
      001DAE A0 01                 5392 	.byte #0xA0,#0x01	; 416
      001DB0 E2 02                 5393 	.byte #0xE2,#0x02	; 738
      001DB2 97 06                 5394 	.byte #0x97,#0x06	; 1687
      001DB4 7D 06                 5395 	.byte #0x7D,#0x06	; 1661
      001DB6 08 02                 5396 	.byte #0x08,#0x02	; 520
      001DB8 A9 07                 5397 	.byte #0xA9,#0x07	; 1961
      001DBA DC 03                 5398 	.byte #0xDC,#0x03	; 988
      001DBC 36 03                 5399 	.byte #0x36,#0x03	; 822
      001DBE 43 07                 5400 	.byte #0x43,#0x07	; 1859
      001DC0 D4 06                 5401 	.byte #0xD4,#0x06	; 1748
      001DC2 A1 02                 5402 	.byte #0xA1,#0x02	; 673
      001DC4 4B 02                 5403 	.byte #0x4B,#0x02	; 587
      001DC6 3E 06                 5404 	.byte #0x3E,#0x06	; 1598
      001DC8 9F 03                 5405 	.byte #0x9F,#0x03	; 927
      001DCA EA 07                 5406 	.byte #0xEA,#0x07	; 2026
      001DCC 00 07                 5407 	.byte #0x00,#0x07	; 1792
      001DCE 75 03                 5408 	.byte #0x75,#0x03	; 885
      001DD0 37 00                 5409 	.byte #0x37,#0x00	; 55
      001DD2 42 04                 5410 	.byte #0x42,#0x04	; 1090
      001DD4 A8 04                 5411 	.byte #0xA8,#0x04	; 1192
      001DD6 DD 00                 5412 	.byte #0xDD,#0x00	; 221
      001DD8 7C 05                 5413 	.byte #0x7C,#0x05	; 1404
      001DDA 09 01                 5414 	.byte #0x09,#0x01	; 265
      001DDC E3 01                 5415 	.byte #0xE3,#0x01	; 483
      001DDE 96 05                 5416 	.byte #0x96,#0x05	; 1430
      001DE0 67 07                 5417 	.byte #0x67,#0x07	; 1895
      001DE2 12 03                 5418 	.byte #0x12,#0x03	; 786
      001DE4 F8 03                 5419 	.byte #0xF8,#0x03	; 1016
      001DE6 8D 07                 5420 	.byte #0x8D,#0x07	; 1933
      001DE8 2C 02                 5421 	.byte #0x2C,#0x02	; 556
      001DEA 59 06                 5422 	.byte #0x59,#0x06	; 1625
      001DEC B3 06                 5423 	.byte #0xB3,#0x06	; 1715
      001DEE C6 02                 5424 	.byte #0xC6,#0x02	; 710
      001DF0 84 01                 5425 	.byte #0x84,#0x01	; 388
      001DF2 F1 05                 5426 	.byte #0xF1,#0x05	; 1521
      001DF4 1B 05                 5427 	.byte #0x1B,#0x05	; 1307
      001DF6 6E 01                 5428 	.byte #0x6E,#0x01	; 366
      001DF8 CF 04                 5429 	.byte #0xCF,#0x04	; 1231
      001DFA BA 00                 5430 	.byte #0xBA,#0x00	; 186
      001DFC 50 00                 5431 	.byte #0x50,#0x00	; 80
      001DFE 25 04                 5432 	.byte #0x25,#0x04	; 1061
      001E00 49 01                 5433 	.byte #0x49,#0x01	; 329
      001E02 3C 05                 5434 	.byte #0x3C,#0x05	; 1340
      001E04 D6 05                 5435 	.byte #0xD6,#0x05	; 1494
      001E06 A3 01                 5436 	.byte #0xA3,#0x01	; 419
      001E08 02 04                 5437 	.byte #0x02,#0x04	; 1026
      001E0A 77 00                 5438 	.byte #0x77,#0x00	; 119
      001E0C 9D 00                 5439 	.byte #0x9D,#0x00	; 157
      001E0E E8 04                 5440 	.byte #0xE8,#0x04	; 1256
      001E10 AA 07                 5441 	.byte #0xAA,#0x07	; 1962
      001E12 DF 03                 5442 	.byte #0xDF,#0x03	; 991
      001E14 35 03                 5443 	.byte #0x35,#0x03	; 821
      001E16 40 07                 5444 	.byte #0x40,#0x07	; 1856
      001E18 E1 02                 5445 	.byte #0xE1,#0x02	; 737
      001E1A 94 06                 5446 	.byte #0x94,#0x06	; 1684
      001E1C 7E 06                 5447 	.byte #0x7E,#0x06	; 1662
      001E1E 0B 02                 5448 	.byte #0x0B,#0x02	; 523
      001E20 FA 00                 5449 	.byte #0xFA,#0x00	; 250
      001E22 8F 04                 5450 	.byte #0x8F,#0x04	; 1167
      001E24 65 04                 5451 	.byte #0x65,#0x04	; 1125
      001E26 10 00                 5452 	.byte #0x10,#0x00	; 16
      001E28 B1 05                 5453 	.byte #0xB1,#0x05	; 1457
      001E2A C4 01                 5454 	.byte #0xC4,#0x01	; 452
      001E2C 2E 01                 5455 	.byte #0x2E,#0x01	; 302
      001E2E 5B 05                 5456 	.byte #0x5B,#0x05	; 1371
      001E30 19 06                 5457 	.byte #0x19,#0x06	; 1561
      001E32 6C 02                 5458 	.byte #0x6C,#0x02	; 620
      001E34 86 02                 5459 	.byte #0x86,#0x02	; 646
      001E36 F3 06                 5460 	.byte #0xF3,#0x06	; 1779
      001E38 52 03                 5461 	.byte #0x52,#0x03	; 850
      001E3A 27 07                 5462 	.byte #0x27,#0x07	; 1831
      001E3C CD 07                 5463 	.byte #0xCD,#0x07	; 1997
      001E3E B8 03                 5464 	.byte #0xB8,#0x03	; 952
      001E40 2F 02                 5465 	.byte #0x2F,#0x02	; 559
      001E42 5A 06                 5466 	.byte #0x5A,#0x06	; 1626
      001E44 B0 06                 5467 	.byte #0xB0,#0x06	; 1712
      001E46 C5 02                 5468 	.byte #0xC5,#0x02	; 709
      001E48 64 07                 5469 	.byte #0x64,#0x07	; 1892
      001E4A 11 03                 5470 	.byte #0x11,#0x03	; 785
      001E4C FB 03                 5471 	.byte #0xFB,#0x03	; 1019
      001E4E 8E 07                 5472 	.byte #0x8E,#0x07	; 1934
      001E50 CC 04                 5473 	.byte #0xCC,#0x04	; 1228
      001E52 B9 00                 5474 	.byte #0xB9,#0x00	; 185
      001E54 53 00                 5475 	.byte #0x53,#0x00	; 83
      001E56 26 04                 5476 	.byte #0x26,#0x04	; 1062
      001E58 87 01                 5477 	.byte #0x87,#0x01	; 391
      001E5A F2 05                 5478 	.byte #0xF2,#0x05	; 1522
      001E5C 18 05                 5479 	.byte #0x18,#0x05	; 1304
      001E5E 6D 01                 5480 	.byte #0x6D,#0x01	; 365
      001E60 9C 03                 5481 	.byte #0x9C,#0x03	; 924
      001E62 E9 07                 5482 	.byte #0xE9,#0x07	; 2025
      001E64 03 07                 5483 	.byte #0x03,#0x07	; 1795
      001E66 76 03                 5484 	.byte #0x76,#0x03	; 886
      001E68 D7 06                 5485 	.byte #0xD7,#0x06	; 1751
      001E6A A2 02                 5486 	.byte #0xA2,#0x02	; 674
      001E6C 48 02                 5487 	.byte #0x48,#0x02	; 584
      001E6E 3D 06                 5488 	.byte #0x3D,#0x06	; 1597
      001E70 7F 05                 5489 	.byte #0x7F,#0x05	; 1407
      001E72 0A 01                 5490 	.byte #0x0A,#0x01	; 266
      001E74 E0 01                 5491 	.byte #0xE0,#0x01	; 480
      001E76 95 05                 5492 	.byte #0x95,#0x05	; 1429
      001E78 34 00                 5493 	.byte #0x34,#0x00	; 52
      001E7A 41 04                 5494 	.byte #0x41,#0x04	; 1089
      001E7C AB 04                 5495 	.byte #0xAB,#0x04	; 1195
      001E7E DE 00                 5496 	.byte #0xDE,#0x00	; 222
      001E80 85 07                 5497 	.byte #0x85,#0x07	; 1925
      001E82 F0 03                 5498 	.byte #0xF0,#0x03	; 1008
      001E84 1A 03                 5499 	.byte #0x1A,#0x03	; 794
      001E86 6F 07                 5500 	.byte #0x6F,#0x07	; 1903
      001E88 CE 02                 5501 	.byte #0xCE,#0x02	; 718
      001E8A BB 06                 5502 	.byte #0xBB,#0x06	; 1723
      001E8C 51 06                 5503 	.byte #0x51,#0x06	; 1617
      001E8E 24 02                 5504 	.byte #0x24,#0x02	; 548
      001E90 66 01                 5505 	.byte #0x66,#0x01	; 358
      001E92 13 05                 5506 	.byte #0x13,#0x05	; 1299
      001E94 F9 05                 5507 	.byte #0xF9,#0x05	; 1529
      001E96 8C 01                 5508 	.byte #0x8C,#0x01	; 396
      001E98 2D 04                 5509 	.byte #0x2D,#0x04	; 1069
      001E9A 58 00                 5510 	.byte #0x58,#0x00	; 88
      001E9C B2 00                 5511 	.byte #0xB2,#0x00	; 178
      001E9E C7 04                 5512 	.byte #0xC7,#0x04	; 1223
      001EA0 36 06                 5513 	.byte #0x36,#0x06	; 1590
      001EA2 43 02                 5514 	.byte #0x43,#0x02	; 579
      001EA4 A9 02                 5515 	.byte #0xA9,#0x02	; 681
      001EA6 DC 06                 5516 	.byte #0xDC,#0x06	; 1756
      001EA8 7D 03                 5517 	.byte #0x7D,#0x03	; 893
      001EAA 08 07                 5518 	.byte #0x08,#0x07	; 1800
      001EAC E2 07                 5519 	.byte #0xE2,#0x07	; 2018
      001EAE 97 03                 5520 	.byte #0x97,#0x03	; 919
      001EB0 D5 00                 5521 	.byte #0xD5,#0x00	; 213
      001EB2 A0 04                 5522 	.byte #0xA0,#0x04	; 1184
      001EB4 4A 04                 5523 	.byte #0x4A,#0x04	; 1098
      001EB6 3F 00                 5524 	.byte #0x3F,#0x00	; 63
      001EB8 9E 05                 5525 	.byte #0x9E,#0x05	; 1438
      001EBA EB 01                 5526 	.byte #0xEB,#0x01	; 491
      001EBC 01 01                 5527 	.byte #0x01,#0x01	; 257
      001EBE 74 05                 5528 	.byte #0x74,#0x05	; 1396
      001EC0 E3 04                 5529 	.byte #0xE3,#0x04	; 1251
      001EC2 96 00                 5530 	.byte #0x96,#0x00	; 150
      001EC4 7C 00                 5531 	.byte #0x7C,#0x00	; 124
      001EC6 09 04                 5532 	.byte #0x09,#0x04	; 1033
      001EC8 A8 01                 5533 	.byte #0xA8,#0x01	; 424
      001ECA DD 05                 5534 	.byte #0xDD,#0x05	; 1501
      001ECC 37 05                 5535 	.byte #0x37,#0x05	; 1335
      001ECE 42 01                 5536 	.byte #0x42,#0x01	; 322
      001ED0 00 02                 5537 	.byte #0x00,#0x02	; 512
      001ED2 75 06                 5538 	.byte #0x75,#0x06	; 1653
      001ED4 9F 06                 5539 	.byte #0x9F,#0x06	; 1695
      001ED6 EA 02                 5540 	.byte #0xEA,#0x02	; 746
      001ED8 4B 07                 5541 	.byte #0x4B,#0x07	; 1867
      001EDA 3E 03                 5542 	.byte #0x3E,#0x03	; 830
      001EDC D4 03                 5543 	.byte #0xD4,#0x03	; 980
      001EDE A1 07                 5544 	.byte #0xA1,#0x07	; 1953
      001EE0 50 05                 5545 	.byte #0x50,#0x05	; 1360
      001EE2 25 01                 5546 	.byte #0x25,#0x01	; 293
      001EE4 CF 01                 5547 	.byte #0xCF,#0x01	; 463
      001EE6 BA 05                 5548 	.byte #0xBA,#0x05	; 1466
      001EE8 1B 00                 5549 	.byte #0x1B,#0x00	; 27
      001EEA 6E 04                 5550 	.byte #0x6E,#0x04	; 1134
      001EEC 84 04                 5551 	.byte #0x84,#0x04	; 1156
      001EEE F1 00                 5552 	.byte #0xF1,#0x00	; 241
      001EF0 B3 03                 5553 	.byte #0xB3,#0x03	; 947
      001EF2 C6 07                 5554 	.byte #0xC6,#0x07	; 1990
      001EF4 2C 07                 5555 	.byte #0x2C,#0x07	; 1836
      001EF6 59 03                 5556 	.byte #0x59,#0x03	; 857
      001EF8 F8 06                 5557 	.byte #0xF8,#0x06	; 1784
      001EFA 8D 02                 5558 	.byte #0x8D,#0x02	; 653
      001EFC 67 02                 5559 	.byte #0x67,#0x02	; 615
      001EFE 12 06                 5560 	.byte #0x12,#0x06	; 1554
      001F00 A4 00                 5561 	.byte #0xA4,#0x00	; 164
      001F02 D1 04                 5562 	.byte #0xD1,#0x04	; 1233
      001F04 3B 04                 5563 	.byte #0x3B,#0x04	; 1083
      001F06 4E 00                 5564 	.byte #0x4E,#0x00	; 78
      001F08 EF 05                 5565 	.byte #0xEF,#0x05	; 1519
      001F0A 9A 01                 5566 	.byte #0x9A,#0x01	; 410
      001F0C 70 01                 5567 	.byte #0x70,#0x01	; 368
      001F0E 05 05                 5568 	.byte #0x05,#0x05	; 1285
      001F10 47 06                 5569 	.byte #0x47,#0x06	; 1607
      001F12 32 02                 5570 	.byte #0x32,#0x02	; 562
      001F14 D8 02                 5571 	.byte #0xD8,#0x02	; 728
      001F16 AD 06                 5572 	.byte #0xAD,#0x06	; 1709
      001F18 0C 03                 5573 	.byte #0x0C,#0x03	; 780
      001F1A 79 07                 5574 	.byte #0x79,#0x07	; 1913
      001F1C 93 07                 5575 	.byte #0x93,#0x07	; 1939
      001F1E E6 03                 5576 	.byte #0xE6,#0x03	; 998
      001F20 17 01                 5577 	.byte #0x17,#0x01	; 279
      001F22 62 05                 5578 	.byte #0x62,#0x05	; 1378
      001F24 88 05                 5579 	.byte #0x88,#0x05	; 1416
      001F26 FD 01                 5580 	.byte #0xFD,#0x01	; 509
      001F28 5C 04                 5581 	.byte #0x5C,#0x04	; 1116
      001F2A 29 00                 5582 	.byte #0x29,#0x00	; 41
      001F2C C3 00                 5583 	.byte #0xC3,#0x00	; 195
      001F2E B6 04                 5584 	.byte #0xB6,#0x04	; 1206
      001F30 F4 07                 5585 	.byte #0xF4,#0x07	; 2036
      001F32 81 03                 5586 	.byte #0x81,#0x03	; 897
      001F34 6B 03                 5587 	.byte #0x6B,#0x03	; 875
      001F36 1E 07                 5588 	.byte #0x1E,#0x07	; 1822
      001F38 BF 02                 5589 	.byte #0xBF,#0x02	; 703
      001F3A CA 06                 5590 	.byte #0xCA,#0x06	; 1738
      001F3C 20 06                 5591 	.byte #0x20,#0x06	; 1568
      001F3E 55 02                 5592 	.byte #0x55,#0x02	; 597
      001F40 C2 03                 5593 	.byte #0xC2,#0x03	; 962
      001F42 B7 07                 5594 	.byte #0xB7,#0x07	; 1975
      001F44 5D 07                 5595 	.byte #0x5D,#0x07	; 1885
      001F46 28 03                 5596 	.byte #0x28,#0x03	; 808
      001F48 89 06                 5597 	.byte #0x89,#0x06	; 1673
      001F4A FC 02                 5598 	.byte #0xFC,#0x02	; 764
      001F4C 16 02                 5599 	.byte #0x16,#0x02	; 534
      001F4E 63 06                 5600 	.byte #0x63,#0x06	; 1635
      001F50 21 05                 5601 	.byte #0x21,#0x05	; 1313
      001F52 54 01                 5602 	.byte #0x54,#0x01	; 340
      001F54 BE 01                 5603 	.byte #0xBE,#0x01	; 446
      001F56 CB 05                 5604 	.byte #0xCB,#0x05	; 1483
      001F58 6A 00                 5605 	.byte #0x6A,#0x00	; 106
      001F5A 1F 04                 5606 	.byte #0x1F,#0x04	; 1055
      001F5C F5 04                 5607 	.byte #0xF5,#0x04	; 1269
      001F5E 80 00                 5608 	.byte #0x80,#0x00	; 128
      001F60 71 02                 5609 	.byte #0x71,#0x02	; 625
      001F62 04 06                 5610 	.byte #0x04,#0x06	; 1540
      001F64 EE 06                 5611 	.byte #0xEE,#0x06	; 1774
      001F66 9B 02                 5612 	.byte #0x9B,#0x02	; 667
      001F68 3A 07                 5613 	.byte #0x3A,#0x07	; 1850
      001F6A 4F 03                 5614 	.byte #0x4F,#0x03	; 847
      001F6C A5 03                 5615 	.byte #0xA5,#0x03	; 933
      001F6E D0 07                 5616 	.byte #0xD0,#0x07	; 2000
      001F70 92 04                 5617 	.byte #0x92,#0x04	; 1170
      001F72 E7 00                 5618 	.byte #0xE7,#0x00	; 231
      001F74 0D 00                 5619 	.byte #0x0D,#0x00	; 13
      001F76 78 04                 5620 	.byte #0x78,#0x04	; 1144
      001F78 D9 01                 5621 	.byte #0xD9,#0x01	; 473
      001F7A AC 05                 5622 	.byte #0xAC,#0x05	; 1452
      001F7C 46 05                 5623 	.byte #0x46,#0x05	; 1350
      001F7E 33 01                 5624 	.byte #0x33,#0x01	; 307
      001F80 68 06                 5625 	.byte #0x68,#0x06	; 1640
      001F82 1D 02                 5626 	.byte #0x1D,#0x02	; 541
      001F84 F7 02                 5627 	.byte #0xF7,#0x02	; 759
      001F86 82 06                 5628 	.byte #0x82,#0x06	; 1666
      001F88 23 03                 5629 	.byte #0x23,#0x03	; 803
      001F8A 56 07                 5630 	.byte #0x56,#0x07	; 1878
      001F8C BC 07                 5631 	.byte #0xBC,#0x07	; 1980
      001F8E C9 03                 5632 	.byte #0xC9,#0x03	; 969
      001F90 8B 00                 5633 	.byte #0x8B,#0x00	; 139
      001F92 FE 04                 5634 	.byte #0xFE,#0x04	; 1278
      001F94 14 04                 5635 	.byte #0x14,#0x04	; 1044
      001F96 61 00                 5636 	.byte #0x61,#0x00	; 97
      001F98 C0 05                 5637 	.byte #0xC0,#0x05	; 1472
      001F9A B5 01                 5638 	.byte #0xB5,#0x01	; 437
      001F9C 5F 01                 5639 	.byte #0x5F,#0x01	; 351
      001F9E 2A 05                 5640 	.byte #0x2A,#0x05	; 1322
      001FA0 DB 07                 5641 	.byte #0xDB,#0x07	; 2011
      001FA2 AE 03                 5642 	.byte #0xAE,#0x03	; 942
      001FA4 44 03                 5643 	.byte #0x44,#0x03	; 836
      001FA6 31 07                 5644 	.byte #0x31,#0x07	; 1841
      001FA8 90 02                 5645 	.byte #0x90,#0x02	; 656
      001FAA E5 06                 5646 	.byte #0xE5,#0x06	; 1765
      001FAC 0F 06                 5647 	.byte #0x0F,#0x06	; 1551
      001FAE 7A 02                 5648 	.byte #0x7A,#0x02	; 634
      001FB0 38 01                 5649 	.byte #0x38,#0x01	; 312
      001FB2 4D 05                 5650 	.byte #0x4D,#0x05	; 1357
      001FB4 A7 05                 5651 	.byte #0xA7,#0x05	; 1447
      001FB6 D2 01                 5652 	.byte #0xD2,#0x01	; 466
      001FB8 73 04                 5653 	.byte #0x73,#0x04	; 1139
      001FBA 06 00                 5654 	.byte #0x06,#0x00	; 6
      001FBC EC 00                 5655 	.byte #0xEC,#0x00	; 236
      001FBE 99 04                 5656 	.byte #0x99,#0x04	; 1177
      001FC0 0E 05                 5657 	.byte #0x0E,#0x05	; 1294
      001FC2 7B 01                 5658 	.byte #0x7B,#0x01	; 379
      001FC4 91 01                 5659 	.byte #0x91,#0x01	; 401
      001FC6 E4 05                 5660 	.byte #0xE4,#0x05	; 1508
      001FC8 45 00                 5661 	.byte #0x45,#0x00	; 69
      001FCA 30 04                 5662 	.byte #0x30,#0x04	; 1072
      001FCC DA 04                 5663 	.byte #0xDA,#0x04	; 1242
      001FCE AF 00                 5664 	.byte #0xAF,#0x00	; 175
      001FD0 ED 03                 5665 	.byte #0xED,#0x03	; 1005
      001FD2 98 07                 5666 	.byte #0x98,#0x07	; 1944
      001FD4 72 07                 5667 	.byte #0x72,#0x07	; 1906
      001FD6 07 03                 5668 	.byte #0x07,#0x03	; 775
      001FD8 A6 06                 5669 	.byte #0xA6,#0x06	; 1702
      001FDA D3 02                 5670 	.byte #0xD3,#0x02	; 723
      001FDC 39 02                 5671 	.byte #0x39,#0x02	; 569
      001FDE 4C 06                 5672 	.byte #0x4C,#0x06	; 1612
      001FE0 BD 04                 5673 	.byte #0xBD,#0x04	; 1213
      001FE2 C8 00                 5674 	.byte #0xC8,#0x00	; 200
      001FE4 22 00                 5675 	.byte #0x22,#0x00	; 34
      001FE6 57 04                 5676 	.byte #0x57,#0x04	; 1111
      001FE8 F6 01                 5677 	.byte #0xF6,#0x01	; 502
      001FEA 83 05                 5678 	.byte #0x83,#0x05	; 1411
      001FEC 69 05                 5679 	.byte #0x69,#0x05	; 1385
      001FEE 1C 01                 5680 	.byte #0x1C,#0x01	; 284
      001FF0 5E 02                 5681 	.byte #0x5E,#0x02	; 606
      001FF2 2B 06                 5682 	.byte #0x2B,#0x06	; 1579
      001FF4 C1 06                 5683 	.byte #0xC1,#0x06	; 1729
      001FF6 B4 02                 5684 	.byte #0xB4,#0x02	; 692
      001FF8 15 07                 5685 	.byte #0x15,#0x07	; 1813
      001FFA 60 03                 5686 	.byte #0x60,#0x03	; 864
      001FFC 8A 03                 5687 	.byte #0x8A,#0x03	; 906
      001FFE FF 07                 5688 	.byte #0xFF,#0x07	; 2047
      002000                       5689 _golay23_decode:
      002000 00 00                 5690 	.byte #0x00,#0x00	; 0
      002002 00 00                 5691 	.byte #0x00,#0x00	; 0
      002004 00 00                 5692 	.byte #0x00,#0x00	; 0
      002006 00 00                 5693 	.byte #0x00,#0x00	; 0
      002008 00 00                 5694 	.byte #0x00,#0x00	; 0
      00200A 00 00                 5695 	.byte #0x00,#0x00	; 0
      00200C 00 00                 5696 	.byte #0x00,#0x00	; 0
      00200E 00 00                 5697 	.byte #0x00,#0x00	; 0
      002010 00 00                 5698 	.byte #0x00,#0x00	; 0
      002012 00 00                 5699 	.byte #0x00,#0x00	; 0
      002014 00 00                 5700 	.byte #0x00,#0x00	; 0
      002016 00 00                 5701 	.byte #0x00,#0x00	; 0
      002018 00 00                 5702 	.byte #0x00,#0x00	; 0
      00201A 00 00                 5703 	.byte #0x00,#0x00	; 0
      00201C 00 00                 5704 	.byte #0x00,#0x00	; 0
      00201E 48 00                 5705 	.byte #0x48,#0x00	; 72
      002020 00 00                 5706 	.byte #0x00,#0x00	; 0
      002022 00 00                 5707 	.byte #0x00,#0x00	; 0
      002024 00 00                 5708 	.byte #0x00,#0x00	; 0
      002026 00 00                 5709 	.byte #0x00,#0x00	; 0
      002028 00 00                 5710 	.byte #0x00,#0x00	; 0
      00202A 00 00                 5711 	.byte #0x00,#0x00	; 0
      00202C 00 00                 5712 	.byte #0x00,#0x00	; 0
      00202E 24 08                 5713 	.byte #0x24,#0x08	; 2084
      002030 00 00                 5714 	.byte #0x00,#0x00	; 0
      002032 00 00                 5715 	.byte #0x00,#0x00	; 0
      002034 00 00                 5716 	.byte #0x00,#0x00	; 0
      002036 01 03                 5717 	.byte #0x01,#0x03	; 769
      002038 00 00                 5718 	.byte #0x00,#0x00	; 0
      00203A 00 04                 5719 	.byte #0x00,#0x04	; 1024
      00203C 90 00                 5720 	.byte #0x90,#0x00	; 144
      00203E 02 00                 5721 	.byte #0x02,#0x00	; 2
      002040 00 00                 5722 	.byte #0x00,#0x00	; 0
      002042 00 00                 5723 	.byte #0x00,#0x00	; 0
      002044 00 00                 5724 	.byte #0x00,#0x00	; 0
      002046 00 00                 5725 	.byte #0x00,#0x00	; 0
      002048 00 00                 5726 	.byte #0x00,#0x00	; 0
      00204A 00 00                 5727 	.byte #0x00,#0x00	; 0
      00204C 00 00                 5728 	.byte #0x00,#0x00	; 0
      00204E 48 00                 5729 	.byte #0x48,#0x00	; 72
      002050 00 00                 5730 	.byte #0x00,#0x00	; 0
      002052 00 00                 5731 	.byte #0x00,#0x00	; 0
      002054 00 00                 5732 	.byte #0x00,#0x00	; 0
      002056 48 00                 5733 	.byte #0x48,#0x00	; 72
      002058 00 00                 5734 	.byte #0x00,#0x00	; 0
      00205A 48 00                 5735 	.byte #0x48,#0x00	; 72
      00205C 48 00                 5736 	.byte #0x48,#0x00	; 72
      00205E 48 00                 5737 	.byte #0x48,#0x00	; 72
      002060 00 00                 5738 	.byte #0x00,#0x00	; 0
      002062 00 00                 5739 	.byte #0x00,#0x00	; 0
      002064 00 00                 5740 	.byte #0x00,#0x00	; 0
      002066 10 00                 5741 	.byte #0x10,#0x00	; 16
      002068 00 00                 5742 	.byte #0x00,#0x00	; 0
      00206A 01 00                 5743 	.byte #0x01,#0x00	; 1
      00206C 02 06                 5744 	.byte #0x02,#0x06	; 1538
      00206E 80 01                 5745 	.byte #0x80,#0x01	; 384
      002070 00 00                 5746 	.byte #0x00,#0x00	; 0
      002072 86 00                 5747 	.byte #0x86,#0x00	; 134
      002074 00 08                 5748 	.byte #0x00,#0x08	; 2048
      002076 20 04                 5749 	.byte #0x20,#0x04	; 1056
      002078 20 01                 5750 	.byte #0x20,#0x01	; 288
      00207A 10 0A                 5751 	.byte #0x10,#0x0A	; 2576
      00207C 05 00                 5752 	.byte #0x05,#0x00	; 5
      00207E 48 00                 5753 	.byte #0x48,#0x00	; 72
      002080 00 00                 5754 	.byte #0x00,#0x00	; 0
      002082 00 00                 5755 	.byte #0x00,#0x00	; 0
      002084 00 00                 5756 	.byte #0x00,#0x00	; 0
      002086 00 00                 5757 	.byte #0x00,#0x00	; 0
      002088 00 00                 5758 	.byte #0x00,#0x00	; 0
      00208A 00 00                 5759 	.byte #0x00,#0x00	; 0
      00208C 00 00                 5760 	.byte #0x00,#0x00	; 0
      00208E 00 05                 5761 	.byte #0x00,#0x05	; 1280
      002090 00 00                 5762 	.byte #0x00,#0x00	; 0
      002092 00 00                 5763 	.byte #0x00,#0x00	; 0
      002094 00 00                 5764 	.byte #0x00,#0x00	; 0
      002096 04 00                 5765 	.byte #0x04,#0x00	; 4
      002098 00 00                 5766 	.byte #0x00,#0x00	; 0
      00209A 22 02                 5767 	.byte #0x22,#0x02	; 546
      00209C 90 00                 5768 	.byte #0x90,#0x00	; 144
      00209E 01 08                 5769 	.byte #0x01,#0x08	; 2049
      0020A0 00 00                 5770 	.byte #0x00,#0x00	; 0
      0020A2 00 00                 5771 	.byte #0x00,#0x00	; 0
      0020A4 00 00                 5772 	.byte #0x00,#0x00	; 0
      0020A6 42 00                 5773 	.byte #0x42,#0x00	; 66
      0020A8 00 00                 5774 	.byte #0x00,#0x00	; 0
      0020AA 01 00                 5775 	.byte #0x01,#0x00	; 1
      0020AC 90 00                 5776 	.byte #0x90,#0x00	; 144
      0020AE 08 02                 5777 	.byte #0x08,#0x02	; 520
      0020B0 00 00                 5778 	.byte #0x00,#0x00	; 0
      0020B2 08 08                 5779 	.byte #0x08,#0x08	; 2056
      0020B4 90 00                 5780 	.byte #0x90,#0x00	; 144
      0020B6 20 04                 5781 	.byte #0x20,#0x04	; 1056
      0020B8 90 00                 5782 	.byte #0x90,#0x00	; 144
      0020BA 44 01                 5783 	.byte #0x44,#0x01	; 324
      0020BC 90 00                 5784 	.byte #0x90,#0x00	; 144
      0020BE 90 00                 5785 	.byte #0x90,#0x00	; 144
      0020C0 00 00                 5786 	.byte #0x00,#0x00	; 0
      0020C2 00 00                 5787 	.byte #0x00,#0x00	; 0
      0020C4 00 00                 5788 	.byte #0x00,#0x00	; 0
      0020C6 80 0A                 5789 	.byte #0x80,#0x0A	; 2688
      0020C8 00 00                 5790 	.byte #0x00,#0x00	; 0
      0020CA 01 00                 5791 	.byte #0x01,#0x00	; 1
      0020CC 20 00                 5792 	.byte #0x20,#0x00	; 32
      0020CE 16 00                 5793 	.byte #0x16,#0x00	; 22
      0020D0 00 00                 5794 	.byte #0x00,#0x00	; 0
      0020D2 10 01                 5795 	.byte #0x10,#0x01	; 272
      0020D4 03 00                 5796 	.byte #0x03,#0x00	; 3
      0020D6 20 04                 5797 	.byte #0x20,#0x04	; 1056
      0020D8 04 0C                 5798 	.byte #0x04,#0x0C	; 3076
      0020DA 80 00                 5799 	.byte #0x80,#0x00	; 128
      0020DC 00 03                 5800 	.byte #0x00,#0x03	; 768
      0020DE 48 00                 5801 	.byte #0x48,#0x00	; 72
      0020E0 00 00                 5802 	.byte #0x00,#0x00	; 0
      0020E2 01 00                 5803 	.byte #0x01,#0x00	; 1
      0020E4 0C 01                 5804 	.byte #0x0C,#0x01	; 268
      0020E6 20 04                 5805 	.byte #0x20,#0x04	; 1056
      0020E8 01 00                 5806 	.byte #0x01,#0x00	; 1
      0020EA 01 00                 5807 	.byte #0x01,#0x00	; 1
      0020EC 40 08                 5808 	.byte #0x40,#0x08	; 2112
      0020EE 01 00                 5809 	.byte #0x01,#0x00	; 1
      0020F0 40 02                 5810 	.byte #0x40,#0x02	; 576
      0020F2 20 04                 5811 	.byte #0x20,#0x04	; 1056
      0020F4 20 04                 5812 	.byte #0x20,#0x04	; 1056
      0020F6 20 04                 5813 	.byte #0x20,#0x04	; 1056
      0020F8 0A 00                 5814 	.byte #0x0A,#0x00	; 10
      0020FA 01 00                 5815 	.byte #0x01,#0x00	; 1
      0020FC 90 00                 5816 	.byte #0x90,#0x00	; 144
      0020FE 20 04                 5817 	.byte #0x20,#0x04	; 1056
      002100 00 00                 5818 	.byte #0x00,#0x00	; 0
      002102 00 00                 5819 	.byte #0x00,#0x00	; 0
      002104 00 00                 5820 	.byte #0x00,#0x00	; 0
      002106 00 00                 5821 	.byte #0x00,#0x00	; 0
      002108 00 00                 5822 	.byte #0x00,#0x00	; 0
      00210A 00 00                 5823 	.byte #0x00,#0x00	; 0
      00210C 00 00                 5824 	.byte #0x00,#0x00	; 0
      00210E 00 05                 5825 	.byte #0x00,#0x05	; 1280
      002110 00 00                 5826 	.byte #0x00,#0x00	; 0
      002112 00 00                 5827 	.byte #0x00,#0x00	; 0
      002114 00 00                 5828 	.byte #0x00,#0x00	; 0
      002116 A0 00                 5829 	.byte #0xA0,#0x00	; 160
      002118 00 00                 5830 	.byte #0x00,#0x00	; 0
      00211A 15 00                 5831 	.byte #0x15,#0x00	; 21
      00211C 00 0A                 5832 	.byte #0x00,#0x0A	; 2560
      00211E 02 00                 5833 	.byte #0x02,#0x00	; 2
      002120 00 00                 5834 	.byte #0x00,#0x00	; 0
      002122 00 00                 5835 	.byte #0x00,#0x00	; 0
      002124 00 00                 5836 	.byte #0x00,#0x00	; 0
      002126 10 00                 5837 	.byte #0x10,#0x00	; 16
      002128 00 00                 5838 	.byte #0x00,#0x00	; 0
      00212A C0 02                 5839 	.byte #0xC0,#0x02	; 704
      00212C 09 00                 5840 	.byte #0x09,#0x00	; 9
      00212E 02 00                 5841 	.byte #0x02,#0x00	; 2
      002130 00 00                 5842 	.byte #0x00,#0x00	; 0
      002132 08 08                 5843 	.byte #0x08,#0x08	; 2056
      002134 44 04                 5844 	.byte #0x44,#0x04	; 1092
      002136 02 00                 5845 	.byte #0x02,#0x00	; 2
      002138 20 01                 5846 	.byte #0x20,#0x01	; 288
      00213A 02 00                 5847 	.byte #0x02,#0x00	; 2
      00213C 02 00                 5848 	.byte #0x02,#0x00	; 2
      00213E 02 00                 5849 	.byte #0x02,#0x00	; 2
      002140 00 00                 5850 	.byte #0x00,#0x00	; 0
      002142 00 00                 5851 	.byte #0x00,#0x00	; 0
      002144 00 00                 5852 	.byte #0x00,#0x00	; 0
      002146 10 00                 5853 	.byte #0x10,#0x00	; 16
      002148 00 00                 5854 	.byte #0x00,#0x00	; 0
      00214A 02 08                 5855 	.byte #0x02,#0x08	; 2050
      00214C 84 00                 5856 	.byte #0x84,#0x00	; 132
      00214E 21 02                 5857 	.byte #0x21,#0x02	; 545
      002150 00 00                 5858 	.byte #0x00,#0x00	; 0
      002152 00 06                 5859 	.byte #0x00,#0x06	; 1536
      002154 03 00                 5860 	.byte #0x03,#0x00	; 3
      002156 04 09                 5861 	.byte #0x04,#0x09	; 2308
      002158 20 01                 5862 	.byte #0x20,#0x01	; 288
      00215A 80 00                 5863 	.byte #0x80,#0x00	; 128
      00215C 10 04                 5864 	.byte #0x10,#0x04	; 1040
      00215E 48 00                 5865 	.byte #0x48,#0x00	; 72
      002160 00 00                 5866 	.byte #0x00,#0x00	; 0
      002162 10 00                 5867 	.byte #0x10,#0x00	; 16
      002164 10 00                 5868 	.byte #0x10,#0x00	; 16
      002166 10 00                 5869 	.byte #0x10,#0x00	; 16
      002168 20 01                 5870 	.byte #0x20,#0x01	; 288
      00216A 0C 04                 5871 	.byte #0x0C,#0x04	; 1036
      00216C 40 08                 5872 	.byte #0x40,#0x08	; 2112
      00216E 10 00                 5873 	.byte #0x10,#0x00	; 16
      002170 20 01                 5874 	.byte #0x20,#0x01	; 288
      002172 41 00                 5875 	.byte #0x41,#0x00	; 65
      002174 88 02                 5876 	.byte #0x88,#0x02	; 648
      002176 10 00                 5877 	.byte #0x10,#0x00	; 16
      002178 20 01                 5878 	.byte #0x20,#0x01	; 288
      00217A 20 01                 5879 	.byte #0x20,#0x01	; 288
      00217C 20 01                 5880 	.byte #0x20,#0x01	; 288
      00217E 02 00                 5881 	.byte #0x02,#0x00	; 2
      002180 00 00                 5882 	.byte #0x00,#0x00	; 0
      002182 00 00                 5883 	.byte #0x00,#0x00	; 0
      002184 00 00                 5884 	.byte #0x00,#0x00	; 0
      002186 00 05                 5885 	.byte #0x00,#0x05	; 1280
      002188 00 00                 5886 	.byte #0x00,#0x00	; 0
      00218A 00 05                 5887 	.byte #0x00,#0x05	; 1280
      00218C 00 05                 5888 	.byte #0x00,#0x05	; 1280
      00218E 00 05                 5889 	.byte #0x00,#0x05	; 1280
      002190 00 00                 5890 	.byte #0x00,#0x00	; 0
      002192 08 08                 5891 	.byte #0x08,#0x08	; 2056
      002194 03 00                 5892 	.byte #0x03,#0x00	; 3
      002196 50 02                 5893 	.byte #0x50,#0x02	; 592
      002198 40 00                 5894 	.byte #0x40,#0x00	; 64
      00219A 80 00                 5895 	.byte #0x80,#0x00	; 128
      00219C 2C 00                 5896 	.byte #0x2C,#0x00	; 44
      00219E 00 05                 5897 	.byte #0x00,#0x05	; 1280
      0021A0 00 00                 5898 	.byte #0x00,#0x00	; 0
      0021A2 08 08                 5899 	.byte #0x08,#0x08	; 2056
      0021A4 20 02                 5900 	.byte #0x20,#0x02	; 544
      0021A6 85 00                 5901 	.byte #0x85,#0x00	; 133
      0021A8 06 00                 5902 	.byte #0x06,#0x00	; 6
      0021AA 30 00                 5903 	.byte #0x30,#0x00	; 48
      0021AC 40 08                 5904 	.byte #0x40,#0x08	; 2112
      0021AE 00 05                 5905 	.byte #0x00,#0x05	; 1280
      0021B0 08 08                 5906 	.byte #0x08,#0x08	; 2056
      0021B2 08 08                 5907 	.byte #0x08,#0x08	; 2056
      0021B4 00 01                 5908 	.byte #0x00,#0x01	; 256
      0021B6 08 08                 5909 	.byte #0x08,#0x08	; 2056
      0021B8 01 06                 5910 	.byte #0x01,#0x06	; 1537
      0021BA 08 08                 5911 	.byte #0x08,#0x08	; 2056
      0021BC 90 00                 5912 	.byte #0x90,#0x00	; 144
      0021BE 02 00                 5913 	.byte #0x02,#0x00	; 2
      0021C0 00 00                 5914 	.byte #0x00,#0x00	; 0
      0021C2 64 00                 5915 	.byte #0x64,#0x00	; 100
      0021C4 03 00                 5916 	.byte #0x03,#0x00	; 3
      0021C6 08 00                 5917 	.byte #0x08,#0x00	; 8
      0021C8 18 02                 5918 	.byte #0x18,#0x02	; 536
      0021CA 80 00                 5919 	.byte #0x80,#0x00	; 128
      0021CC 40 08                 5920 	.byte #0x40,#0x08	; 2112
      0021CE 00 05                 5921 	.byte #0x00,#0x05	; 1280
      0021D0 03 00                 5922 	.byte #0x03,#0x00	; 3
      0021D2 80 00                 5923 	.byte #0x80,#0x00	; 128
      0021D4 03 00                 5924 	.byte #0x03,#0x00	; 3
      0021D6 03 00                 5925 	.byte #0x03,#0x00	; 3
      0021D8 80 00                 5926 	.byte #0x80,#0x00	; 128
      0021DA 80 00                 5927 	.byte #0x80,#0x00	; 128
      0021DC 03 00                 5928 	.byte #0x03,#0x00	; 3
      0021DE 80 00                 5929 	.byte #0x80,#0x00	; 128
      0021E0 80 04                 5930 	.byte #0x80,#0x04	; 1152
      0021E2 02 03                 5931 	.byte #0x02,#0x03	; 770
      0021E4 40 08                 5932 	.byte #0x40,#0x08	; 2112
      0021E6 10 00                 5933 	.byte #0x10,#0x00	; 16
      0021E8 40 08                 5934 	.byte #0x40,#0x08	; 2112
      0021EA 01 00                 5935 	.byte #0x01,#0x00	; 1
      0021EC 40 08                 5936 	.byte #0x40,#0x08	; 2112
      0021EE 40 08                 5937 	.byte #0x40,#0x08	; 2112
      0021F0 14 00                 5938 	.byte #0x14,#0x00	; 20
      0021F2 08 08                 5939 	.byte #0x08,#0x08	; 2056
      0021F4 03 00                 5940 	.byte #0x03,#0x00	; 3
      0021F6 20 04                 5941 	.byte #0x20,#0x04	; 1056
      0021F8 20 01                 5942 	.byte #0x20,#0x01	; 288
      0021FA 80 00                 5943 	.byte #0x80,#0x00	; 128
      0021FC 40 08                 5944 	.byte #0x40,#0x08	; 2112
      0021FE 04 02                 5945 	.byte #0x04,#0x02	; 516
      002200 00 00                 5946 	.byte #0x00,#0x00	; 0
      002202 00 00                 5947 	.byte #0x00,#0x00	; 0
      002204 00 00                 5948 	.byte #0x00,#0x00	; 0
      002206 00 00                 5949 	.byte #0x00,#0x00	; 0
      002208 00 00                 5950 	.byte #0x00,#0x00	; 0
      00220A 00 00                 5951 	.byte #0x00,#0x00	; 0
      00220C 00 00                 5952 	.byte #0x00,#0x00	; 0
      00220E 83 00                 5953 	.byte #0x83,#0x00	; 131
      002210 00 00                 5954 	.byte #0x00,#0x00	; 0
      002212 00 00                 5955 	.byte #0x00,#0x00	; 0
      002214 00 00                 5956 	.byte #0x00,#0x00	; 0
      002216 04 00                 5957 	.byte #0x04,#0x00	; 4
      002218 00 00                 5958 	.byte #0x00,#0x00	; 0
      00221A 00 04                 5959 	.byte #0x00,#0x04	; 1024
      00221C 00 0A                 5960 	.byte #0x00,#0x0A	; 2560
      00221E 30 01                 5961 	.byte #0x30,#0x01	; 304
      002220 00 00                 5962 	.byte #0x00,#0x00	; 0
      002222 00 00                 5963 	.byte #0x00,#0x00	; 0
      002224 00 00                 5964 	.byte #0x00,#0x00	; 0
      002226 10 00                 5965 	.byte #0x10,#0x00	; 16
      002228 00 00                 5966 	.byte #0x00,#0x00	; 0
      00222A 00 04                 5967 	.byte #0x00,#0x04	; 1024
      00222C 40 01                 5968 	.byte #0x40,#0x01	; 320
      00222E 08 02                 5969 	.byte #0x08,#0x02	; 520
      002230 00 00                 5970 	.byte #0x00,#0x00	; 0
      002232 00 04                 5971 	.byte #0x00,#0x04	; 1024
      002234 2A 00                 5972 	.byte #0x2A,#0x00	; 42
      002236 C0 08                 5973 	.byte #0xC0,#0x08	; 2240
      002238 00 04                 5974 	.byte #0x00,#0x04	; 1024
      00223A 00 04                 5975 	.byte #0x00,#0x04	; 1024
      00223C 05 00                 5976 	.byte #0x05,#0x00	; 5
      00223E 00 04                 5977 	.byte #0x00,#0x04	; 1024
      002240 00 00                 5978 	.byte #0x00,#0x00	; 0
      002242 00 00                 5979 	.byte #0x00,#0x00	; 0
      002244 00 00                 5980 	.byte #0x00,#0x00	; 0
      002246 10 00                 5981 	.byte #0x10,#0x00	; 16
      002248 00 00                 5982 	.byte #0x00,#0x00	; 0
      00224A 04 03                 5983 	.byte #0x04,#0x03	; 772
      00224C 20 00                 5984 	.byte #0x20,#0x00	; 32
      00224E 00 0C                 5985 	.byte #0x00,#0x0C	; 3072
      002250 00 00                 5986 	.byte #0x00,#0x00	; 0
      002252 21 08                 5987 	.byte #0x21,#0x08	; 2081
      002254 80 05                 5988 	.byte #0x80,#0x05	; 1408
      002256 02 02                 5989 	.byte #0x02,#0x02	; 514
      002258 12 00                 5990 	.byte #0x12,#0x00	; 18
      00225A 80 00                 5991 	.byte #0x80,#0x00	; 128
      00225C 05 00                 5992 	.byte #0x05,#0x00	; 5
      00225E 48 00                 5993 	.byte #0x48,#0x00	; 72
      002260 00 00                 5994 	.byte #0x00,#0x00	; 0
      002262 10 00                 5995 	.byte #0x10,#0x00	; 16
      002264 10 00                 5996 	.byte #0x10,#0x00	; 16
      002266 10 00                 5997 	.byte #0x10,#0x00	; 16
      002268 88 08                 5998 	.byte #0x88,#0x08	; 2184
      00226A 62 00                 5999 	.byte #0x62,#0x00	; 98
      00226C 05 00                 6000 	.byte #0x05,#0x00	; 5
      00226E 10 00                 6001 	.byte #0x10,#0x00	; 16
      002270 40 02                 6002 	.byte #0x40,#0x02	; 576
      002272 08 01                 6003 	.byte #0x08,#0x01	; 264
      002274 05 00                 6004 	.byte #0x05,#0x00	; 5
      002276 10 00                 6005 	.byte #0x10,#0x00	; 16
      002278 05 00                 6006 	.byte #0x05,#0x00	; 5
      00227A 00 04                 6007 	.byte #0x00,#0x04	; 1024
      00227C 05 00                 6008 	.byte #0x05,#0x00	; 5
      00227E 05 00                 6009 	.byte #0x05,#0x00	; 5
      002280 00 00                 6010 	.byte #0x00,#0x00	; 0
      002282 00 00                 6011 	.byte #0x00,#0x00	; 0
      002284 00 00                 6012 	.byte #0x00,#0x00	; 0
      002286 04 00                 6013 	.byte #0x04,#0x00	; 4
      002288 00 00                 6014 	.byte #0x00,#0x00	; 0
      00228A 50 08                 6015 	.byte #0x50,#0x08	; 2128
      00228C 20 00                 6016 	.byte #0x20,#0x00	; 32
      00228E 08 02                 6017 	.byte #0x08,#0x02	; 520
      002290 00 00                 6018 	.byte #0x00,#0x00	; 0
      002292 04 00                 6019 	.byte #0x04,#0x00	; 4
      002294 04 00                 6020 	.byte #0x04,#0x00	; 4
      002296 04 00                 6021 	.byte #0x04,#0x00	; 4
      002298 09 01                 6022 	.byte #0x09,#0x01	; 265
      00229A 80 00                 6023 	.byte #0x80,#0x00	; 128
      00229C 42 04                 6024 	.byte #0x42,#0x04	; 1090
      00229E 04 00                 6025 	.byte #0x04,#0x00	; 4
      0022A0 00 00                 6026 	.byte #0x00,#0x00	; 0
      0022A2 A0 01                 6027 	.byte #0xA0,#0x01	; 416
      0022A4 01 0C                 6028 	.byte #0x01,#0x0C	; 3073
      0022A6 08 02                 6029 	.byte #0x08,#0x02	; 520
      0022A8 06 00                 6030 	.byte #0x06,#0x00	; 6
      0022AA 08 02                 6031 	.byte #0x08,#0x02	; 520
      0022AC 08 02                 6032 	.byte #0x08,#0x02	; 520
      0022AE 08 02                 6033 	.byte #0x08,#0x02	; 520
      0022B0 40 02                 6034 	.byte #0x40,#0x02	; 576
      0022B2 13 00                 6035 	.byte #0x13,#0x00	; 19
      0022B4 00 01                 6036 	.byte #0x00,#0x01	; 256
      0022B6 04 00                 6037 	.byte #0x04,#0x00	; 4
      0022B8 20 08                 6038 	.byte #0x20,#0x08	; 2080
      0022BA 00 04                 6039 	.byte #0x00,#0x04	; 1024
      0022BC 90 00                 6040 	.byte #0x90,#0x00	; 144
      0022BE 08 02                 6041 	.byte #0x08,#0x02	; 520
      0022C0 00 00                 6042 	.byte #0x00,#0x00	; 0
      0022C2 0A 04                 6043 	.byte #0x0A,#0x04	; 1034
      0022C4 20 00                 6044 	.byte #0x20,#0x00	; 32
      0022C6 41 01                 6045 	.byte #0x41,#0x01	; 321
      0022C8 20 00                 6046 	.byte #0x20,#0x00	; 32
      0022CA 80 00                 6047 	.byte #0x80,#0x00	; 128
      0022CC 20 00                 6048 	.byte #0x20,#0x00	; 32
      0022CE 20 00                 6049 	.byte #0x20,#0x00	; 32
      0022D0 40 02                 6050 	.byte #0x40,#0x02	; 576
      0022D2 80 00                 6051 	.byte #0x80,#0x00	; 128
      0022D4 18 08                 6052 	.byte #0x18,#0x08	; 2072
      0022D6 04 00                 6053 	.byte #0x04,#0x00	; 4
      0022D8 80 00                 6054 	.byte #0x80,#0x00	; 128
      0022DA 80 00                 6055 	.byte #0x80,#0x00	; 128
      0022DC 20 00                 6056 	.byte #0x20,#0x00	; 32
      0022DE 80 00                 6057 	.byte #0x80,#0x00	; 128
      0022E0 40 02                 6058 	.byte #0x40,#0x02	; 576
      0022E2 04 08                 6059 	.byte #0x04,#0x08	; 2052
      0022E4 82 00                 6060 	.byte #0x82,#0x00	; 130
      0022E6 10 00                 6061 	.byte #0x10,#0x00	; 16
      0022E8 10 05                 6062 	.byte #0x10,#0x05	; 1296
      0022EA 01 00                 6063 	.byte #0x01,#0x00	; 1
      0022EC 20 00                 6064 	.byte #0x20,#0x00	; 32
      0022EE 08 02                 6065 	.byte #0x08,#0x02	; 520
      0022F0 40 02                 6066 	.byte #0x40,#0x02	; 576
      0022F2 40 02                 6067 	.byte #0x40,#0x02	; 576
      0022F4 40 02                 6068 	.byte #0x40,#0x02	; 576
      0022F6 20 04                 6069 	.byte #0x20,#0x04	; 1056
      0022F8 40 02                 6070 	.byte #0x40,#0x02	; 576
      0022FA 80 00                 6071 	.byte #0x80,#0x00	; 128
      0022FC 05 00                 6072 	.byte #0x05,#0x00	; 5
      0022FE 02 09                 6073 	.byte #0x02,#0x09	; 2306
      002300 00 00                 6074 	.byte #0x00,#0x00	; 0
      002302 00 00                 6075 	.byte #0x00,#0x00	; 0
      002304 00 00                 6076 	.byte #0x00,#0x00	; 0
      002306 10 00                 6077 	.byte #0x10,#0x00	; 16
      002308 00 00                 6078 	.byte #0x00,#0x00	; 0
      00230A 28 00                 6079 	.byte #0x28,#0x00	; 40
      00230C 00 0A                 6080 	.byte #0x00,#0x0A	; 2560
      00230E 44 00                 6081 	.byte #0x44,#0x00	; 68
      002310 00 00                 6082 	.byte #0x00,#0x00	; 0
      002312 42 01                 6083 	.byte #0x42,#0x01	; 322
      002314 00 0A                 6084 	.byte #0x00,#0x0A	; 2560
      002316 09 04                 6085 	.byte #0x09,#0x04	; 1033
      002318 00 0A                 6086 	.byte #0x00,#0x0A	; 2560
      00231A 80 00                 6087 	.byte #0x80,#0x00	; 128
      00231C 00 0A                 6088 	.byte #0x00,#0x0A	; 2560
      00231E 00 0A                 6089 	.byte #0x00,#0x0A	; 2560
      002320 00 00                 6090 	.byte #0x00,#0x00	; 0
      002322 10 00                 6091 	.byte #0x10,#0x00	; 16
      002324 10 00                 6092 	.byte #0x10,#0x00	; 16
      002326 10 00                 6093 	.byte #0x10,#0x00	; 16
      002328 06 00                 6094 	.byte #0x06,#0x00	; 6
      00232A 01 09                 6095 	.byte #0x01,#0x09	; 2305
      00232C A0 04                 6096 	.byte #0xA0,#0x04	; 1184
      00232E 10 00                 6097 	.byte #0x10,#0x00	; 16
      002330 81 00                 6098 	.byte #0x81,#0x00	; 129
      002332 24 02                 6099 	.byte #0x24,#0x02	; 548
      002334 00 01                 6100 	.byte #0x00,#0x01	; 256
      002336 10 00                 6101 	.byte #0x10,#0x00	; 16
      002338 58 00                 6102 	.byte #0x58,#0x00	; 88
      00233A 00 04                 6103 	.byte #0x00,#0x04	; 1024
      00233C 00 0A                 6104 	.byte #0x00,#0x0A	; 2560
      00233E 02 00                 6105 	.byte #0x02,#0x00	; 2
      002340 00 00                 6106 	.byte #0x00,#0x00	; 0
      002342 10 00                 6107 	.byte #0x10,#0x00	; 16
      002344 10 00                 6108 	.byte #0x10,#0x00	; 16
      002346 10 00                 6109 	.byte #0x10,#0x00	; 16
      002348 41 04                 6110 	.byte #0x41,#0x04	; 1089
      00234A 80 00                 6111 	.byte #0x80,#0x00	; 128
      00234C 0A 01                 6112 	.byte #0x0A,#0x01	; 266
      00234E 10 00                 6113 	.byte #0x10,#0x00	; 16
      002350 0C 00                 6114 	.byte #0x0C,#0x00	; 12
      002352 80 00                 6115 	.byte #0x80,#0x00	; 128
      002354 60 00                 6116 	.byte #0x60,#0x00	; 96
      002356 10 00                 6117 	.byte #0x10,#0x00	; 16
      002358 80 00                 6118 	.byte #0x80,#0x00	; 128
      00235A 80 00                 6119 	.byte #0x80,#0x00	; 128
      00235C 00 0A                 6120 	.byte #0x00,#0x0A	; 2560
      00235E 80 00                 6121 	.byte #0x80,#0x00	; 128
      002360 10 00                 6122 	.byte #0x10,#0x00	; 16
      002362 10 00                 6123 	.byte #0x10,#0x00	; 16
      002364 10 00                 6124 	.byte #0x10,#0x00	; 16
      002366 10 00                 6125 	.byte #0x10,#0x00	; 16
      002368 00 02                 6126 	.byte #0x00,#0x02	; 512
      00236A 10 00                 6127 	.byte #0x10,#0x00	; 16
      00236C 10 00                 6128 	.byte #0x10,#0x00	; 16
      00236E 10 00                 6129 	.byte #0x10,#0x00	; 16
      002370 02 0C                 6130 	.byte #0x02,#0x0C	; 3074
      002372 10 00                 6131 	.byte #0x10,#0x00	; 16
      002374 10 00                 6132 	.byte #0x10,#0x00	; 16
      002376 10 00                 6133 	.byte #0x10,#0x00	; 16
      002378 20 01                 6134 	.byte #0x20,#0x01	; 288
      00237A 80 00                 6135 	.byte #0x80,#0x00	; 128
      00237C 05 00                 6136 	.byte #0x05,#0x00	; 5
      00237E 10 00                 6137 	.byte #0x10,#0x00	; 16
      002380 00 00                 6138 	.byte #0x00,#0x00	; 0
      002382 01 02                 6139 	.byte #0x01,#0x02	; 513
      002384 C8 00                 6140 	.byte #0xC8,#0x00	; 200
      002386 22 08                 6141 	.byte #0x22,#0x08	; 2082
      002388 06 00                 6142 	.byte #0x06,#0x00	; 6
      00238A 80 00                 6143 	.byte #0x80,#0x00	; 128
      00238C 11 00                 6144 	.byte #0x11,#0x00	; 17
      00238E 00 05                 6145 	.byte #0x00,#0x05	; 1280
      002390 30 04                 6146 	.byte #0x30,#0x04	; 1072
      002392 80 00                 6147 	.byte #0x80,#0x00	; 128
      002394 00 01                 6148 	.byte #0x00,#0x01	; 256
      002396 04 00                 6149 	.byte #0x04,#0x00	; 4
      002398 80 00                 6150 	.byte #0x80,#0x00	; 128
      00239A 80 00                 6151 	.byte #0x80,#0x00	; 128
      00239C 00 0A                 6152 	.byte #0x00,#0x0A	; 2560
      00239E 80 00                 6153 	.byte #0x80,#0x00	; 128
      0023A0 06 00                 6154 	.byte #0x06,#0x00	; 6
      0023A2 40 04                 6155 	.byte #0x40,#0x04	; 1088
      0023A4 00 01                 6156 	.byte #0x00,#0x01	; 256
      0023A6 10 00                 6157 	.byte #0x10,#0x00	; 16
      0023A8 06 00                 6158 	.byte #0x06,#0x00	; 6
      0023AA 06 00                 6159 	.byte #0x06,#0x00	; 6
      0023AC 06 00                 6160 	.byte #0x06,#0x00	; 6
      0023AE 08 02                 6161 	.byte #0x08,#0x02	; 520
      0023B0 00 01                 6162 	.byte #0x00,#0x01	; 256
      0023B2 08 08                 6163 	.byte #0x08,#0x08	; 2056
      0023B4 00 01                 6164 	.byte #0x00,#0x01	; 256
      0023B6 00 01                 6165 	.byte #0x00,#0x01	; 256
      0023B8 06 00                 6166 	.byte #0x06,#0x00	; 6
      0023BA 80 00                 6167 	.byte #0x80,#0x00	; 128
      0023BC 00 01                 6168 	.byte #0x00,#0x01	; 256
      0023BE 61 00                 6169 	.byte #0x61,#0x00	; 97
      0023C0 00 09                 6170 	.byte #0x00,#0x09	; 2304
      0023C2 80 00                 6171 	.byte #0x80,#0x00	; 128
      0023C4 04 06                 6172 	.byte #0x04,#0x06	; 1540
      0023C6 10 00                 6173 	.byte #0x10,#0x00	; 16
      0023C8 80 00                 6174 	.byte #0x80,#0x00	; 128
      0023CA 80 00                 6175 	.byte #0x80,#0x00	; 128
      0023CC 20 00                 6176 	.byte #0x20,#0x00	; 32
      0023CE 80 00                 6177 	.byte #0x80,#0x00	; 128
      0023D0 80 00                 6178 	.byte #0x80,#0x00	; 128
      0023D2 80 00                 6179 	.byte #0x80,#0x00	; 128
      0023D4 03 00                 6180 	.byte #0x03,#0x00	; 3
      0023D6 80 00                 6181 	.byte #0x80,#0x00	; 128
      0023D8 80 00                 6182 	.byte #0x80,#0x00	; 128
      0023DA 80 00                 6183 	.byte #0x80,#0x00	; 128
      0023DC 80 00                 6184 	.byte #0x80,#0x00	; 128
      0023DE 80 00                 6185 	.byte #0x80,#0x00	; 128
      0023E0 29 00                 6186 	.byte #0x29,#0x00	; 41
      0023E2 10 00                 6187 	.byte #0x10,#0x00	; 16
      0023E4 10 00                 6188 	.byte #0x10,#0x00	; 16
      0023E6 10 00                 6189 	.byte #0x10,#0x00	; 16
      0023E8 06 00                 6190 	.byte #0x06,#0x00	; 6
      0023EA 80 00                 6191 	.byte #0x80,#0x00	; 128
      0023EC 40 08                 6192 	.byte #0x40,#0x08	; 2112
      0023EE 10 00                 6193 	.byte #0x10,#0x00	; 16
      0023F0 40 02                 6194 	.byte #0x40,#0x02	; 576
      0023F2 80 00                 6195 	.byte #0x80,#0x00	; 128
      0023F4 00 01                 6196 	.byte #0x00,#0x01	; 256
      0023F6 10 00                 6197 	.byte #0x10,#0x00	; 16
      0023F8 80 00                 6198 	.byte #0x80,#0x00	; 128
      0023FA 80 00                 6199 	.byte #0x80,#0x00	; 128
      0023FC 08 04                 6200 	.byte #0x08,#0x04	; 1032
      0023FE 80 00                 6201 	.byte #0x80,#0x00	; 128
      002400 00 00                 6202 	.byte #0x00,#0x00	; 0
      002402 00 00                 6203 	.byte #0x00,#0x00	; 0
      002404 00 00                 6204 	.byte #0x00,#0x00	; 0
      002406 00 00                 6205 	.byte #0x00,#0x00	; 0
      002408 00 00                 6206 	.byte #0x00,#0x00	; 0
      00240A 00 00                 6207 	.byte #0x00,#0x00	; 0
      00240C 00 00                 6208 	.byte #0x00,#0x00	; 0
      00240E 10 02                 6209 	.byte #0x10,#0x02	; 528
      002410 00 00                 6210 	.byte #0x00,#0x00	; 0
      002412 00 00                 6211 	.byte #0x00,#0x00	; 0
      002414 00 00                 6212 	.byte #0x00,#0x00	; 0
      002416 A0 00                 6213 	.byte #0xA0,#0x00	; 160
      002418 00 00                 6214 	.byte #0x00,#0x00	; 0
      00241A 00 04                 6215 	.byte #0x00,#0x04	; 1024
      00241C 06 01                 6216 	.byte #0x06,#0x01	; 262
      00241E 01 08                 6217 	.byte #0x01,#0x08	; 2049
      002420 00 00                 6218 	.byte #0x00,#0x00	; 0
      002422 00 00                 6219 	.byte #0x00,#0x00	; 0
      002424 00 00                 6220 	.byte #0x00,#0x00	; 0
      002426 42 00                 6221 	.byte #0x42,#0x00	; 66
      002428 00 00                 6222 	.byte #0x00,#0x00	; 0
      00242A 00 04                 6223 	.byte #0x00,#0x04	; 1024
      00242C 09 00                 6224 	.byte #0x09,#0x00	; 9
      00242E 80 01                 6225 	.byte #0x80,#0x01	; 384
      002430 00 00                 6226 	.byte #0x00,#0x00	; 0
      002432 00 04                 6227 	.byte #0x00,#0x04	; 1024
      002434 00 08                 6228 	.byte #0x00,#0x08	; 2048
      002436 1C 00                 6229 	.byte #0x1C,#0x00	; 28
      002438 00 04                 6230 	.byte #0x00,#0x04	; 1024
      00243A 00 04                 6231 	.byte #0x00,#0x04	; 1024
      00243C 60 02                 6232 	.byte #0x60,#0x02	; 608
      00243E 00 04                 6233 	.byte #0x00,#0x04	; 1024
      002440 00 00                 6234 	.byte #0x00,#0x00	; 0
      002442 00 00                 6235 	.byte #0x00,#0x00	; 0
      002444 00 00                 6236 	.byte #0x00,#0x00	; 0
      002446 05 04                 6237 	.byte #0x05,#0x04	; 1029
      002448 00 00                 6238 	.byte #0x00,#0x00	; 0
      00244A 02 08                 6239 	.byte #0x02,#0x08	; 2050
      00244C 20 00                 6240 	.byte #0x20,#0x00	; 32
      00244E 80 01                 6241 	.byte #0x80,#0x01	; 384
      002450 00 00                 6242 	.byte #0x00,#0x00	; 0
      002452 10 01                 6243 	.byte #0x10,#0x01	; 272
      002454 00 08                 6244 	.byte #0x00,#0x08	; 2048
      002456 02 02                 6245 	.byte #0x02,#0x02	; 514
      002458 81 02                 6246 	.byte #0x81,#0x02	; 641
      00245A 24 00                 6247 	.byte #0x24,#0x00	; 36
      00245C 10 04                 6248 	.byte #0x10,#0x04	; 1040
      00245E 48 00                 6249 	.byte #0x48,#0x00	; 72
      002460 00 00                 6250 	.byte #0x00,#0x00	; 0
      002462 28 02                 6251 	.byte #0x28,#0x02	; 552
      002464 00 08                 6252 	.byte #0x00,#0x08	; 2048
      002466 80 01                 6253 	.byte #0x80,#0x01	; 384
      002468 54 00                 6254 	.byte #0x54,#0x00	; 84
      00246A 80 01                 6255 	.byte #0x80,#0x01	; 384
      00246C 80 01                 6256 	.byte #0x80,#0x01	; 384
      00246E 80 01                 6257 	.byte #0x80,#0x01	; 384
      002470 00 08                 6258 	.byte #0x00,#0x08	; 2048
      002472 41 00                 6259 	.byte #0x41,#0x00	; 65
      002474 00 08                 6260 	.byte #0x00,#0x08	; 2048
      002476 00 08                 6261 	.byte #0x00,#0x08	; 2048
      002478 0A 00                 6262 	.byte #0x0A,#0x00	; 10
      00247A 00 04                 6263 	.byte #0x00,#0x04	; 1024
      00247C 00 08                 6264 	.byte #0x00,#0x08	; 2048
      00247E 80 01                 6265 	.byte #0x80,#0x01	; 384
      002480 00 00                 6266 	.byte #0x00,#0x00	; 0
      002482 00 00                 6267 	.byte #0x00,#0x00	; 0
      002484 00 00                 6268 	.byte #0x00,#0x00	; 0
      002486 42 00                 6269 	.byte #0x42,#0x00	; 66
      002488 00 00                 6270 	.byte #0x00,#0x00	; 0
      00248A 8C 00                 6271 	.byte #0x8C,#0x00	; 140
      00248C 20 00                 6272 	.byte #0x20,#0x00	; 32
      00248E 01 08                 6273 	.byte #0x01,#0x08	; 2049
      002490 00 00                 6274 	.byte #0x00,#0x00	; 0
      002492 10 01                 6275 	.byte #0x10,#0x01	; 272
      002494 08 06                 6276 	.byte #0x08,#0x06	; 1544
      002496 01 08                 6277 	.byte #0x01,#0x08	; 2049
      002498 40 00                 6278 	.byte #0x40,#0x00	; 64
      00249A 01 08                 6279 	.byte #0x01,#0x08	; 2049
      00249C 01 08                 6280 	.byte #0x01,#0x08	; 2049
      00249E 01 08                 6281 	.byte #0x01,#0x08	; 2049
      0024A0 00 00                 6282 	.byte #0x00,#0x00	; 0
      0024A2 42 00                 6283 	.byte #0x42,#0x00	; 66
      0024A4 42 00                 6284 	.byte #0x42,#0x00	; 66
      0024A6 42 00                 6285 	.byte #0x42,#0x00	; 66
      0024A8 00 0B                 6286 	.byte #0x00,#0x0B	; 2816
      0024AA 30 00                 6287 	.byte #0x30,#0x00	; 48
      0024AC 04 04                 6288 	.byte #0x04,#0x04	; 1028
      0024AE 42 00                 6289 	.byte #0x42,#0x00	; 66
      0024B0 25 00                 6290 	.byte #0x25,#0x00	; 37
      0024B2 80 02                 6291 	.byte #0x80,#0x02	; 640
      0024B4 00 01                 6292 	.byte #0x00,#0x01	; 256
      0024B6 42 00                 6293 	.byte #0x42,#0x00	; 66
      0024B8 0A 00                 6294 	.byte #0x0A,#0x00	; 10
      0024BA 00 04                 6295 	.byte #0x00,#0x04	; 1024
      0024BC 90 00                 6296 	.byte #0x90,#0x00	; 144
      0024BE 01 08                 6297 	.byte #0x01,#0x08	; 2049
      0024C0 00 00                 6298 	.byte #0x00,#0x00	; 0
      0024C2 10 01                 6299 	.byte #0x10,#0x01	; 272
      0024C4 20 00                 6300 	.byte #0x20,#0x00	; 32
      0024C6 08 00                 6301 	.byte #0x08,#0x00	; 8
      0024C8 20 00                 6302 	.byte #0x20,#0x00	; 32
      0024CA 40 06                 6303 	.byte #0x40,#0x06	; 1600
      0024CC 20 00                 6304 	.byte #0x20,#0x00	; 32
      0024CE 20 00                 6305 	.byte #0x20,#0x00	; 32
      0024D0 10 01                 6306 	.byte #0x10,#0x01	; 272
      0024D2 10 01                 6307 	.byte #0x10,#0x01	; 272
      0024D4 C4 00                 6308 	.byte #0xC4,#0x00	; 196
      0024D6 10 01                 6309 	.byte #0x10,#0x01	; 272
      0024D8 0A 00                 6310 	.byte #0x0A,#0x00	; 10
      0024DA 10 01                 6311 	.byte #0x10,#0x01	; 272
      0024DC 20 00                 6312 	.byte #0x20,#0x00	; 32
      0024DE 01 08                 6313 	.byte #0x01,#0x08	; 2049
      0024E0 80 04                 6314 	.byte #0x80,#0x04	; 1152
      0024E2 04 08                 6315 	.byte #0x04,#0x08	; 2052
      0024E4 11 02                 6316 	.byte #0x11,#0x02	; 529
      0024E6 42 00                 6317 	.byte #0x42,#0x00	; 66
      0024E8 0A 00                 6318 	.byte #0x0A,#0x00	; 10
      0024EA 01 00                 6319 	.byte #0x01,#0x00	; 1
      0024EC 20 00                 6320 	.byte #0x20,#0x00	; 32
      0024EE 80 01                 6321 	.byte #0x80,#0x01	; 384
      0024F0 0A 00                 6322 	.byte #0x0A,#0x00	; 10
      0024F2 10 01                 6323 	.byte #0x10,#0x01	; 272
      0024F4 00 08                 6324 	.byte #0x00,#0x08	; 2048
      0024F6 20 04                 6325 	.byte #0x20,#0x04	; 1056
      0024F8 0A 00                 6326 	.byte #0x0A,#0x00	; 10
      0024FA 0A 00                 6327 	.byte #0x0A,#0x00	; 10
      0024FC 0A 00                 6328 	.byte #0x0A,#0x00	; 10
      0024FE 04 02                 6329 	.byte #0x04,#0x02	; 516
      002500 00 00                 6330 	.byte #0x00,#0x00	; 0
      002502 00 00                 6331 	.byte #0x00,#0x00	; 0
      002504 00 00                 6332 	.byte #0x00,#0x00	; 0
      002506 A0 00                 6333 	.byte #0xA0,#0x00	; 160
      002508 00 00                 6334 	.byte #0x00,#0x00	; 0
      00250A 02 08                 6335 	.byte #0x02,#0x08	; 2050
      00250C 09 00                 6336 	.byte #0x09,#0x00	; 9
      00250E 44 00                 6337 	.byte #0x44,#0x00	; 68
      002510 00 00                 6338 	.byte #0x00,#0x00	; 0
      002512 A0 00                 6339 	.byte #0xA0,#0x00	; 160
      002514 A0 00                 6340 	.byte #0xA0,#0x00	; 160
      002516 A0 00                 6341 	.byte #0xA0,#0x00	; 160
      002518 40 00                 6342 	.byte #0x40,#0x00	; 64
      00251A 08 03                 6343 	.byte #0x08,#0x03	; 776
      00251C 10 04                 6344 	.byte #0x10,#0x04	; 1040
      00251E A0 00                 6345 	.byte #0xA0,#0x00	; 160
      002520 00 00                 6346 	.byte #0x00,#0x00	; 0
      002522 04 01                 6347 	.byte #0x04,#0x01	; 260
      002524 09 00                 6348 	.byte #0x09,#0x00	; 9
      002526 00 0E                 6349 	.byte #0x00,#0x0E	; 3584
      002528 09 00                 6350 	.byte #0x09,#0x00	; 9
      00252A 30 00                 6351 	.byte #0x30,#0x00	; 48
      00252C 09 00                 6352 	.byte #0x09,#0x00	; 9
      00252E 09 00                 6353 	.byte #0x09,#0x00	; 9
      002530 12 02                 6354 	.byte #0x12,#0x02	; 530
      002532 41 00                 6355 	.byte #0x41,#0x00	; 65
      002534 00 01                 6356 	.byte #0x00,#0x01	; 256
      002536 A0 00                 6357 	.byte #0xA0,#0x00	; 160
      002538 84 08                 6358 	.byte #0x84,#0x08	; 2180
      00253A 00 04                 6359 	.byte #0x00,#0x04	; 1024
      00253C 09 00                 6360 	.byte #0x09,#0x00	; 9
      00253E 02 00                 6361 	.byte #0x02,#0x00	; 2
      002540 00 00                 6362 	.byte #0x00,#0x00	; 0
      002542 02 08                 6363 	.byte #0x02,#0x08	; 2050
      002544 40 03                 6364 	.byte #0x40,#0x03	; 832
      002546 08 00                 6365 	.byte #0x08,#0x00	; 8
      002548 02 08                 6366 	.byte #0x02,#0x08	; 2050
      00254A 02 08                 6367 	.byte #0x02,#0x08	; 2050
      00254C 10 04                 6368 	.byte #0x10,#0x04	; 1040
      00254E 02 08                 6369 	.byte #0x02,#0x08	; 2050
      002550 0C 00                 6370 	.byte #0x0C,#0x00	; 12
      002552 41 00                 6371 	.byte #0x41,#0x00	; 65
      002554 10 04                 6372 	.byte #0x10,#0x04	; 1040
      002556 A0 00                 6373 	.byte #0xA0,#0x00	; 160
      002558 10 04                 6374 	.byte #0x10,#0x04	; 1040
      00255A 02 08                 6375 	.byte #0x02,#0x08	; 2050
      00255C 10 04                 6376 	.byte #0x10,#0x04	; 1040
      00255E 10 04                 6377 	.byte #0x10,#0x04	; 1040
      002560 80 04                 6378 	.byte #0x80,#0x04	; 1152
      002562 41 00                 6379 	.byte #0x41,#0x00	; 65
      002564 26 00                 6380 	.byte #0x26,#0x00	; 38
      002566 10 00                 6381 	.byte #0x10,#0x00	; 16
      002568 00 02                 6382 	.byte #0x00,#0x02	; 512
      00256A 02 08                 6383 	.byte #0x02,#0x08	; 2050
      00256C 09 00                 6384 	.byte #0x09,#0x00	; 9
      00256E 80 01                 6385 	.byte #0x80,#0x01	; 384
      002570 41 00                 6386 	.byte #0x41,#0x00	; 65
      002572 41 00                 6387 	.byte #0x41,#0x00	; 65
      002574 00 08                 6388 	.byte #0x00,#0x08	; 2048
      002576 41 00                 6389 	.byte #0x41,#0x00	; 65
      002578 20 01                 6390 	.byte #0x20,#0x01	; 288
      00257A 41 00                 6391 	.byte #0x41,#0x00	; 65
      00257C 10 04                 6392 	.byte #0x10,#0x04	; 1040
      00257E 04 02                 6393 	.byte #0x04,#0x02	; 516
      002580 00 00                 6394 	.byte #0x00,#0x00	; 0
      002582 01 02                 6395 	.byte #0x01,#0x02	; 513
      002584 14 08                 6396 	.byte #0x14,#0x08	; 2068
      002586 08 00                 6397 	.byte #0x08,#0x00	; 8
      002588 40 00                 6398 	.byte #0x40,#0x00	; 64
      00258A 30 00                 6399 	.byte #0x30,#0x00	; 48
      00258C 82 02                 6400 	.byte #0x82,#0x02	; 642
      00258E 00 05                 6401 	.byte #0x00,#0x05	; 1280
      002590 40 00                 6402 	.byte #0x40,#0x00	; 64
      002592 06 04                 6403 	.byte #0x06,#0x04	; 1030
      002594 00 01                 6404 	.byte #0x00,#0x01	; 256
      002596 A0 00                 6405 	.byte #0xA0,#0x00	; 160
      002598 40 00                 6406 	.byte #0x40,#0x00	; 64
      00259A 40 00                 6407 	.byte #0x40,#0x00	; 64
      00259C 40 00                 6408 	.byte #0x40,#0x00	; 64
      00259E 01 08                 6409 	.byte #0x01,#0x08	; 2049
      0025A0 80 04                 6410 	.byte #0x80,#0x04	; 1152
      0025A2 30 00                 6411 	.byte #0x30,#0x00	; 48
      0025A4 00 01                 6412 	.byte #0x00,#0x01	; 256
      0025A6 42 00                 6413 	.byte #0x42,#0x00	; 66
      0025A8 30 00                 6414 	.byte #0x30,#0x00	; 48
      0025AA 30 00                 6415 	.byte #0x30,#0x00	; 48
      0025AC 09 00                 6416 	.byte #0x09,#0x00	; 9
      0025AE 30 00                 6417 	.byte #0x30,#0x00	; 48
      0025B0 00 01                 6418 	.byte #0x00,#0x01	; 256
      0025B2 08 08                 6419 	.byte #0x08,#0x08	; 2056
      0025B4 00 01                 6420 	.byte #0x00,#0x01	; 256
      0025B6 00 01                 6421 	.byte #0x00,#0x01	; 256
      0025B8 40 00                 6422 	.byte #0x40,#0x00	; 64
      0025BA 30 00                 6423 	.byte #0x30,#0x00	; 48
      0025BC 00 01                 6424 	.byte #0x00,#0x01	; 256
      0025BE 04 02                 6425 	.byte #0x04,#0x02	; 516
      0025C0 80 04                 6426 	.byte #0x80,#0x04	; 1152
      0025C2 08 00                 6427 	.byte #0x08,#0x00	; 8
      0025C4 08 00                 6428 	.byte #0x08,#0x00	; 8
      0025C6 08 00                 6429 	.byte #0x08,#0x00	; 8
      0025C8 05 01                 6430 	.byte #0x05,#0x01	; 261
      0025CA 02 08                 6431 	.byte #0x02,#0x08	; 2050
      0025CC 20 00                 6432 	.byte #0x20,#0x00	; 32
      0025CE 08 00                 6433 	.byte #0x08,#0x00	; 8
      0025D0 20 0A                 6434 	.byte #0x20,#0x0A	; 2592
      0025D2 10 01                 6435 	.byte #0x10,#0x01	; 272
      0025D4 03 00                 6436 	.byte #0x03,#0x00	; 3
      0025D6 08 00                 6437 	.byte #0x08,#0x00	; 8
      0025D8 40 00                 6438 	.byte #0x40,#0x00	; 64
      0025DA 80 00                 6439 	.byte #0x80,#0x00	; 128
      0025DC 10 04                 6440 	.byte #0x10,#0x04	; 1040
      0025DE 04 02                 6441 	.byte #0x04,#0x02	; 516
      0025E0 80 04                 6442 	.byte #0x80,#0x04	; 1152
      0025E2 80 04                 6443 	.byte #0x80,#0x04	; 1152
      0025E4 80 04                 6444 	.byte #0x80,#0x04	; 1152
      0025E6 08 00                 6445 	.byte #0x08,#0x00	; 8
      0025E8 80 04                 6446 	.byte #0x80,#0x04	; 1152
      0025EA 30 00                 6447 	.byte #0x30,#0x00	; 48
      0025EC 40 08                 6448 	.byte #0x40,#0x08	; 2112
      0025EE 04 02                 6449 	.byte #0x04,#0x02	; 516
      0025F0 80 04                 6450 	.byte #0x80,#0x04	; 1152
      0025F2 41 00                 6451 	.byte #0x41,#0x00	; 65
      0025F4 00 01                 6452 	.byte #0x00,#0x01	; 256
      0025F6 04 02                 6453 	.byte #0x04,#0x02	; 516
      0025F8 0A 00                 6454 	.byte #0x0A,#0x00	; 10
      0025FA 04 02                 6455 	.byte #0x04,#0x02	; 516
      0025FC 04 02                 6456 	.byte #0x04,#0x02	; 516
      0025FE 04 02                 6457 	.byte #0x04,#0x02	; 516
      002600 00 00                 6458 	.byte #0x00,#0x00	; 0
      002602 00 00                 6459 	.byte #0x00,#0x00	; 0
      002604 00 00                 6460 	.byte #0x00,#0x00	; 0
      002606 08 09                 6461 	.byte #0x08,#0x09	; 2312
      002608 00 00                 6462 	.byte #0x00,#0x00	; 0
      00260A 00 04                 6463 	.byte #0x00,#0x04	; 1024
      00260C 20 00                 6464 	.byte #0x20,#0x00	; 32
      00260E 44 00                 6465 	.byte #0x44,#0x00	; 68
      002610 00 00                 6466 	.byte #0x00,#0x00	; 0
      002612 00 04                 6467 	.byte #0x00,#0x04	; 1024
      002614 51 00                 6468 	.byte #0x51,#0x00	; 81
      002616 02 02                 6469 	.byte #0x02,#0x02	; 514
      002618 00 04                 6470 	.byte #0x00,#0x04	; 1024
      00261A 00 04                 6471 	.byte #0x00,#0x04	; 1024
      00261C 88 00                 6472 	.byte #0x88,#0x00	; 136
      00261E 00 04                 6473 	.byte #0x00,#0x04	; 1024
      002620 00 00                 6474 	.byte #0x00,#0x00	; 0
      002622 00 04                 6475 	.byte #0x00,#0x04	; 1024
      002624 84 02                 6476 	.byte #0x84,#0x02	; 644
      002626 21 00                 6477 	.byte #0x21,#0x00	; 33
      002628 00 04                 6478 	.byte #0x00,#0x04	; 1024
      00262A 00 04                 6479 	.byte #0x00,#0x04	; 1024
      00262C 12 08                 6480 	.byte #0x12,#0x08	; 2066
      00262E 00 04                 6481 	.byte #0x00,#0x04	; 1024
      002630 00 04                 6482 	.byte #0x00,#0x04	; 1024
      002632 00 04                 6483 	.byte #0x00,#0x04	; 1024
      002634 00 01                 6484 	.byte #0x00,#0x01	; 256
      002636 00 04                 6485 	.byte #0x00,#0x04	; 1024
      002638 00 04                 6486 	.byte #0x00,#0x04	; 1024
      00263A 00 04                 6487 	.byte #0x00,#0x04	; 1024
      00263C 00 04                 6488 	.byte #0x00,#0x04	; 1024
      00263E 00 04                 6489 	.byte #0x00,#0x04	; 1024
      002640 00 00                 6490 	.byte #0x00,#0x00	; 0
      002642 C0 00                 6491 	.byte #0xC0,#0x00	; 192
      002644 20 00                 6492 	.byte #0x20,#0x00	; 32
      002646 02 02                 6493 	.byte #0x02,#0x02	; 514
      002648 20 00                 6494 	.byte #0x20,#0x00	; 32
      00264A 19 00                 6495 	.byte #0x19,#0x00	; 25
      00264C 20 00                 6496 	.byte #0x20,#0x00	; 32
      00264E 20 00                 6497 	.byte #0x20,#0x00	; 32
      002650 0C 00                 6498 	.byte #0x0C,#0x00	; 12
      002652 02 02                 6499 	.byte #0x02,#0x02	; 514
      002654 02 02                 6500 	.byte #0x02,#0x02	; 514
      002656 02 02                 6501 	.byte #0x02,#0x02	; 514
      002658 40 09                 6502 	.byte #0x40,#0x09	; 2368
      00265A 00 04                 6503 	.byte #0x00,#0x04	; 1024
      00265C 20 00                 6504 	.byte #0x20,#0x00	; 32
      00265E 02 02                 6505 	.byte #0x02,#0x02	; 514
      002660 03 01                 6506 	.byte #0x03,#0x01	; 259
      002662 04 08                 6507 	.byte #0x04,#0x08	; 2052
      002664 48 04                 6508 	.byte #0x48,#0x04	; 1096
      002666 10 00                 6509 	.byte #0x10,#0x00	; 16
      002668 00 02                 6510 	.byte #0x00,#0x02	; 512
      00266A 00 04                 6511 	.byte #0x00,#0x04	; 1024
      00266C 20 00                 6512 	.byte #0x20,#0x00	; 32
      00266E 80 01                 6513 	.byte #0x80,#0x01	; 384
      002670 B0 00                 6514 	.byte #0xB0,#0x00	; 176
      002672 00 04                 6515 	.byte #0x00,#0x04	; 1024
      002674 00 08                 6516 	.byte #0x00,#0x08	; 2048
      002676 02 02                 6517 	.byte #0x02,#0x02	; 514
      002678 00 04                 6518 	.byte #0x00,#0x04	; 1024
      00267A 00 04                 6519 	.byte #0x00,#0x04	; 1024
      00267C 05 00                 6520 	.byte #0x05,#0x00	; 5
      00267E 00 04                 6521 	.byte #0x00,#0x04	; 1024
      002680 00 00                 6522 	.byte #0x00,#0x00	; 0
      002682 01 02                 6523 	.byte #0x01,#0x02	; 513
      002684 20 00                 6524 	.byte #0x20,#0x00	; 32
      002686 90 04                 6525 	.byte #0x90,#0x04	; 1168
      002688 20 00                 6526 	.byte #0x20,#0x00	; 32
      00268A 02 01                 6527 	.byte #0x02,#0x01	; 258
      00268C 20 00                 6528 	.byte #0x20,#0x00	; 32
      00268E 20 00                 6529 	.byte #0x20,#0x00	; 32
      002690 82 08                 6530 	.byte #0x82,#0x08	; 2178
      002692 68 00                 6531 	.byte #0x68,#0x00	; 104
      002694 00 01                 6532 	.byte #0x00,#0x01	; 256
      002696 04 00                 6533 	.byte #0x04,#0x00	; 4
      002698 14 02                 6534 	.byte #0x14,#0x02	; 532
      00269A 00 04                 6535 	.byte #0x00,#0x04	; 1024
      00269C 20 00                 6536 	.byte #0x20,#0x00	; 32
      00269E 01 08                 6537 	.byte #0x01,#0x08	; 2049
      0026A0 18 00                 6538 	.byte #0x18,#0x00	; 24
      0026A2 04 08                 6539 	.byte #0x04,#0x08	; 2052
      0026A4 00 01                 6540 	.byte #0x00,#0x01	; 256
      0026A6 42 00                 6541 	.byte #0x42,#0x00	; 66
      0026A8 C1 00                 6542 	.byte #0xC1,#0x00	; 193
      0026AA 00 04                 6543 	.byte #0x00,#0x04	; 1024
      0026AC 20 00                 6544 	.byte #0x20,#0x00	; 32
      0026AE 08 02                 6545 	.byte #0x08,#0x02	; 520
      0026B0 00 01                 6546 	.byte #0x00,#0x01	; 256
      0026B2 00 04                 6547 	.byte #0x00,#0x04	; 1024
      0026B4 00 01                 6548 	.byte #0x00,#0x01	; 256
      0026B6 00 01                 6549 	.byte #0x00,#0x01	; 256
      0026B8 00 04                 6550 	.byte #0x00,#0x04	; 1024
      0026BA 00 04                 6551 	.byte #0x00,#0x04	; 1024
      0026BC 00 01                 6552 	.byte #0x00,#0x01	; 256
      0026BE 00 04                 6553 	.byte #0x00,#0x04	; 1024
      0026C0 20 00                 6554 	.byte #0x20,#0x00	; 32
      0026C2 04 08                 6555 	.byte #0x04,#0x08	; 2052
      0026C4 20 00                 6556 	.byte #0x20,#0x00	; 32
      0026C6 20 00                 6557 	.byte #0x20,#0x00	; 32
      0026C8 20 00                 6558 	.byte #0x20,#0x00	; 32
      0026CA 20 00                 6559 	.byte #0x20,#0x00	; 32
      0026CC 20 00                 6560 	.byte #0x20,#0x00	; 32
      0026CE 20 00                 6561 	.byte #0x20,#0x00	; 32
      0026D0 01 04                 6562 	.byte #0x01,#0x04	; 1025
      0026D2 10 01                 6563 	.byte #0x10,#0x01	; 272
      0026D4 20 00                 6564 	.byte #0x20,#0x00	; 32
      0026D6 02 02                 6565 	.byte #0x02,#0x02	; 514
      0026D8 20 00                 6566 	.byte #0x20,#0x00	; 32
      0026DA 80 00                 6567 	.byte #0x80,#0x00	; 128
      0026DC 20 00                 6568 	.byte #0x20,#0x00	; 32
      0026DE 20 00                 6569 	.byte #0x20,#0x00	; 32
      0026E0 04 08                 6570 	.byte #0x04,#0x08	; 2052
      0026E2 04 08                 6571 	.byte #0x04,#0x08	; 2052
      0026E4 20 00                 6572 	.byte #0x20,#0x00	; 32
      0026E6 04 08                 6573 	.byte #0x04,#0x08	; 2052
      0026E8 20 00                 6574 	.byte #0x20,#0x00	; 32
      0026EA 04 08                 6575 	.byte #0x04,#0x08	; 2052
      0026EC 20 00                 6576 	.byte #0x20,#0x00	; 32
      0026EE 20 00                 6577 	.byte #0x20,#0x00	; 32
      0026F0 40 02                 6578 	.byte #0x40,#0x02	; 576
      0026F2 04 08                 6579 	.byte #0x04,#0x08	; 2052
      0026F4 00 01                 6580 	.byte #0x00,#0x01	; 256
      0026F6 89 00                 6581 	.byte #0x89,#0x00	; 137
      0026F8 0A 00                 6582 	.byte #0x0A,#0x00	; 10
      0026FA 00 04                 6583 	.byte #0x00,#0x04	; 1024
      0026FC 20 00                 6584 	.byte #0x20,#0x00	; 32
      0026FE 50 00                 6585 	.byte #0x50,#0x00	; 80
      002700 00 00                 6586 	.byte #0x00,#0x00	; 0
      002702 01 02                 6587 	.byte #0x01,#0x02	; 513
      002704 02 04                 6588 	.byte #0x02,#0x04	; 1026
      002706 44 00                 6589 	.byte #0x44,#0x00	; 68
      002708 90 01                 6590 	.byte #0x90,#0x01	; 400
      00270A 44 00                 6591 	.byte #0x44,#0x00	; 68
      00270C 44 00                 6592 	.byte #0x44,#0x00	; 68
      00270E 44 00                 6593 	.byte #0x44,#0x00	; 68
      002710 0C 00                 6594 	.byte #0x0C,#0x00	; 12
      002712 10 08                 6595 	.byte #0x10,#0x08	; 2064
      002714 00 01                 6596 	.byte #0x00,#0x01	; 256
      002716 A0 00                 6597 	.byte #0xA0,#0x00	; 160
      002718 23 00                 6598 	.byte #0x23,#0x00	; 35
      00271A 00 04                 6599 	.byte #0x00,#0x04	; 1024
      00271C 00 0A                 6600 	.byte #0x00,#0x0A	; 2560
      00271E 44 00                 6601 	.byte #0x44,#0x00	; 68
      002720 60 08                 6602 	.byte #0x60,#0x08	; 2144
      002722 8A 00                 6603 	.byte #0x8A,#0x00	; 138
      002724 00 01                 6604 	.byte #0x00,#0x01	; 256
      002726 10 00                 6605 	.byte #0x10,#0x00	; 16
      002728 00 02                 6606 	.byte #0x00,#0x02	; 512
      00272A 00 04                 6607 	.byte #0x00,#0x04	; 1024
      00272C 09 00                 6608 	.byte #0x09,#0x00	; 9
      00272E 44 00                 6609 	.byte #0x44,#0x00	; 68
      002730 00 01                 6610 	.byte #0x00,#0x01	; 256
      002732 00 04                 6611 	.byte #0x00,#0x04	; 1024
      002734 00 01                 6612 	.byte #0x00,#0x01	; 256
      002736 00 01                 6613 	.byte #0x00,#0x01	; 256
      002738 00 04                 6614 	.byte #0x00,#0x04	; 1024
      00273A 00 04                 6615 	.byte #0x00,#0x04	; 1024
      00273C 00 01                 6616 	.byte #0x00,#0x01	; 256
      00273E 00 04                 6617 	.byte #0x00,#0x04	; 1024
      002740 0C 00                 6618 	.byte #0x0C,#0x00	; 12
      002742 20 05                 6619 	.byte #0x20,#0x05	; 1312
      002744 81 08                 6620 	.byte #0x81,#0x08	; 2177
      002746 10 00                 6621 	.byte #0x10,#0x00	; 16
      002748 00 02                 6622 	.byte #0x00,#0x02	; 512
      00274A 02 08                 6623 	.byte #0x02,#0x08	; 2050
      00274C 20 00                 6624 	.byte #0x20,#0x00	; 32
      00274E 44 00                 6625 	.byte #0x44,#0x00	; 68
      002750 0C 00                 6626 	.byte #0x0C,#0x00	; 12
      002752 0C 00                 6627 	.byte #0x0C,#0x00	; 12
      002754 0C 00                 6628 	.byte #0x0C,#0x00	; 12
      002756 02 02                 6629 	.byte #0x02,#0x02	; 514
      002758 0C 00                 6630 	.byte #0x0C,#0x00	; 12
      00275A 80 00                 6631 	.byte #0x80,#0x00	; 128
      00275C 10 04                 6632 	.byte #0x10,#0x04	; 1040
      00275E 01 01                 6633 	.byte #0x01,#0x01	; 257
      002760 00 02                 6634 	.byte #0x00,#0x02	; 512
      002762 10 00                 6635 	.byte #0x10,#0x00	; 16
      002764 10 00                 6636 	.byte #0x10,#0x00	; 16
      002766 10 00                 6637 	.byte #0x10,#0x00	; 16
      002768 00 02                 6638 	.byte #0x00,#0x02	; 512
      00276A 00 02                 6639 	.byte #0x00,#0x02	; 512
      00276C 00 02                 6640 	.byte #0x00,#0x02	; 512
      00276E 10 00                 6641 	.byte #0x10,#0x00	; 16
      002770 0C 00                 6642 	.byte #0x0C,#0x00	; 12
      002772 41 00                 6643 	.byte #0x41,#0x00	; 65
      002774 00 01                 6644 	.byte #0x00,#0x01	; 256
      002776 10 00                 6645 	.byte #0x10,#0x00	; 16
      002778 00 02                 6646 	.byte #0x00,#0x02	; 512
      00277A 00 04                 6647 	.byte #0x00,#0x04	; 1024
      00277C C2 00                 6648 	.byte #0xC2,#0x00	; 194
      00277E 28 08                 6649 	.byte #0x28,#0x08	; 2088
      002780 01 02                 6650 	.byte #0x01,#0x02	; 513
      002782 01 02                 6651 	.byte #0x01,#0x02	; 513
      002784 00 01                 6652 	.byte #0x00,#0x01	; 256
      002786 01 02                 6653 	.byte #0x01,#0x02	; 513
      002788 08 0C                 6654 	.byte #0x08,#0x0C	; 3080
      00278A 01 02                 6655 	.byte #0x01,#0x02	; 513
      00278C 20 00                 6656 	.byte #0x20,#0x00	; 32
      00278E 44 00                 6657 	.byte #0x44,#0x00	; 68
      002790 00 01                 6658 	.byte #0x00,#0x01	; 256
      002792 01 02                 6659 	.byte #0x01,#0x02	; 513
      002794 00 01                 6660 	.byte #0x00,#0x01	; 256
      002796 00 01                 6661 	.byte #0x00,#0x01	; 256
      002798 40 00                 6662 	.byte #0x40,#0x00	; 64
      00279A 80 00                 6663 	.byte #0x80,#0x00	; 128
      00279C 00 01                 6664 	.byte #0x00,#0x01	; 256
      00279E 1A 00                 6665 	.byte #0x1A,#0x00	; 26
      0027A0 00 01                 6666 	.byte #0x00,#0x01	; 256
      0027A2 01 02                 6667 	.byte #0x01,#0x02	; 513
      0027A4 00 01                 6668 	.byte #0x00,#0x01	; 256
      0027A6 00 01                 6669 	.byte #0x00,#0x01	; 256
      0027A8 06 00                 6670 	.byte #0x06,#0x00	; 6
      0027AA 30 00                 6671 	.byte #0x30,#0x00	; 48
      0027AC 00 01                 6672 	.byte #0x00,#0x01	; 256
      0027AE 80 08                 6673 	.byte #0x80,#0x08	; 2176
      0027B0 00 01                 6674 	.byte #0x00,#0x01	; 256
      0027B2 00 01                 6675 	.byte #0x00,#0x01	; 256
      0027B4 00 01                 6676 	.byte #0x00,#0x01	; 256
      0027B6 00 01                 6677 	.byte #0x00,#0x01	; 256
      0027B8 00 01                 6678 	.byte #0x00,#0x01	; 256
      0027BA 00 04                 6679 	.byte #0x00,#0x04	; 1024
      0027BC 00 01                 6680 	.byte #0x00,#0x01	; 256
      0027BE 00 01                 6681 	.byte #0x00,#0x01	; 256
      0027C0 52 00                 6682 	.byte #0x52,#0x00	; 82
      0027C2 01 02                 6683 	.byte #0x01,#0x02	; 513
      0027C4 20 00                 6684 	.byte #0x20,#0x00	; 32
      0027C6 08 00                 6685 	.byte #0x08,#0x00	; 8
      0027C8 20 00                 6686 	.byte #0x20,#0x00	; 32
      0027CA 80 00                 6687 	.byte #0x80,#0x00	; 128
      0027CC 20 00                 6688 	.byte #0x20,#0x00	; 32
      0027CE 20 00                 6689 	.byte #0x20,#0x00	; 32
      0027D0 0C 00                 6690 	.byte #0x0C,#0x00	; 12
      0027D2 80 00                 6691 	.byte #0x80,#0x00	; 128
      0027D4 00 01                 6692 	.byte #0x00,#0x01	; 256
      0027D6 40 0C                 6693 	.byte #0x40,#0x0C	; 3136
      0027D8 80 00                 6694 	.byte #0x80,#0x00	; 128
      0027DA 80 00                 6695 	.byte #0x80,#0x00	; 128
      0027DC 20 00                 6696 	.byte #0x20,#0x00	; 32
      0027DE 80 00                 6697 	.byte #0x80,#0x00	; 128
      0027E0 80 04                 6698 	.byte #0x80,#0x04	; 1152
      0027E2 04 08                 6699 	.byte #0x04,#0x08	; 2052
      0027E4 00 01                 6700 	.byte #0x00,#0x01	; 256
      0027E6 10 00                 6701 	.byte #0x10,#0x00	; 16
      0027E8 00 02                 6702 	.byte #0x00,#0x02	; 512
      0027EA 48 01                 6703 	.byte #0x48,#0x01	; 328
      0027EC 20 00                 6704 	.byte #0x20,#0x00	; 32
      0027EE 03 04                 6705 	.byte #0x03,#0x04	; 1027
      0027F0 00 01                 6706 	.byte #0x00,#0x01	; 256
      0027F2 22 00                 6707 	.byte #0x22,#0x00	; 34
      0027F4 00 01                 6708 	.byte #0x00,#0x01	; 256
      0027F6 00 01                 6709 	.byte #0x00,#0x01	; 256
      0027F8 11 08                 6710 	.byte #0x11,#0x08	; 2065
      0027FA 80 00                 6711 	.byte #0x80,#0x00	; 128
      0027FC 00 01                 6712 	.byte #0x00,#0x01	; 256
      0027FE 04 02                 6713 	.byte #0x04,#0x02	; 516
      002800 00 00                 6714 	.byte #0x00,#0x00	; 0
      002802 00 00                 6715 	.byte #0x00,#0x00	; 0
      002804 00 00                 6716 	.byte #0x00,#0x00	; 0
      002806 00 00                 6717 	.byte #0x00,#0x00	; 0
      002808 00 00                 6718 	.byte #0x00,#0x00	; 0
      00280A 00 00                 6719 	.byte #0x00,#0x00	; 0
      00280C 00 00                 6720 	.byte #0x00,#0x00	; 0
      00280E 10 02                 6721 	.byte #0x10,#0x02	; 528
      002810 00 00                 6722 	.byte #0x00,#0x00	; 0
      002812 00 00                 6723 	.byte #0x00,#0x00	; 0
      002814 00 00                 6724 	.byte #0x00,#0x00	; 0
      002816 04 00                 6725 	.byte #0x04,#0x00	; 4
      002818 00 00                 6726 	.byte #0x00,#0x00	; 0
      00281A 80 09                 6727 	.byte #0x80,#0x09	; 2432
      00281C 21 04                 6728 	.byte #0x21,#0x04	; 1057
      00281E 02 00                 6729 	.byte #0x02,#0x00	; 2
      002820 00 00                 6730 	.byte #0x00,#0x00	; 0
      002822 00 00                 6731 	.byte #0x00,#0x00	; 0
      002824 00 00                 6732 	.byte #0x00,#0x00	; 0
      002826 88 04                 6733 	.byte #0x88,#0x04	; 1160
      002828 00 00                 6734 	.byte #0x00,#0x00	; 0
      00282A 01 00                 6735 	.byte #0x01,#0x00	; 1
      00282C 40 01                 6736 	.byte #0x40,#0x01	; 320
      00282E 02 00                 6737 	.byte #0x02,#0x00	; 2
      002830 00 00                 6738 	.byte #0x00,#0x00	; 0
      002832 70 00                 6739 	.byte #0x70,#0x00	; 112
      002834 00 08                 6740 	.byte #0x00,#0x08	; 2048
      002836 02 00                 6741 	.byte #0x02,#0x00	; 2
      002838 0C 02                 6742 	.byte #0x0C,#0x02	; 524
      00283A 02 00                 6743 	.byte #0x02,#0x00	; 2
      00283C 02 00                 6744 	.byte #0x02,#0x00	; 2
      00283E 02 00                 6745 	.byte #0x02,#0x00	; 2
      002840 00 00                 6746 	.byte #0x00,#0x00	; 0
      002842 00 00                 6747 	.byte #0x00,#0x00	; 0
      002844 00 00                 6748 	.byte #0x00,#0x00	; 0
      002846 22 01                 6749 	.byte #0x22,#0x01	; 290
      002848 00 00                 6750 	.byte #0x00,#0x00	; 0
      00284A 01 00                 6751 	.byte #0x01,#0x00	; 1
      00284C 84 00                 6752 	.byte #0x84,#0x00	; 132
      00284E 00 0C                 6753 	.byte #0x00,#0x0C	; 3072
      002850 00 00                 6754 	.byte #0x00,#0x00	; 0
      002852 00 06                 6755 	.byte #0x00,#0x06	; 1536
      002854 00 08                 6756 	.byte #0x00,#0x08	; 2048
      002856 91 00                 6757 	.byte #0x91,#0x00	; 145
      002858 12 00                 6758 	.byte #0x12,#0x00	; 18
      00285A 24 00                 6759 	.byte #0x24,#0x00	; 36
      00285C 00 03                 6760 	.byte #0x00,#0x03	; 768
      00285E 48 00                 6761 	.byte #0x48,#0x00	; 72
      002860 00 00                 6762 	.byte #0x00,#0x00	; 0
      002862 01 00                 6763 	.byte #0x01,#0x00	; 1
      002864 00 08                 6764 	.byte #0x00,#0x08	; 2048
      002866 44 02                 6765 	.byte #0x44,#0x02	; 580
      002868 01 00                 6766 	.byte #0x01,#0x00	; 1
      00286A 01 00                 6767 	.byte #0x01,#0x00	; 1
      00286C 38 00                 6768 	.byte #0x38,#0x00	; 56
      00286E 01 00                 6769 	.byte #0x01,#0x00	; 1
      002870 00 08                 6770 	.byte #0x00,#0x08	; 2048
      002872 08 01                 6771 	.byte #0x08,#0x01	; 264
      002874 00 08                 6772 	.byte #0x00,#0x08	; 2048
      002876 00 08                 6773 	.byte #0x00,#0x08	; 2048
      002878 C0 04                 6774 	.byte #0xC0,#0x04	; 1216
      00287A 01 00                 6775 	.byte #0x01,#0x00	; 1
      00287C 00 08                 6776 	.byte #0x00,#0x08	; 2048
      00287E 02 00                 6777 	.byte #0x02,#0x00	; 2
      002880 00 00                 6778 	.byte #0x00,#0x00	; 0
      002882 00 00                 6779 	.byte #0x00,#0x00	; 0
      002884 00 00                 6780 	.byte #0x00,#0x00	; 0
      002886 04 00                 6781 	.byte #0x04,#0x00	; 4
      002888 00 00                 6782 	.byte #0x00,#0x00	; 0
      00288A 01 00                 6783 	.byte #0x01,#0x00	; 1
      00288C 0A 08                 6784 	.byte #0x0A,#0x08	; 2058
      00288E E0 00                 6785 	.byte #0xE0,#0x00	; 224
      002890 00 00                 6786 	.byte #0x00,#0x00	; 0
      002892 04 00                 6787 	.byte #0x04,#0x00	; 4
      002894 04 00                 6788 	.byte #0x04,#0x00	; 4
      002896 04 00                 6789 	.byte #0x04,#0x00	; 4
      002898 40 00                 6790 	.byte #0x40,#0x00	; 64
      00289A 18 04                 6791 	.byte #0x18,#0x04	; 1048
      00289C 00 03                 6792 	.byte #0x00,#0x03	; 768
      00289E 04 00                 6793 	.byte #0x04,#0x00	; 4
      0028A0 00 00                 6794 	.byte #0x00,#0x00	; 0
      0028A2 01 00                 6795 	.byte #0x01,#0x00	; 1
      0028A4 20 02                 6796 	.byte #0x20,#0x02	; 544
      0028A6 10 09                 6797 	.byte #0x10,#0x09	; 2320
      0028A8 01 00                 6798 	.byte #0x01,#0x00	; 1
      0028AA 01 00                 6799 	.byte #0x01,#0x00	; 1
      0028AC 04 04                 6800 	.byte #0x04,#0x04	; 1028
      0028AE 01 00                 6801 	.byte #0x01,#0x00	; 1
      0028B0 02 05                 6802 	.byte #0x02,#0x05	; 1282
      0028B2 80 02                 6803 	.byte #0x80,#0x02	; 640
      0028B4 49 00                 6804 	.byte #0x49,#0x00	; 73
      0028B6 04 00                 6805 	.byte #0x04,#0x00	; 4
      0028B8 20 08                 6806 	.byte #0x20,#0x08	; 2080
      0028BA 01 00                 6807 	.byte #0x01,#0x00	; 1
      0028BC 90 00                 6808 	.byte #0x90,#0x00	; 144
      0028BE 02 00                 6809 	.byte #0x02,#0x00	; 2
      0028C0 00 00                 6810 	.byte #0x00,#0x00	; 0
      0028C2 01 00                 6811 	.byte #0x01,#0x00	; 1
      0028C4 50 04                 6812 	.byte #0x50,#0x04	; 1104
      0028C6 08 00                 6813 	.byte #0x08,#0x00	; 8
      0028C8 01 00                 6814 	.byte #0x01,#0x00	; 1
      0028CA 01 00                 6815 	.byte #0x01,#0x00	; 1
      0028CC 00 03                 6816 	.byte #0x00,#0x03	; 768
      0028CE 01 00                 6817 	.byte #0x01,#0x00	; 1
      0028D0 A8 00                 6818 	.byte #0xA8,#0x00	; 168
      0028D2 42 08                 6819 	.byte #0x42,#0x08	; 2114
      0028D4 00 03                 6820 	.byte #0x00,#0x03	; 768
      0028D6 04 00                 6821 	.byte #0x04,#0x00	; 4
      0028D8 00 03                 6822 	.byte #0x00,#0x03	; 768
      0028DA 01 00                 6823 	.byte #0x01,#0x00	; 1
      0028DC 00 03                 6824 	.byte #0x00,#0x03	; 768
      0028DE 00 03                 6825 	.byte #0x00,#0x03	; 768
      0028E0 01 00                 6826 	.byte #0x01,#0x00	; 1
      0028E2 01 00                 6827 	.byte #0x01,#0x00	; 1
      0028E4 82 00                 6828 	.byte #0x82,#0x00	; 130
      0028E6 01 00                 6829 	.byte #0x01,#0x00	; 1
      0028E8 01 00                 6830 	.byte #0x01,#0x00	; 1
      0028EA 01 00                 6831 	.byte #0x01,#0x00	; 1
      0028EC 01 00                 6832 	.byte #0x01,#0x00	; 1
      0028EE 01 00                 6833 	.byte #0x01,#0x00	; 1
      0028F0 14 00                 6834 	.byte #0x14,#0x00	; 20
      0028F2 01 00                 6835 	.byte #0x01,#0x00	; 1
      0028F4 00 08                 6836 	.byte #0x00,#0x08	; 2048
      0028F6 20 04                 6837 	.byte #0x20,#0x04	; 1056
      0028F8 01 00                 6838 	.byte #0x01,#0x00	; 1
      0028FA 01 00                 6839 	.byte #0x01,#0x00	; 1
      0028FC 00 03                 6840 	.byte #0x00,#0x03	; 768
      0028FE 01 00                 6841 	.byte #0x01,#0x00	; 1
      002900 00 00                 6842 	.byte #0x00,#0x00	; 0
      002902 00 00                 6843 	.byte #0x00,#0x00	; 0
      002904 00 00                 6844 	.byte #0x00,#0x00	; 0
      002906 41 08                 6845 	.byte #0x41,#0x08	; 2113
      002908 00 00                 6846 	.byte #0x00,#0x00	; 0
      00290A 28 00                 6847 	.byte #0x28,#0x00	; 40
      00290C 84 00                 6848 	.byte #0x84,#0x00	; 132
      00290E 02 00                 6849 	.byte #0x02,#0x00	; 2
      002910 00 00                 6850 	.byte #0x00,#0x00	; 0
      002912 00 06                 6851 	.byte #0x00,#0x06	; 1536
      002914 18 01                 6852 	.byte #0x18,#0x01	; 280
      002916 02 00                 6853 	.byte #0x02,#0x00	; 2
      002918 40 00                 6854 	.byte #0x40,#0x00	; 64
      00291A 02 00                 6855 	.byte #0x02,#0x00	; 2
      00291C 02 00                 6856 	.byte #0x02,#0x00	; 2
      00291E 02 00                 6857 	.byte #0x02,#0x00	; 2
      002920 00 00                 6858 	.byte #0x00,#0x00	; 0
      002922 04 01                 6859 	.byte #0x04,#0x01	; 260
      002924 20 02                 6860 	.byte #0x20,#0x02	; 544
      002926 02 00                 6861 	.byte #0x02,#0x00	; 2
      002928 10 0C                 6862 	.byte #0x10,#0x0C	; 3088
      00292A 02 00                 6863 	.byte #0x02,#0x00	; 2
      00292C 02 00                 6864 	.byte #0x02,#0x00	; 2
      00292E 02 00                 6865 	.byte #0x02,#0x00	; 2
      002930 81 00                 6866 	.byte #0x81,#0x00	; 129
      002932 02 00                 6867 	.byte #0x02,#0x00	; 2
      002934 02 00                 6868 	.byte #0x02,#0x00	; 2
      002936 02 00                 6869 	.byte #0x02,#0x00	; 2
      002938 02 00                 6870 	.byte #0x02,#0x00	; 2
      00293A 02 00                 6871 	.byte #0x02,#0x00	; 2
      00293C 02 00                 6872 	.byte #0x02,#0x00	; 2
      00293E 02 00                 6873 	.byte #0x02,#0x00	; 2
      002940 00 00                 6874 	.byte #0x00,#0x00	; 0
      002942 00 06                 6875 	.byte #0x00,#0x06	; 1536
      002944 84 00                 6876 	.byte #0x84,#0x00	; 132
      002946 08 00                 6877 	.byte #0x08,#0x00	; 8
      002948 84 00                 6878 	.byte #0x84,#0x00	; 132
      00294A 50 01                 6879 	.byte #0x50,#0x01	; 336
      00294C 84 00                 6880 	.byte #0x84,#0x00	; 132
      00294E 84 00                 6881 	.byte #0x84,#0x00	; 132
      002950 00 06                 6882 	.byte #0x00,#0x06	; 1536
      002952 00 06                 6883 	.byte #0x00,#0x06	; 1536
      002954 60 00                 6884 	.byte #0x60,#0x00	; 96
      002956 00 06                 6885 	.byte #0x00,#0x06	; 1536
      002958 09 08                 6886 	.byte #0x09,#0x08	; 2057
      00295A 00 06                 6887 	.byte #0x00,#0x06	; 1536
      00295C 84 00                 6888 	.byte #0x84,#0x00	; 132
      00295E 02 00                 6889 	.byte #0x02,#0x00	; 2
      002960 4A 00                 6890 	.byte #0x4A,#0x00	; 74
      002962 A0 08                 6891 	.byte #0xA0,#0x08	; 2208
      002964 01 05                 6892 	.byte #0x01,#0x05	; 1281
      002966 10 00                 6893 	.byte #0x10,#0x00	; 16
      002968 00 02                 6894 	.byte #0x00,#0x02	; 512
      00296A 01 00                 6895 	.byte #0x01,#0x00	; 1
      00296C 84 00                 6896 	.byte #0x84,#0x00	; 132
      00296E 02 00                 6897 	.byte #0x02,#0x00	; 2
      002970 14 00                 6898 	.byte #0x14,#0x00	; 20
      002972 00 06                 6899 	.byte #0x00,#0x06	; 1536
      002974 00 08                 6900 	.byte #0x00,#0x08	; 2048
      002976 02 00                 6901 	.byte #0x02,#0x00	; 2
      002978 20 01                 6902 	.byte #0x20,#0x01	; 288
      00297A 02 00                 6903 	.byte #0x02,#0x00	; 2
      00297C 02 00                 6904 	.byte #0x02,#0x00	; 2
      00297E 02 00                 6905 	.byte #0x02,#0x00	; 2
      002980 00 00                 6906 	.byte #0x00,#0x00	; 0
      002982 92 00                 6907 	.byte #0x92,#0x00	; 146
      002984 20 02                 6908 	.byte #0x20,#0x02	; 544
      002986 08 00                 6909 	.byte #0x08,#0x00	; 8
      002988 40 00                 6910 	.byte #0x40,#0x00	; 64
      00298A 04 0A                 6911 	.byte #0x04,#0x0A	; 2564
      00298C 11 00                 6912 	.byte #0x11,#0x00	; 17
      00298E 00 05                 6913 	.byte #0x00,#0x05	; 1280
      002990 40 00                 6914 	.byte #0x40,#0x00	; 64
      002992 21 01                 6915 	.byte #0x21,#0x01	; 289
      002994 80 0C                 6916 	.byte #0x80,#0x0C	; 3200
      002996 04 00                 6917 	.byte #0x04,#0x00	; 4
      002998 40 00                 6918 	.byte #0x40,#0x00	; 64
      00299A 40 00                 6919 	.byte #0x40,#0x00	; 64
      00299C 40 00                 6920 	.byte #0x40,#0x00	; 64
      00299E 02 00                 6921 	.byte #0x02,#0x00	; 2
      0029A0 20 02                 6922 	.byte #0x20,#0x02	; 544
      0029A2 40 04                 6923 	.byte #0x40,#0x04	; 1088
      0029A4 20 02                 6924 	.byte #0x20,#0x02	; 544
      0029A6 20 02                 6925 	.byte #0x20,#0x02	; 544
      0029A8 88 01                 6926 	.byte #0x88,#0x01	; 392
      0029AA 01 00                 6927 	.byte #0x01,#0x00	; 1
      0029AC 20 02                 6928 	.byte #0x20,#0x02	; 544
      0029AE 02 00                 6929 	.byte #0x02,#0x00	; 2
      0029B0 14 00                 6930 	.byte #0x14,#0x00	; 20
      0029B2 08 08                 6931 	.byte #0x08,#0x08	; 2056
      0029B4 20 02                 6932 	.byte #0x20,#0x02	; 544
      0029B6 02 00                 6933 	.byte #0x02,#0x00	; 2
      0029B8 40 00                 6934 	.byte #0x40,#0x00	; 64
      0029BA 02 00                 6935 	.byte #0x02,#0x00	; 2
      0029BC 02 00                 6936 	.byte #0x02,#0x00	; 2
      0029BE 02 00                 6937 	.byte #0x02,#0x00	; 2
      0029C0 00 09                 6938 	.byte #0x00,#0x09	; 2304
      0029C2 08 00                 6939 	.byte #0x08,#0x00	; 8
      0029C4 08 00                 6940 	.byte #0x08,#0x00	; 8
      0029C6 08 00                 6941 	.byte #0x08,#0x00	; 8
      0029C8 22 04                 6942 	.byte #0x22,#0x04	; 1058
      0029CA 01 00                 6943 	.byte #0x01,#0x00	; 1
      0029CC 84 00                 6944 	.byte #0x84,#0x00	; 132
      0029CE 08 00                 6945 	.byte #0x08,#0x00	; 8
      0029D0 14 00                 6946 	.byte #0x14,#0x00	; 20
      0029D2 00 06                 6947 	.byte #0x00,#0x06	; 1536
      0029D4 03 00                 6948 	.byte #0x03,#0x00	; 3
      0029D6 08 00                 6949 	.byte #0x08,#0x00	; 8
      0029D8 40 00                 6950 	.byte #0x40,#0x00	; 64
      0029DA 80 00                 6951 	.byte #0x80,#0x00	; 128
      0029DC 00 03                 6952 	.byte #0x00,#0x03	; 768
      0029DE 30 08                 6953 	.byte #0x30,#0x08	; 2096
      0029E0 14 00                 6954 	.byte #0x14,#0x00	; 20
      0029E2 01 00                 6955 	.byte #0x01,#0x00	; 1
      0029E4 20 02                 6956 	.byte #0x20,#0x02	; 544
      0029E6 08 00                 6957 	.byte #0x08,#0x00	; 8
      0029E8 01 00                 6958 	.byte #0x01,#0x00	; 1
      0029EA 01 00                 6959 	.byte #0x01,#0x00	; 1
      0029EC 40 08                 6960 	.byte #0x40,#0x08	; 2112
      0029EE 01 00                 6961 	.byte #0x01,#0x00	; 1
      0029F0 14 00                 6962 	.byte #0x14,#0x00	; 20
      0029F2 14 00                 6963 	.byte #0x14,#0x00	; 20
      0029F4 14 00                 6964 	.byte #0x14,#0x00	; 20
      0029F6 C0 01                 6965 	.byte #0xC0,#0x01	; 448
      0029F8 14 00                 6966 	.byte #0x14,#0x00	; 20
      0029FA 01 00                 6967 	.byte #0x01,#0x00	; 1
      0029FC 08 04                 6968 	.byte #0x08,#0x04	; 1032
      0029FE 02 00                 6969 	.byte #0x02,#0x00	; 2
      002A00 00 00                 6970 	.byte #0x00,#0x00	; 0
      002A02 00 00                 6971 	.byte #0x00,#0x00	; 0
      002A04 00 00                 6972 	.byte #0x00,#0x00	; 0
      002A06 04 00                 6973 	.byte #0x04,#0x00	; 4
      002A08 00 00                 6974 	.byte #0x00,#0x00	; 0
      002A0A 28 00                 6975 	.byte #0x28,#0x00	; 40
      002A0C 40 01                 6976 	.byte #0x40,#0x01	; 320
      002A0E 00 0C                 6977 	.byte #0x00,#0x0C	; 3072
      002A10 00 00                 6978 	.byte #0x00,#0x00	; 0
      002A12 04 00                 6979 	.byte #0x04,#0x00	; 4
      002A14 04 00                 6980 	.byte #0x04,#0x00	; 4
      002A16 04 00                 6981 	.byte #0x04,#0x00	; 4
      002A18 12 00                 6982 	.byte #0x12,#0x00	; 18
      002A1A 41 02                 6983 	.byte #0x41,#0x02	; 577
      002A1C 88 00                 6984 	.byte #0x88,#0x00	; 136
      002A1E 04 00                 6985 	.byte #0x04,#0x00	; 4
      002A20 00 00                 6986 	.byte #0x00,#0x00	; 0
      002A22 02 0A                 6987 	.byte #0x02,#0x0A	; 2562
      002A24 40 01                 6988 	.byte #0x40,#0x01	; 320
      002A26 21 00                 6989 	.byte #0x21,#0x00	; 33
      002A28 40 01                 6990 	.byte #0x40,#0x01	; 320
      002A2A 94 00                 6991 	.byte #0x94,#0x00	; 148
      002A2C 40 01                 6992 	.byte #0x40,#0x01	; 320
      002A2E 40 01                 6993 	.byte #0x40,#0x01	; 320
      002A30 81 00                 6994 	.byte #0x81,#0x00	; 129
      002A32 08 01                 6995 	.byte #0x08,#0x01	; 264
      002A34 10 06                 6996 	.byte #0x10,#0x06	; 1552
      002A36 04 00                 6997 	.byte #0x04,#0x00	; 4
      002A38 20 08                 6998 	.byte #0x20,#0x08	; 2080
      002A3A 00 04                 6999 	.byte #0x00,#0x04	; 1024
      002A3C 40 01                 7000 	.byte #0x40,#0x01	; 320
      002A3E 02 00                 7001 	.byte #0x02,#0x00	; 2
      002A40 00 00                 7002 	.byte #0x00,#0x00	; 0
      002A42 C0 00                 7003 	.byte #0xC0,#0x00	; 192
      002A44 09 02                 7004 	.byte #0x09,#0x02	; 521
      002A46 00 0C                 7005 	.byte #0x00,#0x0C	; 3072
      002A48 12 00                 7006 	.byte #0x12,#0x00	; 18
      002A4A 00 0C                 7007 	.byte #0x00,#0x0C	; 3072
      002A4C 00 0C                 7008 	.byte #0x00,#0x0C	; 3072
      002A4E 00 0C                 7009 	.byte #0x00,#0x0C	; 3072
      002A50 12 00                 7010 	.byte #0x12,#0x00	; 18
      002A52 08 01                 7011 	.byte #0x08,#0x01	; 264
      002A54 60 00                 7012 	.byte #0x60,#0x00	; 96
      002A56 04 00                 7013 	.byte #0x04,#0x00	; 4
      002A58 12 00                 7014 	.byte #0x12,#0x00	; 18
      002A5A 12 00                 7015 	.byte #0x12,#0x00	; 18
      002A5C 12 00                 7016 	.byte #0x12,#0x00	; 18
      002A5E 00 0C                 7017 	.byte #0x00,#0x0C	; 3072
      002A60 24 04                 7018 	.byte #0x24,#0x04	; 1060
      002A62 08 01                 7019 	.byte #0x08,#0x01	; 264
      002A64 82 00                 7020 	.byte #0x82,#0x00	; 130
      002A66 10 00                 7021 	.byte #0x10,#0x00	; 16
      002A68 00 02                 7022 	.byte #0x00,#0x02	; 512
      002A6A 01 00                 7023 	.byte #0x01,#0x00	; 1
      002A6C 40 01                 7024 	.byte #0x40,#0x01	; 320
      002A6E 00 0C                 7025 	.byte #0x00,#0x0C	; 3072
      002A70 08 01                 7026 	.byte #0x08,#0x01	; 264
      002A72 08 01                 7027 	.byte #0x08,#0x01	; 264
      002A74 00 08                 7028 	.byte #0x00,#0x08	; 2048
      002A76 08 01                 7029 	.byte #0x08,#0x01	; 264
      002A78 12 00                 7030 	.byte #0x12,#0x00	; 18
      002A7A 08 01                 7031 	.byte #0x08,#0x01	; 264
      002A7C 05 00                 7032 	.byte #0x05,#0x00	; 5
      002A7E A0 02                 7033 	.byte #0xA0,#0x02	; 672
      002A80 00 00                 7034 	.byte #0x00,#0x00	; 0
      002A82 04 00                 7035 	.byte #0x04,#0x00	; 4
      002A84 04 00                 7036 	.byte #0x04,#0x00	; 4
      002A86 04 00                 7037 	.byte #0x04,#0x00	; 4
      002A88 80 06                 7038 	.byte #0x80,#0x06	; 1664
      002A8A 02 01                 7039 	.byte #0x02,#0x01	; 258
      002A8C 11 00                 7040 	.byte #0x11,#0x00	; 17
      002A8E 04 00                 7041 	.byte #0x04,#0x00	; 4
      002A90 04 00                 7042 	.byte #0x04,#0x00	; 4
      002A92 04 00                 7043 	.byte #0x04,#0x00	; 4
      002A94 04 00                 7044 	.byte #0x04,#0x00	; 4
      002A96 04 00                 7045 	.byte #0x04,#0x00	; 4
      002A98 20 08                 7046 	.byte #0x20,#0x08	; 2080
      002A9A 04 00                 7047 	.byte #0x04,#0x00	; 4
      002A9C 04 00                 7048 	.byte #0x04,#0x00	; 4
      002A9E 04 00                 7049 	.byte #0x04,#0x00	; 4
      002AA0 18 00                 7050 	.byte #0x18,#0x00	; 24
      002AA2 40 04                 7051 	.byte #0x40,#0x04	; 1088
      002AA4 82 00                 7052 	.byte #0x82,#0x00	; 130
      002AA6 04 00                 7053 	.byte #0x04,#0x00	; 4
      002AA8 20 08                 7054 	.byte #0x20,#0x08	; 2080
      002AAA 01 00                 7055 	.byte #0x01,#0x00	; 1
      002AAC 40 01                 7056 	.byte #0x40,#0x01	; 320
      002AAE 08 02                 7057 	.byte #0x08,#0x02	; 520
      002AB0 20 08                 7058 	.byte #0x20,#0x08	; 2080
      002AB2 04 00                 7059 	.byte #0x04,#0x00	; 4
      002AB4 04 00                 7060 	.byte #0x04,#0x00	; 4
      002AB6 04 00                 7061 	.byte #0x04,#0x00	; 4
      002AB8 20 08                 7062 	.byte #0x20,#0x08	; 2080
      002ABA 20 08                 7063 	.byte #0x20,#0x08	; 2080
      002ABC 20 08                 7064 	.byte #0x20,#0x08	; 2080
      002ABE 04 00                 7065 	.byte #0x04,#0x00	; 4
      002AC0 00 09                 7066 	.byte #0x00,#0x09	; 2304
      002AC2 30 02                 7067 	.byte #0x30,#0x02	; 560
      002AC4 82 00                 7068 	.byte #0x82,#0x00	; 130
      002AC6 04 00                 7069 	.byte #0x04,#0x00	; 4
      002AC8 4C 00                 7070 	.byte #0x4C,#0x00	; 76
      002ACA 01 00                 7071 	.byte #0x01,#0x00	; 1
      002ACC 20 00                 7072 	.byte #0x20,#0x00	; 32
      002ACE 00 0C                 7073 	.byte #0x00,#0x0C	; 3072
      002AD0 01 04                 7074 	.byte #0x01,#0x04	; 1025
      002AD2 04 00                 7075 	.byte #0x04,#0x00	; 4
      002AD4 04 00                 7076 	.byte #0x04,#0x00	; 4
      002AD6 04 00                 7077 	.byte #0x04,#0x00	; 4
      002AD8 12 00                 7078 	.byte #0x12,#0x00	; 18
      002ADA 80 00                 7079 	.byte #0x80,#0x00	; 128
      002ADC 00 03                 7080 	.byte #0x00,#0x03	; 768
      002ADE 04 00                 7081 	.byte #0x04,#0x00	; 4
      002AE0 82 00                 7082 	.byte #0x82,#0x00	; 130
      002AE2 01 00                 7083 	.byte #0x01,#0x00	; 1
      002AE4 82 00                 7084 	.byte #0x82,#0x00	; 130
      002AE6 82 00                 7085 	.byte #0x82,#0x00	; 130
      002AE8 01 00                 7086 	.byte #0x01,#0x00	; 1
      002AEA 01 00                 7087 	.byte #0x01,#0x00	; 1
      002AEC 82 00                 7088 	.byte #0x82,#0x00	; 130
      002AEE 01 00                 7089 	.byte #0x01,#0x00	; 1
      002AF0 40 02                 7090 	.byte #0x40,#0x02	; 576
      002AF2 08 01                 7091 	.byte #0x08,#0x01	; 264
      002AF4 82 00                 7092 	.byte #0x82,#0x00	; 130
      002AF6 04 00                 7093 	.byte #0x04,#0x00	; 4
      002AF8 20 08                 7094 	.byte #0x20,#0x08	; 2080
      002AFA 01 00                 7095 	.byte #0x01,#0x00	; 1
      002AFC 08 04                 7096 	.byte #0x08,#0x04	; 1032
      002AFE 50 00                 7097 	.byte #0x50,#0x00	; 80
      002B00 00 00                 7098 	.byte #0x00,#0x00	; 0
      002B02 28 00                 7099 	.byte #0x28,#0x00	; 40
      002B04 02 04                 7100 	.byte #0x02,#0x04	; 1026
      002B06 80 03                 7101 	.byte #0x80,#0x03	; 896
      002B08 28 00                 7102 	.byte #0x28,#0x00	; 40
      002B0A 28 00                 7103 	.byte #0x28,#0x00	; 40
      002B0C 11 00                 7104 	.byte #0x11,#0x00	; 17
      002B0E 28 00                 7105 	.byte #0x28,#0x00	; 40
      002B10 81 00                 7106 	.byte #0x81,#0x00	; 129
      002B12 10 08                 7107 	.byte #0x10,#0x08	; 2064
      002B14 60 00                 7108 	.byte #0x60,#0x00	; 96
      002B16 04 00                 7109 	.byte #0x04,#0x00	; 4
      002B18 04 05                 7110 	.byte #0x04,#0x05	; 1284
      002B1A 28 00                 7111 	.byte #0x28,#0x00	; 40
      002B1C 00 0A                 7112 	.byte #0x00,#0x0A	; 2560
      002B1E 02 00                 7113 	.byte #0x02,#0x00	; 2
      002B20 81 00                 7114 	.byte #0x81,#0x00	; 129
      002B22 40 04                 7115 	.byte #0x40,#0x04	; 1088
      002B24 0C 08                 7116 	.byte #0x0C,#0x08	; 2060
      002B26 10 00                 7117 	.byte #0x10,#0x00	; 16
      002B28 00 02                 7118 	.byte #0x00,#0x02	; 512
      002B2A 28 00                 7119 	.byte #0x28,#0x00	; 40
      002B2C 40 01                 7120 	.byte #0x40,#0x01	; 320
      002B2E 02 00                 7121 	.byte #0x02,#0x00	; 2
      002B30 81 00                 7122 	.byte #0x81,#0x00	; 129
      002B32 81 00                 7123 	.byte #0x81,#0x00	; 129
      002B34 81 00                 7124 	.byte #0x81,#0x00	; 129
      002B36 02 00                 7125 	.byte #0x02,#0x00	; 2
      002B38 81 00                 7126 	.byte #0x81,#0x00	; 129
      002B3A 02 00                 7127 	.byte #0x02,#0x00	; 2
      002B3C 02 00                 7128 	.byte #0x02,#0x00	; 2
      002B3E 02 00                 7129 	.byte #0x02,#0x00	; 2
      002B40 00 09                 7130 	.byte #0x00,#0x09	; 2304
      002B42 07 00                 7131 	.byte #0x07,#0x00	; 7
      002B44 60 00                 7132 	.byte #0x60,#0x00	; 96
      002B46 10 00                 7133 	.byte #0x10,#0x00	; 16
      002B48 00 02                 7134 	.byte #0x00,#0x02	; 512
      002B4A 28 00                 7135 	.byte #0x28,#0x00	; 40
      002B4C 84 00                 7136 	.byte #0x84,#0x00	; 132
      002B4E 00 0C                 7137 	.byte #0x00,#0x0C	; 3072
      002B50 60 00                 7138 	.byte #0x60,#0x00	; 96
      002B52 00 06                 7139 	.byte #0x00,#0x06	; 1536
      002B54 60 00                 7140 	.byte #0x60,#0x00	; 96
      002B56 60 00                 7141 	.byte #0x60,#0x00	; 96
      002B58 12 00                 7142 	.byte #0x12,#0x00	; 18
      002B5A 80 00                 7143 	.byte #0x80,#0x00	; 128
      002B5C 60 00                 7144 	.byte #0x60,#0x00	; 96
      002B5E 01 01                 7145 	.byte #0x01,#0x01	; 257
      002B60 00 02                 7146 	.byte #0x00,#0x02	; 512
      002B62 10 00                 7147 	.byte #0x10,#0x00	; 16
      002B64 10 00                 7148 	.byte #0x10,#0x00	; 16
      002B66 10 00                 7149 	.byte #0x10,#0x00	; 16
      002B68 00 02                 7150 	.byte #0x00,#0x02	; 512
      002B6A 00 02                 7151 	.byte #0x00,#0x02	; 512
      002B6C 00 02                 7152 	.byte #0x00,#0x02	; 512
      002B6E 10 00                 7153 	.byte #0x10,#0x00	; 16
      002B70 81 00                 7154 	.byte #0x81,#0x00	; 129
      002B72 08 01                 7155 	.byte #0x08,#0x01	; 264
      002B74 60 00                 7156 	.byte #0x60,#0x00	; 96
      002B76 10 00                 7157 	.byte #0x10,#0x00	; 16
      002B78 00 02                 7158 	.byte #0x00,#0x02	; 512
      002B7A 44 08                 7159 	.byte #0x44,#0x08	; 2116
      002B7C 08 04                 7160 	.byte #0x08,#0x04	; 1032
      002B7E 02 00                 7161 	.byte #0x02,#0x00	; 2
      002B80 00 09                 7162 	.byte #0x00,#0x09	; 2304
      002B82 40 04                 7163 	.byte #0x40,#0x04	; 1088
      002B84 11 00                 7164 	.byte #0x11,#0x00	; 17
      002B86 04 00                 7165 	.byte #0x04,#0x00	; 4
      002B88 11 00                 7166 	.byte #0x11,#0x00	; 17
      002B8A 28 00                 7167 	.byte #0x28,#0x00	; 40
      002B8C 11 00                 7168 	.byte #0x11,#0x00	; 17
      002B8E 11 00                 7169 	.byte #0x11,#0x00	; 17
      002B90 0A 02                 7170 	.byte #0x0A,#0x02	; 522
      002B92 04 00                 7171 	.byte #0x04,#0x00	; 4
      002B94 04 00                 7172 	.byte #0x04,#0x00	; 4
      002B96 04 00                 7173 	.byte #0x04,#0x00	; 4
      002B98 40 00                 7174 	.byte #0x40,#0x00	; 64
      002B9A 80 00                 7175 	.byte #0x80,#0x00	; 128
      002B9C 11 00                 7176 	.byte #0x11,#0x00	; 17
      002B9E 04 00                 7177 	.byte #0x04,#0x00	; 4
      002BA0 40 04                 7178 	.byte #0x40,#0x04	; 1088
      002BA2 40 04                 7179 	.byte #0x40,#0x04	; 1088
      002BA4 20 02                 7180 	.byte #0x20,#0x02	; 544
      002BA6 40 04                 7181 	.byte #0x40,#0x04	; 1088
      002BA8 06 00                 7182 	.byte #0x06,#0x00	; 6
      002BAA 40 04                 7183 	.byte #0x40,#0x04	; 1088
      002BAC 11 00                 7184 	.byte #0x11,#0x00	; 17
      002BAE 80 08                 7185 	.byte #0x80,#0x08	; 2176
      002BB0 81 00                 7186 	.byte #0x81,#0x00	; 129
      002BB2 40 04                 7187 	.byte #0x40,#0x04	; 1088
      002BB4 00 01                 7188 	.byte #0x00,#0x01	; 256
      002BB6 04 00                 7189 	.byte #0x04,#0x00	; 4
      002BB8 20 08                 7190 	.byte #0x20,#0x08	; 2080
      002BBA 10 03                 7191 	.byte #0x10,#0x03	; 784
      002BBC 08 04                 7192 	.byte #0x08,#0x04	; 1032
      002BBE 02 00                 7193 	.byte #0x02,#0x00	; 2
      002BC0 00 09                 7194 	.byte #0x00,#0x09	; 2304
      002BC2 00 09                 7195 	.byte #0x00,#0x09	; 2304
      002BC4 00 09                 7196 	.byte #0x00,#0x09	; 2304
      002BC6 08 00                 7197 	.byte #0x08,#0x00	; 8
      002BC8 00 09                 7198 	.byte #0x00,#0x09	; 2304
      002BCA 80 00                 7199 	.byte #0x80,#0x00	; 128
      002BCC 11 00                 7200 	.byte #0x11,#0x00	; 17
      002BCE 42 02                 7201 	.byte #0x42,#0x02	; 578
      002BD0 00 09                 7202 	.byte #0x00,#0x09	; 2304
      002BD2 80 00                 7203 	.byte #0x80,#0x00	; 128
      002BD4 60 00                 7204 	.byte #0x60,#0x00	; 96
      002BD6 04 00                 7205 	.byte #0x04,#0x00	; 4
      002BD8 80 00                 7206 	.byte #0x80,#0x00	; 128
      002BDA 80 00                 7207 	.byte #0x80,#0x00	; 128
      002BDC 08 04                 7208 	.byte #0x08,#0x04	; 1032
      002BDE 80 00                 7209 	.byte #0x80,#0x00	; 128
      002BE0 00 09                 7210 	.byte #0x00,#0x09	; 2304
      002BE2 40 04                 7211 	.byte #0x40,#0x04	; 1088
      002BE4 82 00                 7212 	.byte #0x82,#0x00	; 130
      002BE6 10 00                 7213 	.byte #0x10,#0x00	; 16
      002BE8 00 02                 7214 	.byte #0x00,#0x02	; 512
      002BEA 01 00                 7215 	.byte #0x01,#0x00	; 1
      002BEC 08 04                 7216 	.byte #0x08,#0x04	; 1032
      002BEE 24 01                 7217 	.byte #0x24,#0x01	; 292
      002BF0 14 00                 7218 	.byte #0x14,#0x00	; 20
      002BF2 22 00                 7219 	.byte #0x22,#0x00	; 34
      002BF4 08 04                 7220 	.byte #0x08,#0x04	; 1032
      002BF6 01 0A                 7221 	.byte #0x01,#0x0A	; 2561
      002BF8 08 04                 7222 	.byte #0x08,#0x04	; 1032
      002BFA 80 00                 7223 	.byte #0x80,#0x00	; 128
      002BFC 08 04                 7224 	.byte #0x08,#0x04	; 1032
      002BFE 08 04                 7225 	.byte #0x08,#0x04	; 1032
      002C00 00 00                 7226 	.byte #0x00,#0x00	; 0
      002C02 00 00                 7227 	.byte #0x00,#0x00	; 0
      002C04 00 00                 7228 	.byte #0x00,#0x00	; 0
      002C06 10 02                 7229 	.byte #0x10,#0x02	; 528
      002C08 00 00                 7230 	.byte #0x00,#0x00	; 0
      002C0A 10 02                 7231 	.byte #0x10,#0x02	; 528
      002C0C 10 02                 7232 	.byte #0x10,#0x02	; 528
      002C0E 10 02                 7233 	.byte #0x10,#0x02	; 528
      002C10 00 00                 7234 	.byte #0x00,#0x00	; 0
      002C12 0B 00                 7235 	.byte #0x0B,#0x00	; 11
      002C14 00 08                 7236 	.byte #0x00,#0x08	; 2048
      002C16 40 05                 7237 	.byte #0x40,#0x05	; 1344
      002C18 40 00                 7238 	.byte #0x40,#0x00	; 64
      002C1A 24 00                 7239 	.byte #0x24,#0x00	; 36
      002C1C 88 00                 7240 	.byte #0x88,#0x00	; 136
      002C1E 10 02                 7241 	.byte #0x10,#0x02	; 528
      002C20 00 00                 7242 	.byte #0x00,#0x00	; 0
      002C22 04 01                 7243 	.byte #0x04,#0x01	; 260
      002C24 00 08                 7244 	.byte #0x00,#0x08	; 2048
      002C26 21 00                 7245 	.byte #0x21,#0x00	; 33
      002C28 A2 00                 7246 	.byte #0xA2,#0x00	; 162
      002C2A 48 08                 7247 	.byte #0x48,#0x08	; 2120
      002C2C 04 04                 7248 	.byte #0x04,#0x04	; 1028
      002C2E 10 02                 7249 	.byte #0x10,#0x02	; 528
      002C30 00 08                 7250 	.byte #0x00,#0x08	; 2048
      002C32 80 02                 7251 	.byte #0x80,#0x02	; 640
      002C34 00 08                 7252 	.byte #0x00,#0x08	; 2048
      002C36 00 08                 7253 	.byte #0x00,#0x08	; 2048
      002C38 11 01                 7254 	.byte #0x11,#0x01	; 273
      002C3A 00 04                 7255 	.byte #0x00,#0x04	; 1024
      002C3C 00 08                 7256 	.byte #0x00,#0x08	; 2048
      002C3E 02 00                 7257 	.byte #0x02,#0x00	; 2
      002C40 00 00                 7258 	.byte #0x00,#0x00	; 0
      002C42 C0 00                 7259 	.byte #0xC0,#0x00	; 192
      002C44 00 08                 7260 	.byte #0x00,#0x08	; 2048
      002C46 08 00                 7261 	.byte #0x08,#0x00	; 8
      002C48 08 05                 7262 	.byte #0x08,#0x05	; 1288
      002C4A 24 00                 7263 	.byte #0x24,#0x00	; 36
      002C4C 43 00                 7264 	.byte #0x43,#0x00	; 67
      002C4E 10 02                 7265 	.byte #0x10,#0x02	; 528
      002C50 00 08                 7266 	.byte #0x00,#0x08	; 2048
      002C52 24 00                 7267 	.byte #0x24,#0x00	; 36
      002C54 00 08                 7268 	.byte #0x00,#0x08	; 2048
      002C56 00 08                 7269 	.byte #0x00,#0x08	; 2048
      002C58 24 00                 7270 	.byte #0x24,#0x00	; 36
      002C5A 24 00                 7271 	.byte #0x24,#0x00	; 36
      002C5C 00 08                 7272 	.byte #0x00,#0x08	; 2048
      002C5E 24 00                 7273 	.byte #0x24,#0x00	; 36
      002C60 00 08                 7274 	.byte #0x00,#0x08	; 2048
      002C62 12 04                 7275 	.byte #0x12,#0x04	; 1042
      002C64 00 08                 7276 	.byte #0x00,#0x08	; 2048
      002C66 00 08                 7277 	.byte #0x00,#0x08	; 2048
      002C68 00 02                 7278 	.byte #0x00,#0x02	; 512
      002C6A 01 00                 7279 	.byte #0x01,#0x00	; 1
      002C6C 00 08                 7280 	.byte #0x00,#0x08	; 2048
      002C6E 80 01                 7281 	.byte #0x80,#0x01	; 384
      002C70 00 08                 7282 	.byte #0x00,#0x08	; 2048
      002C72 00 08                 7283 	.byte #0x00,#0x08	; 2048
      002C74 00 08                 7284 	.byte #0x00,#0x08	; 2048
      002C76 00 08                 7285 	.byte #0x00,#0x08	; 2048
      002C78 00 08                 7286 	.byte #0x00,#0x08	; 2048
      002C7A 24 00                 7287 	.byte #0x24,#0x00	; 36
      002C7C 00 08                 7288 	.byte #0x00,#0x08	; 2048
      002C7E 00 08                 7289 	.byte #0x00,#0x08	; 2048
      002C80 00 00                 7290 	.byte #0x00,#0x00	; 0
      002C82 20 0C                 7291 	.byte #0x20,#0x0C	; 3104
      002C84 81 01                 7292 	.byte #0x81,#0x01	; 385
      002C86 08 00                 7293 	.byte #0x08,#0x00	; 8
      002C88 40 00                 7294 	.byte #0x40,#0x00	; 64
      002C8A 02 01                 7295 	.byte #0x02,#0x01	; 258
      002C8C 04 04                 7296 	.byte #0x04,#0x04	; 1028
      002C8E 10 02                 7297 	.byte #0x10,#0x02	; 528
      002C90 40 00                 7298 	.byte #0x40,#0x00	; 64
      002C92 80 02                 7299 	.byte #0x80,#0x02	; 640
      002C94 32 00                 7300 	.byte #0x32,#0x00	; 50
      002C96 04 00                 7301 	.byte #0x04,#0x00	; 4
      002C98 40 00                 7302 	.byte #0x40,#0x00	; 64
      002C9A 40 00                 7303 	.byte #0x40,#0x00	; 64
      002C9C 40 00                 7304 	.byte #0x40,#0x00	; 64
      002C9E 01 08                 7305 	.byte #0x01,#0x08	; 2049
      002CA0 18 00                 7306 	.byte #0x18,#0x00	; 24
      002CA2 80 02                 7307 	.byte #0x80,#0x02	; 640
      002CA4 04 04                 7308 	.byte #0x04,#0x04	; 1028
      002CA6 42 00                 7309 	.byte #0x42,#0x00	; 66
      002CA8 04 04                 7310 	.byte #0x04,#0x04	; 1028
      002CAA 01 00                 7311 	.byte #0x01,#0x00	; 1
      002CAC 04 04                 7312 	.byte #0x04,#0x04	; 1028
      002CAE 04 04                 7313 	.byte #0x04,#0x04	; 1028
      002CB0 80 02                 7314 	.byte #0x80,#0x02	; 640
      002CB2 80 02                 7315 	.byte #0x80,#0x02	; 640
      002CB4 00 08                 7316 	.byte #0x00,#0x08	; 2048
      002CB6 80 02                 7317 	.byte #0x80,#0x02	; 640
      002CB8 40 00                 7318 	.byte #0x40,#0x00	; 64
      002CBA 80 02                 7319 	.byte #0x80,#0x02	; 640
      002CBC 04 04                 7320 	.byte #0x04,#0x04	; 1028
      002CBE 28 01                 7321 	.byte #0x28,#0x01	; 296
      002CC0 06 02                 7322 	.byte #0x06,#0x02	; 518
      002CC2 08 00                 7323 	.byte #0x08,#0x00	; 8
      002CC4 08 00                 7324 	.byte #0x08,#0x00	; 8
      002CC6 08 00                 7325 	.byte #0x08,#0x00	; 8
      002CC8 90 08                 7326 	.byte #0x90,#0x08	; 2192
      002CCA 01 00                 7327 	.byte #0x01,#0x00	; 1
      002CCC 20 00                 7328 	.byte #0x20,#0x00	; 32
      002CCE 08 00                 7329 	.byte #0x08,#0x00	; 8
      002CD0 01 04                 7330 	.byte #0x01,#0x04	; 1025
      002CD2 10 01                 7331 	.byte #0x10,#0x01	; 272
      002CD4 00 08                 7332 	.byte #0x00,#0x08	; 2048
      002CD6 08 00                 7333 	.byte #0x08,#0x00	; 8
      002CD8 40 00                 7334 	.byte #0x40,#0x00	; 64
      002CDA 24 00                 7335 	.byte #0x24,#0x00	; 36
      002CDC 00 03                 7336 	.byte #0x00,#0x03	; 768
      002CDE 82 04                 7337 	.byte #0x82,#0x04	; 1154
      002CE0 60 01                 7338 	.byte #0x60,#0x01	; 352
      002CE2 01 00                 7339 	.byte #0x01,#0x00	; 1
      002CE4 00 08                 7340 	.byte #0x00,#0x08	; 2048
      002CE6 08 00                 7341 	.byte #0x08,#0x00	; 8
      002CE8 01 00                 7342 	.byte #0x01,#0x00	; 1
      002CEA 01 00                 7343 	.byte #0x01,#0x00	; 1
      002CEC 04 04                 7344 	.byte #0x04,#0x04	; 1028
      002CEE 01 00                 7345 	.byte #0x01,#0x00	; 1
      002CF0 00 08                 7346 	.byte #0x00,#0x08	; 2048
      002CF2 80 02                 7347 	.byte #0x80,#0x02	; 640
      002CF4 00 08                 7348 	.byte #0x00,#0x08	; 2048
      002CF6 00 08                 7349 	.byte #0x00,#0x08	; 2048
      002CF8 0A 00                 7350 	.byte #0x0A,#0x00	; 10
      002CFA 01 00                 7351 	.byte #0x01,#0x00	; 1
      002CFC 00 08                 7352 	.byte #0x00,#0x08	; 2048
      002CFE 50 00                 7353 	.byte #0x50,#0x00	; 80
      002D00 00 00                 7354 	.byte #0x00,#0x00	; 0
      002D02 04 01                 7355 	.byte #0x04,#0x01	; 260
      002D04 02 04                 7356 	.byte #0x02,#0x04	; 1026
      002D06 08 00                 7357 	.byte #0x08,#0x00	; 8
      002D08 40 00                 7358 	.byte #0x40,#0x00	; 64
      002D0A 81 04                 7359 	.byte #0x81,#0x04	; 1153
      002D0C 20 09                 7360 	.byte #0x20,#0x09	; 2336
      002D0E 10 02                 7361 	.byte #0x10,#0x02	; 528
      002D10 40 00                 7362 	.byte #0x40,#0x00	; 64
      002D12 10 08                 7363 	.byte #0x10,#0x08	; 2064
      002D14 05 02                 7364 	.byte #0x05,#0x02	; 517
      002D16 A0 00                 7365 	.byte #0xA0,#0x00	; 160
      002D18 40 00                 7366 	.byte #0x40,#0x00	; 64
      002D1A 40 00                 7367 	.byte #0x40,#0x00	; 64
      002D1C 40 00                 7368 	.byte #0x40,#0x00	; 64
      002D1E 02 00                 7369 	.byte #0x02,#0x00	; 2
      002D20 04 01                 7370 	.byte #0x04,#0x01	; 260
      002D22 04 01                 7371 	.byte #0x04,#0x01	; 260
      002D24 D0 00                 7372 	.byte #0xD0,#0x00	; 208
      002D26 04 01                 7373 	.byte #0x04,#0x01	; 260
      002D28 00 02                 7374 	.byte #0x00,#0x02	; 512
      002D2A 04 01                 7375 	.byte #0x04,#0x01	; 260
      002D2C 09 00                 7376 	.byte #0x09,#0x00	; 9
      002D2E 02 00                 7377 	.byte #0x02,#0x00	; 2
      002D30 28 04                 7378 	.byte #0x28,#0x04	; 1064
      002D32 04 01                 7379 	.byte #0x04,#0x01	; 260
      002D34 00 08                 7380 	.byte #0x00,#0x08	; 2048
      002D36 02 00                 7381 	.byte #0x02,#0x00	; 2
      002D38 40 00                 7382 	.byte #0x40,#0x00	; 64
      002D3A 02 00                 7383 	.byte #0x02,#0x00	; 2
      002D3C 02 00                 7384 	.byte #0x02,#0x00	; 2
      002D3E 02 00                 7385 	.byte #0x02,#0x00	; 2
      002D40 31 00                 7386 	.byte #0x31,#0x00	; 49
      002D42 08 00                 7387 	.byte #0x08,#0x00	; 8
      002D44 08 00                 7388 	.byte #0x08,#0x00	; 8
      002D46 08 00                 7389 	.byte #0x08,#0x00	; 8
      002D48 00 02                 7390 	.byte #0x00,#0x02	; 512
      002D4A 02 08                 7391 	.byte #0x02,#0x08	; 2050
      002D4C 84 00                 7392 	.byte #0x84,#0x00	; 132
      002D4E 08 00                 7393 	.byte #0x08,#0x00	; 8
      002D50 82 01                 7394 	.byte #0x82,#0x01	; 386
      002D52 00 06                 7395 	.byte #0x00,#0x06	; 1536
      002D54 00 08                 7396 	.byte #0x00,#0x08	; 2048
      002D56 08 00                 7397 	.byte #0x08,#0x00	; 8
      002D58 40 00                 7398 	.byte #0x40,#0x00	; 64
      002D5A 24 00                 7399 	.byte #0x24,#0x00	; 36
      002D5C 10 04                 7400 	.byte #0x10,#0x04	; 1040
      002D5E 01 01                 7401 	.byte #0x01,#0x01	; 257
      002D60 00 02                 7402 	.byte #0x00,#0x02	; 512
      002D62 04 01                 7403 	.byte #0x04,#0x01	; 260
      002D64 00 08                 7404 	.byte #0x00,#0x08	; 2048
      002D66 08 00                 7405 	.byte #0x08,#0x00	; 8
      002D68 00 02                 7406 	.byte #0x00,#0x02	; 512
      002D6A 00 02                 7407 	.byte #0x00,#0x02	; 512
      002D6C 00 02                 7408 	.byte #0x00,#0x02	; 512
      002D6E 60 04                 7409 	.byte #0x60,#0x04	; 1120
      002D70 00 08                 7410 	.byte #0x00,#0x08	; 2048
      002D72 41 00                 7411 	.byte #0x41,#0x00	; 65
      002D74 00 08                 7412 	.byte #0x00,#0x08	; 2048
      002D76 00 08                 7413 	.byte #0x00,#0x08	; 2048
      002D78 00 02                 7414 	.byte #0x00,#0x02	; 512
      002D7A 98 00                 7415 	.byte #0x98,#0x00	; 152
      002D7C 00 08                 7416 	.byte #0x00,#0x08	; 2048
      002D7E 02 00                 7417 	.byte #0x02,#0x00	; 2
      002D80 40 00                 7418 	.byte #0x40,#0x00	; 64
      002D82 08 00                 7419 	.byte #0x08,#0x00	; 8
      002D84 08 00                 7420 	.byte #0x08,#0x00	; 8
      002D86 08 00                 7421 	.byte #0x08,#0x00	; 8
      002D88 40 00                 7422 	.byte #0x40,#0x00	; 64
      002D8A 40 00                 7423 	.byte #0x40,#0x00	; 64
      002D8C 40 00                 7424 	.byte #0x40,#0x00	; 64
      002D8E 08 00                 7425 	.byte #0x08,#0x00	; 8
      002D90 40 00                 7426 	.byte #0x40,#0x00	; 64
      002D92 40 00                 7427 	.byte #0x40,#0x00	; 64
      002D94 40 00                 7428 	.byte #0x40,#0x00	; 64
      002D96 08 00                 7429 	.byte #0x08,#0x00	; 8
      002D98 40 00                 7430 	.byte #0x40,#0x00	; 64
      002D9A 40 00                 7431 	.byte #0x40,#0x00	; 64
      002D9C 40 00                 7432 	.byte #0x40,#0x00	; 64
      002D9E 40 00                 7433 	.byte #0x40,#0x00	; 64
      002DA0 03 08                 7434 	.byte #0x03,#0x08	; 2051
      002DA2 04 01                 7435 	.byte #0x04,#0x01	; 260
      002DA4 20 02                 7436 	.byte #0x20,#0x02	; 544
      002DA6 08 00                 7437 	.byte #0x08,#0x00	; 8
      002DA8 40 00                 7438 	.byte #0x40,#0x00	; 64
      002DAA 30 00                 7439 	.byte #0x30,#0x00	; 48
      002DAC 04 04                 7440 	.byte #0x04,#0x04	; 1028
      002DAE 80 08                 7441 	.byte #0x80,#0x08	; 2176
      002DB0 40 00                 7442 	.byte #0x40,#0x00	; 64
      002DB2 80 02                 7443 	.byte #0x80,#0x02	; 640
      002DB4 00 01                 7444 	.byte #0x00,#0x01	; 256
      002DB6 11 04                 7445 	.byte #0x11,#0x04	; 1041
      002DB8 40 00                 7446 	.byte #0x40,#0x00	; 64
      002DBA 40 00                 7447 	.byte #0x40,#0x00	; 64
      002DBC 40 00                 7448 	.byte #0x40,#0x00	; 64
      002DBE 02 00                 7449 	.byte #0x02,#0x00	; 2
      002DC0 08 00                 7450 	.byte #0x08,#0x00	; 8
      002DC2 08 00                 7451 	.byte #0x08,#0x00	; 8
      002DC4 08 00                 7452 	.byte #0x08,#0x00	; 8
      002DC6 08 00                 7453 	.byte #0x08,#0x00	; 8
      002DC8 40 00                 7454 	.byte #0x40,#0x00	; 64
      002DCA 08 00                 7455 	.byte #0x08,#0x00	; 8
      002DCC 08 00                 7456 	.byte #0x08,#0x00	; 8
      002DCE 08 00                 7457 	.byte #0x08,#0x00	; 8
      002DD0 40 00                 7458 	.byte #0x40,#0x00	; 64
      002DD2 08 00                 7459 	.byte #0x08,#0x00	; 8
      002DD4 08 00                 7460 	.byte #0x08,#0x00	; 8
      002DD6 08 00                 7461 	.byte #0x08,#0x00	; 8
      002DD8 40 00                 7462 	.byte #0x40,#0x00	; 64
      002DDA 40 00                 7463 	.byte #0x40,#0x00	; 64
      002DDC 40 00                 7464 	.byte #0x40,#0x00	; 64
      002DDE 08 00                 7465 	.byte #0x08,#0x00	; 8
      002DE0 80 04                 7466 	.byte #0x80,#0x04	; 1152
      002DE2 08 00                 7467 	.byte #0x08,#0x00	; 8
      002DE4 08 00                 7468 	.byte #0x08,#0x00	; 8
      002DE6 08 00                 7469 	.byte #0x08,#0x00	; 8
      002DE8 00 02                 7470 	.byte #0x00,#0x02	; 512
      002DEA 01 00                 7471 	.byte #0x01,#0x00	; 1
      002DEC 12 01                 7472 	.byte #0x12,#0x01	; 274
      002DEE 08 00                 7473 	.byte #0x08,#0x00	; 8
      002DF0 14 00                 7474 	.byte #0x14,#0x00	; 20
      002DF2 22 00                 7475 	.byte #0x22,#0x00	; 34
      002DF4 00 08                 7476 	.byte #0x00,#0x08	; 2048
      002DF6 08 00                 7477 	.byte #0x08,#0x00	; 8
      002DF8 40 00                 7478 	.byte #0x40,#0x00	; 64
      002DFA 00 0D                 7479 	.byte #0x00,#0x0D	; 3328
      002DFC A1 00                 7480 	.byte #0xA1,#0x00	; 161
      002DFE 04 02                 7481 	.byte #0x04,#0x02	; 516
      002E00 00 00                 7482 	.byte #0x00,#0x00	; 0
      002E02 C0 00                 7483 	.byte #0xC0,#0x00	; 192
      002E04 02 04                 7484 	.byte #0x02,#0x04	; 1026
      002E06 21 00                 7485 	.byte #0x21,#0x00	; 33
      002E08 05 08                 7486 	.byte #0x05,#0x08	; 2053
      002E0A 02 01                 7487 	.byte #0x02,#0x01	; 258
      002E0C 88 00                 7488 	.byte #0x88,#0x00	; 136
      002E0E 10 02                 7489 	.byte #0x10,#0x02	; 528
      002E10 20 03                 7490 	.byte #0x20,#0x03	; 800
      002E12 10 08                 7491 	.byte #0x10,#0x08	; 2064
      002E14 88 00                 7492 	.byte #0x88,#0x00	; 136
      002E16 04 00                 7493 	.byte #0x04,#0x00	; 4
      002E18 88 00                 7494 	.byte #0x88,#0x00	; 136
      002E1A 00 04                 7495 	.byte #0x00,#0x04	; 1024
      002E1C 88 00                 7496 	.byte #0x88,#0x00	; 136
      002E1E 88 00                 7497 	.byte #0x88,#0x00	; 136
      002E20 18 00                 7498 	.byte #0x18,#0x00	; 24
      002E22 21 00                 7499 	.byte #0x21,#0x00	; 33
      002E24 21 00                 7500 	.byte #0x21,#0x00	; 33
      002E26 21 00                 7501 	.byte #0x21,#0x00	; 33
      002E28 00 02                 7502 	.byte #0x00,#0x02	; 512
      002E2A 00 04                 7503 	.byte #0x00,#0x04	; 1024
      002E2C 40 01                 7504 	.byte #0x40,#0x01	; 320
      002E2E 21 00                 7505 	.byte #0x21,#0x00	; 33
      002E30 46 00                 7506 	.byte #0x46,#0x00	; 70
      002E32 00 04                 7507 	.byte #0x00,#0x04	; 1024
      002E34 00 08                 7508 	.byte #0x00,#0x08	; 2048
      002E36 21 00                 7509 	.byte #0x21,#0x00	; 33
      002E38 00 04                 7510 	.byte #0x00,#0x04	; 1024
      002E3A 00 04                 7511 	.byte #0x00,#0x04	; 1024
      002E3C 88 00                 7512 	.byte #0x88,#0x00	; 136
      002E3E 00 04                 7513 	.byte #0x00,#0x04	; 1024
      002E40 C0 00                 7514 	.byte #0xC0,#0x00	; 192
      002E42 C0 00                 7515 	.byte #0xC0,#0x00	; 192
      002E44 14 01                 7516 	.byte #0x14,#0x01	; 276
      002E46 C0 00                 7517 	.byte #0xC0,#0x00	; 192
      002E48 00 02                 7518 	.byte #0x00,#0x02	; 512
      002E4A C0 00                 7519 	.byte #0xC0,#0x00	; 192
      002E4C 20 00                 7520 	.byte #0x20,#0x00	; 32
      002E4E 00 0C                 7521 	.byte #0x00,#0x0C	; 3072
      002E50 01 04                 7522 	.byte #0x01,#0x04	; 1025
      002E52 C0 00                 7523 	.byte #0xC0,#0x00	; 192
      002E54 00 08                 7524 	.byte #0x00,#0x08	; 2048
      002E56 02 02                 7525 	.byte #0x02,#0x02	; 514
      002E58 12 00                 7526 	.byte #0x12,#0x00	; 18
      002E5A 24 00                 7527 	.byte #0x24,#0x00	; 36
      002E5C 88 00                 7528 	.byte #0x88,#0x00	; 136
      002E5E 01 01                 7529 	.byte #0x01,#0x01	; 257
      002E60 00 02                 7530 	.byte #0x00,#0x02	; 512
      002E62 C0 00                 7531 	.byte #0xC0,#0x00	; 192
      002E64 00 08                 7532 	.byte #0x00,#0x08	; 2048
      002E66 21 00                 7533 	.byte #0x21,#0x00	; 33
      002E68 00 02                 7534 	.byte #0x00,#0x02	; 512
      002E6A 00 02                 7535 	.byte #0x00,#0x02	; 512
      002E6C 00 02                 7536 	.byte #0x00,#0x02	; 512
      002E6E 0E 00                 7537 	.byte #0x0E,#0x00	; 14
      002E70 00 08                 7538 	.byte #0x00,#0x08	; 2048
      002E72 08 01                 7539 	.byte #0x08,#0x01	; 264
      002E74 00 08                 7540 	.byte #0x00,#0x08	; 2048
      002E76 00 08                 7541 	.byte #0x00,#0x08	; 2048
      002E78 00 02                 7542 	.byte #0x00,#0x02	; 512
      002E7A 00 04                 7543 	.byte #0x00,#0x04	; 1024
      002E7C 00 08                 7544 	.byte #0x00,#0x08	; 2048
      002E7E 50 00                 7545 	.byte #0x50,#0x00	; 80
      002E80 18 00                 7546 	.byte #0x18,#0x00	; 24
      002E82 02 01                 7547 	.byte #0x02,#0x01	; 258
      002E84 40 0A                 7548 	.byte #0x40,#0x0A	; 2624
      002E86 04 00                 7549 	.byte #0x04,#0x00	; 4
      002E88 02 01                 7550 	.byte #0x02,#0x01	; 258
      002E8A 02 01                 7551 	.byte #0x02,#0x01	; 258
      002E8C 20 00                 7552 	.byte #0x20,#0x00	; 32
      002E8E 02 01                 7553 	.byte #0x02,#0x01	; 258
      002E90 01 04                 7554 	.byte #0x01,#0x04	; 1025
      002E92 04 00                 7555 	.byte #0x04,#0x00	; 4
      002E94 04 00                 7556 	.byte #0x04,#0x00	; 4
      002E96 04 00                 7557 	.byte #0x04,#0x00	; 4
      002E98 40 00                 7558 	.byte #0x40,#0x00	; 64
      002E9A 02 01                 7559 	.byte #0x02,#0x01	; 258
      002E9C 88 00                 7560 	.byte #0x88,#0x00	; 136
      002E9E 04 00                 7561 	.byte #0x04,#0x00	; 4
      002EA0 18 00                 7562 	.byte #0x18,#0x00	; 24
      002EA2 18 00                 7563 	.byte #0x18,#0x00	; 24
      002EA4 18 00                 7564 	.byte #0x18,#0x00	; 24
      002EA6 21 00                 7565 	.byte #0x21,#0x00	; 33
      002EA8 18 00                 7566 	.byte #0x18,#0x00	; 24
      002EAA 02 01                 7567 	.byte #0x02,#0x01	; 258
      002EAC 04 04                 7568 	.byte #0x04,#0x04	; 1028
      002EAE 80 08                 7569 	.byte #0x80,#0x08	; 2176
      002EB0 18 00                 7570 	.byte #0x18,#0x00	; 24
      002EB2 80 02                 7571 	.byte #0x80,#0x02	; 640
      002EB4 00 01                 7572 	.byte #0x00,#0x01	; 256
      002EB6 04 00                 7573 	.byte #0x04,#0x00	; 4
      002EB8 20 08                 7574 	.byte #0x20,#0x08	; 2080
      002EBA 00 04                 7575 	.byte #0x00,#0x04	; 1024
      002EBC 03 02                 7576 	.byte #0x03,#0x02	; 515
      002EBE 50 00                 7577 	.byte #0x50,#0x00	; 80
      002EC0 01 04                 7578 	.byte #0x01,#0x04	; 1025
      002EC2 C0 00                 7579 	.byte #0xC0,#0x00	; 192
      002EC4 20 00                 7580 	.byte #0x20,#0x00	; 32
      002EC6 08 00                 7581 	.byte #0x08,#0x00	; 8
      002EC8 20 00                 7582 	.byte #0x20,#0x00	; 32
      002ECA 02 01                 7583 	.byte #0x02,#0x01	; 258
      002ECC 20 00                 7584 	.byte #0x20,#0x00	; 32
      002ECE 20 00                 7585 	.byte #0x20,#0x00	; 32
      002ED0 01 04                 7586 	.byte #0x01,#0x04	; 1025
      002ED2 01 04                 7587 	.byte #0x01,#0x04	; 1025
      002ED4 01 04                 7588 	.byte #0x01,#0x04	; 1025
      002ED6 04 00                 7589 	.byte #0x04,#0x00	; 4
      002ED8 01 04                 7590 	.byte #0x01,#0x04	; 1025
      002EDA 08 0A                 7591 	.byte #0x08,#0x0A	; 2568
      002EDC 20 00                 7592 	.byte #0x20,#0x00	; 32
      002EDE 50 00                 7593 	.byte #0x50,#0x00	; 80
      002EE0 18 00                 7594 	.byte #0x18,#0x00	; 24
      002EE2 04 08                 7595 	.byte #0x04,#0x08	; 2052
      002EE4 82 00                 7596 	.byte #0x82,#0x00	; 130
      002EE6 00 07                 7597 	.byte #0x00,#0x07	; 1792
      002EE8 00 02                 7598 	.byte #0x00,#0x02	; 512
      002EEA 01 00                 7599 	.byte #0x01,#0x00	; 1
      002EEC 20 00                 7600 	.byte #0x20,#0x00	; 32
      002EEE 50 00                 7601 	.byte #0x50,#0x00	; 80
      002EF0 01 04                 7602 	.byte #0x01,#0x04	; 1025
      002EF2 22 00                 7603 	.byte #0x22,#0x00	; 34
      002EF4 00 08                 7604 	.byte #0x00,#0x08	; 2048
      002EF6 50 00                 7605 	.byte #0x50,#0x00	; 80
      002EF8 84 01                 7606 	.byte #0x84,#0x01	; 388
      002EFA 50 00                 7607 	.byte #0x50,#0x00	; 80
      002EFC 50 00                 7608 	.byte #0x50,#0x00	; 80
      002EFE 50 00                 7609 	.byte #0x50,#0x00	; 80
      002F00 02 04                 7610 	.byte #0x02,#0x04	; 1026
      002F02 10 08                 7611 	.byte #0x10,#0x08	; 2064
      002F04 02 04                 7612 	.byte #0x02,#0x04	; 1026
      002F06 02 04                 7613 	.byte #0x02,#0x04	; 1026
      002F08 00 02                 7614 	.byte #0x00,#0x02	; 512
      002F0A 28 00                 7615 	.byte #0x28,#0x00	; 40
      002F0C 02 04                 7616 	.byte #0x02,#0x04	; 1026
      002F0E 44 00                 7617 	.byte #0x44,#0x00	; 68
      002F10 10 08                 7618 	.byte #0x10,#0x08	; 2064
      002F12 10 08                 7619 	.byte #0x10,#0x08	; 2064
      002F14 02 04                 7620 	.byte #0x02,#0x04	; 1026
      002F16 10 08                 7621 	.byte #0x10,#0x08	; 2064
      002F18 40 00                 7622 	.byte #0x40,#0x00	; 64
      002F1A 10 08                 7623 	.byte #0x10,#0x08	; 2064
      002F1C 88 00                 7624 	.byte #0x88,#0x00	; 136
      002F1E 01 01                 7625 	.byte #0x01,#0x01	; 257
      002F20 00 02                 7626 	.byte #0x00,#0x02	; 512
      002F22 04 01                 7627 	.byte #0x04,#0x01	; 260
      002F24 02 04                 7628 	.byte #0x02,#0x04	; 1026
      002F26 21 00                 7629 	.byte #0x21,#0x00	; 33
      002F28 00 02                 7630 	.byte #0x00,#0x02	; 512
      002F2A 00 02                 7631 	.byte #0x00,#0x02	; 512
      002F2C 00 02                 7632 	.byte #0x00,#0x02	; 512
      002F2E 80 08                 7633 	.byte #0x80,#0x08	; 2176
      002F30 81 00                 7634 	.byte #0x81,#0x00	; 129
      002F32 10 08                 7635 	.byte #0x10,#0x08	; 2064
      002F34 00 01                 7636 	.byte #0x00,#0x01	; 256
      002F36 48 02                 7637 	.byte #0x48,#0x02	; 584
      002F38 00 02                 7638 	.byte #0x00,#0x02	; 512
      002F3A 00 04                 7639 	.byte #0x00,#0x04	; 1024
      002F3C 34 00                 7640 	.byte #0x34,#0x00	; 52
      002F3E 02 00                 7641 	.byte #0x02,#0x00	; 2
      002F40 00 02                 7642 	.byte #0x00,#0x02	; 512
      002F42 C0 00                 7643 	.byte #0xC0,#0x00	; 192
      002F44 02 04                 7644 	.byte #0x02,#0x04	; 1026
      002F46 08 00                 7645 	.byte #0x08,#0x00	; 8
      002F48 00 02                 7646 	.byte #0x00,#0x02	; 512
      002F4A 00 02                 7647 	.byte #0x00,#0x02	; 512
      002F4C 00 02                 7648 	.byte #0x00,#0x02	; 512
      002F4E 01 01                 7649 	.byte #0x01,#0x01	; 257
      002F50 0C 00                 7650 	.byte #0x0C,#0x00	; 12
      002F52 10 08                 7651 	.byte #0x10,#0x08	; 2064
      002F54 60 00                 7652 	.byte #0x60,#0x00	; 96
      002F56 01 01                 7653 	.byte #0x01,#0x01	; 257
      002F58 00 02                 7654 	.byte #0x00,#0x02	; 512
      002F5A 01 01                 7655 	.byte #0x01,#0x01	; 257
      002F5C 01 01                 7656 	.byte #0x01,#0x01	; 257
      002F5E 01 01                 7657 	.byte #0x01,#0x01	; 257
      002F60 00 02                 7658 	.byte #0x00,#0x02	; 512
      002F62 00 02                 7659 	.byte #0x00,#0x02	; 512
      002F64 00 02                 7660 	.byte #0x00,#0x02	; 512
      002F66 10 00                 7661 	.byte #0x10,#0x00	; 16
      002F68 00 02                 7662 	.byte #0x00,#0x02	; 512
      002F6A 00 02                 7663 	.byte #0x00,#0x02	; 512
      002F6C 00 02                 7664 	.byte #0x00,#0x02	; 512
      002F6E 00 02                 7665 	.byte #0x00,#0x02	; 512
      002F70 00 02                 7666 	.byte #0x00,#0x02	; 512
      002F72 22 00                 7667 	.byte #0x22,#0x00	; 34
      002F74 00 08                 7668 	.byte #0x00,#0x08	; 2048
      002F76 84 04                 7669 	.byte #0x84,#0x04	; 1156
      002F78 00 02                 7670 	.byte #0x00,#0x02	; 512
      002F7A 00 02                 7671 	.byte #0x00,#0x02	; 512
      002F7C 00 02                 7672 	.byte #0x00,#0x02	; 512
      002F7E 01 01                 7673 	.byte #0x01,#0x01	; 257
      002F80 A4 00                 7674 	.byte #0xA4,#0x00	; 164
      002F82 01 02                 7675 	.byte #0x01,#0x02	; 513
      002F84 02 04                 7676 	.byte #0x02,#0x04	; 1026
      002F86 08 00                 7677 	.byte #0x08,#0x00	; 8
      002F88 40 00                 7678 	.byte #0x40,#0x00	; 64
      002F8A 02 01                 7679 	.byte #0x02,#0x01	; 258
      002F8C 11 00                 7680 	.byte #0x11,#0x00	; 17
      002F8E 80 08                 7681 	.byte #0x80,#0x08	; 2176
      002F90 40 00                 7682 	.byte #0x40,#0x00	; 64
      002F92 10 08                 7683 	.byte #0x10,#0x08	; 2064
      002F94 00 01                 7684 	.byte #0x00,#0x01	; 256
      002F96 04 00                 7685 	.byte #0x04,#0x00	; 4
      002F98 40 00                 7686 	.byte #0x40,#0x00	; 64
      002F9A 40 00                 7687 	.byte #0x40,#0x00	; 64
      002F9C 40 00                 7688 	.byte #0x40,#0x00	; 64
      002F9E 20 06                 7689 	.byte #0x20,#0x06	; 1568
      002FA0 18 00                 7690 	.byte #0x18,#0x00	; 24
      002FA2 40 04                 7691 	.byte #0x40,#0x04	; 1088
      002FA4 00 01                 7692 	.byte #0x00,#0x01	; 256
      002FA6 80 08                 7693 	.byte #0x80,#0x08	; 2176
      002FA8 00 02                 7694 	.byte #0x00,#0x02	; 512
      002FAA 80 08                 7695 	.byte #0x80,#0x08	; 2176
      002FAC 80 08                 7696 	.byte #0x80,#0x08	; 2176
      002FAE 80 08                 7697 	.byte #0x80,#0x08	; 2176
      002FB0 00 01                 7698 	.byte #0x00,#0x01	; 256
      002FB2 22 00                 7699 	.byte #0x22,#0x00	; 34
      002FB4 00 01                 7700 	.byte #0x00,#0x01	; 256
      002FB6 00 01                 7701 	.byte #0x00,#0x01	; 256
      002FB8 40 00                 7702 	.byte #0x40,#0x00	; 64
      002FBA 0D 00                 7703 	.byte #0x0D,#0x00	; 13
      002FBC 00 01                 7704 	.byte #0x00,#0x01	; 256
      002FBE 80 08                 7705 	.byte #0x80,#0x08	; 2176
      002FC0 00 09                 7706 	.byte #0x00,#0x09	; 2304
      002FC2 08 00                 7707 	.byte #0x08,#0x00	; 8
      002FC4 08 00                 7708 	.byte #0x08,#0x00	; 8
      002FC6 08 00                 7709 	.byte #0x08,#0x00	; 8
      002FC8 00 02                 7710 	.byte #0x00,#0x02	; 512
      002FCA 14 04                 7711 	.byte #0x14,#0x04	; 1044
      002FCC 20 00                 7712 	.byte #0x20,#0x00	; 32
      002FCE 08 00                 7713 	.byte #0x08,#0x00	; 8
      002FD0 01 04                 7714 	.byte #0x01,#0x04	; 1025
      002FD2 22 00                 7715 	.byte #0x22,#0x00	; 34
      002FD4 90 02                 7716 	.byte #0x90,#0x02	; 656
      002FD6 08 00                 7717 	.byte #0x08,#0x00	; 8
      002FD8 40 00                 7718 	.byte #0x40,#0x00	; 64
      002FDA 80 00                 7719 	.byte #0x80,#0x00	; 128
      002FDC 06 08                 7720 	.byte #0x06,#0x08	; 2054
      002FDE 01 01                 7721 	.byte #0x01,#0x01	; 257
      002FE0 00 02                 7722 	.byte #0x00,#0x02	; 512
      002FE2 22 00                 7723 	.byte #0x22,#0x00	; 34
      002FE4 45 00                 7724 	.byte #0x45,#0x00	; 69
      002FE6 08 00                 7725 	.byte #0x08,#0x00	; 8
      002FE8 00 02                 7726 	.byte #0x00,#0x02	; 512
      002FEA 00 02                 7727 	.byte #0x00,#0x02	; 512
      002FEC 00 02                 7728 	.byte #0x00,#0x02	; 512
      002FEE 80 08                 7729 	.byte #0x80,#0x08	; 2176
      002FF0 22 00                 7730 	.byte #0x22,#0x00	; 34
      002FF2 22 00                 7731 	.byte #0x22,#0x00	; 34
      002FF4 00 01                 7732 	.byte #0x00,#0x01	; 256
      002FF6 22 00                 7733 	.byte #0x22,#0x00	; 34
      002FF8 00 02                 7734 	.byte #0x00,#0x02	; 512
      002FFA 22 00                 7735 	.byte #0x22,#0x00	; 34
      002FFC 08 04                 7736 	.byte #0x08,#0x04	; 1032
      002FFE 50 00                 7737 	.byte #0x50,#0x00	; 80
                                   7738 	.area XINIT   (CODE)
                                   7739 	.area CABS    (ABS,CODE)
