                                      1 ;--------------------------------------------------------
                                      2 ; File Created by SDCC : free open source ANSI-C Compiler
                                      3 ; Version 3.5.0 #9253 (Sep  7 2022) (Linux)
                                      4 ; This file was generated Wed Sep  7 10:05:13 2022
                                      5 ;--------------------------------------------------------
                                      6 	.module serial
                                      7 	.optsdcc -mmcs51 --model-large
                                      8 	
                                      9 ;--------------------------------------------------------
                                     10 ; Public variables in this module
                                     11 ;--------------------------------------------------------
                                     12 	.globl _serial_interrupt
                                     13 	.globl _packet_set_serial_speed
                                     14 	.globl _at_input
                                     15 	.globl _at_plus_detector
                                     16 	.globl _memcpy
                                     17 	.globl _SDN
                                     18 	.globl _NSS1
                                     19 	.globl _IRQ
                                     20 	.globl _PIN_ENABLE
                                     21 	.globl _PIN_CONFIG
                                     22 	.globl _LED_GREEN
                                     23 	.globl _LED_RED
                                     24 	.globl _SPI0EN
                                     25 	.globl _TXBMT0
                                     26 	.globl _NSS0MD0
                                     27 	.globl _NSS0MD1
                                     28 	.globl _RXOVRN0
                                     29 	.globl _MODF0
                                     30 	.globl _WCOL0
                                     31 	.globl _SPIF0
                                     32 	.globl _AD0CM0
                                     33 	.globl _AD0CM1
                                     34 	.globl _AD0CM2
                                     35 	.globl _AD0WINT
                                     36 	.globl _AD0BUSY
                                     37 	.globl _AD0INT
                                     38 	.globl _BURSTEN
                                     39 	.globl _AD0EN
                                     40 	.globl _CCF0
                                     41 	.globl _CCF1
                                     42 	.globl _CCF2
                                     43 	.globl _CCF3
                                     44 	.globl _CCF4
                                     45 	.globl _CCF5
                                     46 	.globl _CR
                                     47 	.globl _CF
                                     48 	.globl _P
                                     49 	.globl _F1
                                     50 	.globl _OV
                                     51 	.globl _RS0
                                     52 	.globl _RS1
                                     53 	.globl _F0
                                     54 	.globl _AC
                                     55 	.globl _CY
                                     56 	.globl _T2XCLK
                                     57 	.globl _T2RCLK
                                     58 	.globl _TR2
                                     59 	.globl _T2SPLIT
                                     60 	.globl _TF2CEN
                                     61 	.globl _TF2LEN
                                     62 	.globl _TF2L
                                     63 	.globl _TF2H
                                     64 	.globl _SI
                                     65 	.globl _ACK
                                     66 	.globl _ARBLOST
                                     67 	.globl _ACKRQ
                                     68 	.globl _STO
                                     69 	.globl _STA
                                     70 	.globl _TXMODE
                                     71 	.globl _MASTER
                                     72 	.globl _PX0
                                     73 	.globl _PT0
                                     74 	.globl _PX1
                                     75 	.globl _PT1
                                     76 	.globl _PS0
                                     77 	.globl _PT2
                                     78 	.globl _PSPI0
                                     79 	.globl _SPI1EN
                                     80 	.globl _TXBMT1
                                     81 	.globl _NSS1MD0
                                     82 	.globl _NSS1MD1
                                     83 	.globl _RXOVRN1
                                     84 	.globl _MODF1
                                     85 	.globl _WCOL1
                                     86 	.globl _SPIF1
                                     87 	.globl _EX0
                                     88 	.globl _ET0
                                     89 	.globl _EX1
                                     90 	.globl _ET1
                                     91 	.globl _ES0
                                     92 	.globl _ET2
                                     93 	.globl _ESPI0
                                     94 	.globl _EA
                                     95 	.globl _RI0
                                     96 	.globl _TI0
                                     97 	.globl _RB80
                                     98 	.globl _TB80
                                     99 	.globl _REN0
                                    100 	.globl _MCE0
                                    101 	.globl _S0MODE
                                    102 	.globl _CRC0VAL
                                    103 	.globl _CRC0INIT
                                    104 	.globl _CRC0SEL
                                    105 	.globl _IT0
                                    106 	.globl _IE0
                                    107 	.globl _IT1
                                    108 	.globl _IE1
                                    109 	.globl _TR0
                                    110 	.globl _TF0
                                    111 	.globl _TR1
                                    112 	.globl _TF1
                                    113 	.globl _PCA0CP4
                                    114 	.globl _PCA0CP0
                                    115 	.globl _PCA0
                                    116 	.globl _PCA0CP3
                                    117 	.globl _PCA0CP2
                                    118 	.globl _PCA0CP1
                                    119 	.globl _PCA0CP5
                                    120 	.globl _TMR2
                                    121 	.globl _TMR2RL
                                    122 	.globl _ADC0LT
                                    123 	.globl _ADC0GT
                                    124 	.globl _ADC0
                                    125 	.globl _TMR3
                                    126 	.globl _TMR3RL
                                    127 	.globl _TOFF
                                    128 	.globl _DP
                                    129 	.globl _VDM0CN
                                    130 	.globl _PCA0CPH4
                                    131 	.globl _PCA0CPL4
                                    132 	.globl _PCA0CPH0
                                    133 	.globl _PCA0CPL0
                                    134 	.globl _PCA0H
                                    135 	.globl _PCA0L
                                    136 	.globl _SPI0CN
                                    137 	.globl _EIP2
                                    138 	.globl _EIP1
                                    139 	.globl _SMB0ADM
                                    140 	.globl _SMB0ADR
                                    141 	.globl _P2MDIN
                                    142 	.globl _P1MDIN
                                    143 	.globl _P0MDIN
                                    144 	.globl _B
                                    145 	.globl _RSTSRC
                                    146 	.globl _PCA0CPH3
                                    147 	.globl _PCA0CPL3
                                    148 	.globl _PCA0CPH2
                                    149 	.globl _PCA0CPL2
                                    150 	.globl _PCA0CPH1
                                    151 	.globl _PCA0CPL1
                                    152 	.globl _ADC0CN
                                    153 	.globl _EIE2
                                    154 	.globl _EIE1
                                    155 	.globl _FLWR
                                    156 	.globl _IT01CF
                                    157 	.globl _XBR2
                                    158 	.globl _XBR1
                                    159 	.globl _XBR0
                                    160 	.globl _ACC
                                    161 	.globl _PCA0PWM
                                    162 	.globl _PCA0CPM4
                                    163 	.globl _PCA0CPM3
                                    164 	.globl _PCA0CPM2
                                    165 	.globl _PCA0CPM1
                                    166 	.globl _PCA0CPM0
                                    167 	.globl _PCA0MD
                                    168 	.globl _PCA0CN
                                    169 	.globl _P0MAT
                                    170 	.globl _P2SKIP
                                    171 	.globl _P1SKIP
                                    172 	.globl _P0SKIP
                                    173 	.globl _PCA0CPH5
                                    174 	.globl _PCA0CPL5
                                    175 	.globl _REF0CN
                                    176 	.globl _PSW
                                    177 	.globl _P1MAT
                                    178 	.globl _PCA0CPM5
                                    179 	.globl _TMR2H
                                    180 	.globl _TMR2L
                                    181 	.globl _TMR2RLH
                                    182 	.globl _TMR2RLL
                                    183 	.globl _REG0CN
                                    184 	.globl _TMR2CN
                                    185 	.globl _P0MASK
                                    186 	.globl _ADC0LTH
                                    187 	.globl _ADC0LTL
                                    188 	.globl _ADC0GTH
                                    189 	.globl _ADC0GTL
                                    190 	.globl _SMB0DAT
                                    191 	.globl _SMB0CF
                                    192 	.globl _SMB0CN
                                    193 	.globl _P1MASK
                                    194 	.globl _ADC0H
                                    195 	.globl _ADC0L
                                    196 	.globl _ADC0TK
                                    197 	.globl _ADC0CF
                                    198 	.globl _ADC0MX
                                    199 	.globl _ADC0PWR
                                    200 	.globl _ADC0AC
                                    201 	.globl _IREF0CN
                                    202 	.globl _IP
                                    203 	.globl _FLKEY
                                    204 	.globl _FLSCL
                                    205 	.globl _PMU0CF
                                    206 	.globl _OSCICL
                                    207 	.globl _OSCICN
                                    208 	.globl _OSCXCN
                                    209 	.globl _SPI1CN
                                    210 	.globl _ONESHOT
                                    211 	.globl _EMI0TC
                                    212 	.globl _RTC0KEY
                                    213 	.globl _RTC0DAT
                                    214 	.globl _RTC0ADR
                                    215 	.globl _EMI0CF
                                    216 	.globl _EMI0CN
                                    217 	.globl _CLKSEL
                                    218 	.globl _IE
                                    219 	.globl _SFRPAGE
                                    220 	.globl _P2DRV
                                    221 	.globl _P2MDOUT
                                    222 	.globl _P1DRV
                                    223 	.globl _P1MDOUT
                                    224 	.globl _P0DRV
                                    225 	.globl _P0MDOUT
                                    226 	.globl _SPI0DAT
                                    227 	.globl _SPI0CKR
                                    228 	.globl _SPI0CFG
                                    229 	.globl _P2
                                    230 	.globl _CPT0MX
                                    231 	.globl _CPT1MX
                                    232 	.globl _CPT0MD
                                    233 	.globl _CPT1MD
                                    234 	.globl _CPT0CN
                                    235 	.globl _CPT1CN
                                    236 	.globl _SBUF0
                                    237 	.globl _SCON0
                                    238 	.globl _CRC0CNT
                                    239 	.globl _DC0CN
                                    240 	.globl _CRC0AUTO
                                    241 	.globl _DC0CF
                                    242 	.globl _TMR3H
                                    243 	.globl _CRC0FLIP
                                    244 	.globl _TMR3L
                                    245 	.globl _CRC0IN
                                    246 	.globl _TMR3RLH
                                    247 	.globl _CRC0CN
                                    248 	.globl _TMR3RLL
                                    249 	.globl _CRC0DAT
                                    250 	.globl _TMR3CN
                                    251 	.globl _P1
                                    252 	.globl _PSCTL
                                    253 	.globl _CKCON
                                    254 	.globl _TH1
                                    255 	.globl _TH0
                                    256 	.globl _TL1
                                    257 	.globl _TL0
                                    258 	.globl _TMOD
                                    259 	.globl _TCON
                                    260 	.globl _PCON
                                    261 	.globl _TOFFH
                                    262 	.globl _SPI1DAT
                                    263 	.globl _TOFFL
                                    264 	.globl _SPI1CKR
                                    265 	.globl _SPI1CFG
                                    266 	.globl _DPH
                                    267 	.globl _DPL
                                    268 	.globl _SP
                                    269 	.globl _P0
                                    270 	.globl _tx_buf
                                    271 	.globl _rx_buf
                                    272 	.globl _serial_read_buf_PARM_2
                                    273 	.globl _serial_write_buf_PARM_2
                                    274 	.globl _serial_check_rts
                                    275 	.globl _serial_init
                                    276 	.globl _serial_write
                                    277 	.globl _serial_write_buf
                                    278 	.globl _serial_write_space
                                    279 	.globl _serial_read
                                    280 	.globl _serial_peek
                                    281 	.globl _serial_peekx
                                    282 	.globl _serial_read_buf
                                    283 	.globl _serial_read_available
                                    284 	.globl _serial_read_space
                                    285 	.globl _putchar
                                    286 	.globl _serial_device_valid_speed
                                    287 ;--------------------------------------------------------
                                    288 ; special function registers
                                    289 ;--------------------------------------------------------
                                    290 	.area RSEG    (ABS,DATA)
      000000                        291 	.org 0x0000
                           000080   292 _P0	=	0x0080
                           000081   293 _SP	=	0x0081
                           000082   294 _DPL	=	0x0082
                           000083   295 _DPH	=	0x0083
                           000084   296 _SPI1CFG	=	0x0084
                           000085   297 _SPI1CKR	=	0x0085
                           000085   298 _TOFFL	=	0x0085
                           000086   299 _SPI1DAT	=	0x0086
                           000086   300 _TOFFH	=	0x0086
                           000087   301 _PCON	=	0x0087
                           000088   302 _TCON	=	0x0088
                           000089   303 _TMOD	=	0x0089
                           00008A   304 _TL0	=	0x008a
                           00008B   305 _TL1	=	0x008b
                           00008C   306 _TH0	=	0x008c
                           00008D   307 _TH1	=	0x008d
                           00008E   308 _CKCON	=	0x008e
                           00008F   309 _PSCTL	=	0x008f
                           000090   310 _P1	=	0x0090
                           000091   311 _TMR3CN	=	0x0091
                           000091   312 _CRC0DAT	=	0x0091
                           000092   313 _TMR3RLL	=	0x0092
                           000092   314 _CRC0CN	=	0x0092
                           000093   315 _TMR3RLH	=	0x0093
                           000093   316 _CRC0IN	=	0x0093
                           000094   317 _TMR3L	=	0x0094
                           000095   318 _CRC0FLIP	=	0x0095
                           000095   319 _TMR3H	=	0x0095
                           000096   320 _DC0CF	=	0x0096
                           000096   321 _CRC0AUTO	=	0x0096
                           000097   322 _DC0CN	=	0x0097
                           000097   323 _CRC0CNT	=	0x0097
                           000098   324 _SCON0	=	0x0098
                           000099   325 _SBUF0	=	0x0099
                           00009A   326 _CPT1CN	=	0x009a
                           00009B   327 _CPT0CN	=	0x009b
                           00009C   328 _CPT1MD	=	0x009c
                           00009D   329 _CPT0MD	=	0x009d
                           00009E   330 _CPT1MX	=	0x009e
                           00009F   331 _CPT0MX	=	0x009f
                           0000A0   332 _P2	=	0x00a0
                           0000A1   333 _SPI0CFG	=	0x00a1
                           0000A2   334 _SPI0CKR	=	0x00a2
                           0000A3   335 _SPI0DAT	=	0x00a3
                           0000A4   336 _P0MDOUT	=	0x00a4
                           0000A4   337 _P0DRV	=	0x00a4
                           0000A5   338 _P1MDOUT	=	0x00a5
                           0000A5   339 _P1DRV	=	0x00a5
                           0000A6   340 _P2MDOUT	=	0x00a6
                           0000A6   341 _P2DRV	=	0x00a6
                           0000A7   342 _SFRPAGE	=	0x00a7
                           0000A8   343 _IE	=	0x00a8
                           0000A9   344 _CLKSEL	=	0x00a9
                           0000AA   345 _EMI0CN	=	0x00aa
                           0000AB   346 _EMI0CF	=	0x00ab
                           0000AC   347 _RTC0ADR	=	0x00ac
                           0000AD   348 _RTC0DAT	=	0x00ad
                           0000AE   349 _RTC0KEY	=	0x00ae
                           0000AF   350 _EMI0TC	=	0x00af
                           0000AF   351 _ONESHOT	=	0x00af
                           0000B0   352 _SPI1CN	=	0x00b0
                           0000B1   353 _OSCXCN	=	0x00b1
                           0000B2   354 _OSCICN	=	0x00b2
                           0000B3   355 _OSCICL	=	0x00b3
                           0000B5   356 _PMU0CF	=	0x00b5
                           0000B6   357 _FLSCL	=	0x00b6
                           0000B7   358 _FLKEY	=	0x00b7
                           0000B8   359 _IP	=	0x00b8
                           0000B9   360 _IREF0CN	=	0x00b9
                           0000BA   361 _ADC0AC	=	0x00ba
                           0000BA   362 _ADC0PWR	=	0x00ba
                           0000BB   363 _ADC0MX	=	0x00bb
                           0000BC   364 _ADC0CF	=	0x00bc
                           0000BD   365 _ADC0TK	=	0x00bd
                           0000BD   366 _ADC0L	=	0x00bd
                           0000BE   367 _ADC0H	=	0x00be
                           0000BF   368 _P1MASK	=	0x00bf
                           0000C0   369 _SMB0CN	=	0x00c0
                           0000C1   370 _SMB0CF	=	0x00c1
                           0000C2   371 _SMB0DAT	=	0x00c2
                           0000C3   372 _ADC0GTL	=	0x00c3
                           0000C4   373 _ADC0GTH	=	0x00c4
                           0000C5   374 _ADC0LTL	=	0x00c5
                           0000C6   375 _ADC0LTH	=	0x00c6
                           0000C7   376 _P0MASK	=	0x00c7
                           0000C8   377 _TMR2CN	=	0x00c8
                           0000C9   378 _REG0CN	=	0x00c9
                           0000CA   379 _TMR2RLL	=	0x00ca
                           0000CB   380 _TMR2RLH	=	0x00cb
                           0000CC   381 _TMR2L	=	0x00cc
                           0000CD   382 _TMR2H	=	0x00cd
                           0000CE   383 _PCA0CPM5	=	0x00ce
                           0000CF   384 _P1MAT	=	0x00cf
                           0000D0   385 _PSW	=	0x00d0
                           0000D1   386 _REF0CN	=	0x00d1
                           0000D2   387 _PCA0CPL5	=	0x00d2
                           0000D3   388 _PCA0CPH5	=	0x00d3
                           0000D4   389 _P0SKIP	=	0x00d4
                           0000D5   390 _P1SKIP	=	0x00d5
                           0000D6   391 _P2SKIP	=	0x00d6
                           0000D7   392 _P0MAT	=	0x00d7
                           0000D8   393 _PCA0CN	=	0x00d8
                           0000D9   394 _PCA0MD	=	0x00d9
                           0000DA   395 _PCA0CPM0	=	0x00da
                           0000DB   396 _PCA0CPM1	=	0x00db
                           0000DC   397 _PCA0CPM2	=	0x00dc
                           0000DD   398 _PCA0CPM3	=	0x00dd
                           0000DE   399 _PCA0CPM4	=	0x00de
                           0000DF   400 _PCA0PWM	=	0x00df
                           0000E0   401 _ACC	=	0x00e0
                           0000E1   402 _XBR0	=	0x00e1
                           0000E2   403 _XBR1	=	0x00e2
                           0000E3   404 _XBR2	=	0x00e3
                           0000E4   405 _IT01CF	=	0x00e4
                           0000E5   406 _FLWR	=	0x00e5
                           0000E6   407 _EIE1	=	0x00e6
                           0000E7   408 _EIE2	=	0x00e7
                           0000E8   409 _ADC0CN	=	0x00e8
                           0000E9   410 _PCA0CPL1	=	0x00e9
                           0000EA   411 _PCA0CPH1	=	0x00ea
                           0000EB   412 _PCA0CPL2	=	0x00eb
                           0000EC   413 _PCA0CPH2	=	0x00ec
                           0000ED   414 _PCA0CPL3	=	0x00ed
                           0000EE   415 _PCA0CPH3	=	0x00ee
                           0000EF   416 _RSTSRC	=	0x00ef
                           0000F0   417 _B	=	0x00f0
                           0000F1   418 _P0MDIN	=	0x00f1
                           0000F2   419 _P1MDIN	=	0x00f2
                           0000F3   420 _P2MDIN	=	0x00f3
                           0000F4   421 _SMB0ADR	=	0x00f4
                           0000F5   422 _SMB0ADM	=	0x00f5
                           0000F6   423 _EIP1	=	0x00f6
                           0000F7   424 _EIP2	=	0x00f7
                           0000F8   425 _SPI0CN	=	0x00f8
                           0000F9   426 _PCA0L	=	0x00f9
                           0000FA   427 _PCA0H	=	0x00fa
                           0000FB   428 _PCA0CPL0	=	0x00fb
                           0000FC   429 _PCA0CPH0	=	0x00fc
                           0000FD   430 _PCA0CPL4	=	0x00fd
                           0000FE   431 _PCA0CPH4	=	0x00fe
                           0000FF   432 _VDM0CN	=	0x00ff
                           008382   433 _DP	=	0x8382
                           008685   434 _TOFF	=	0x8685
                           009392   435 _TMR3RL	=	0x9392
                           009594   436 _TMR3	=	0x9594
                           00BEBD   437 _ADC0	=	0xbebd
                           00C4C3   438 _ADC0GT	=	0xc4c3
                           00C6C5   439 _ADC0LT	=	0xc6c5
                           00CBCA   440 _TMR2RL	=	0xcbca
                           00CDCC   441 _TMR2	=	0xcdcc
                           00D3D2   442 _PCA0CP5	=	0xd3d2
                           00EAE9   443 _PCA0CP1	=	0xeae9
                           00ECEB   444 _PCA0CP2	=	0xeceb
                           00EEED   445 _PCA0CP3	=	0xeeed
                           00FAF9   446 _PCA0	=	0xfaf9
                           00FCFB   447 _PCA0CP0	=	0xfcfb
                           00FEFD   448 _PCA0CP4	=	0xfefd
                                    449 ;--------------------------------------------------------
                                    450 ; special function bits
                                    451 ;--------------------------------------------------------
                                    452 	.area RSEG    (ABS,DATA)
      000000                        453 	.org 0x0000
                           00008F   454 _TF1	=	0x008f
                           00008E   455 _TR1	=	0x008e
                           00008D   456 _TF0	=	0x008d
                           00008C   457 _TR0	=	0x008c
                           00008B   458 _IE1	=	0x008b
                           00008A   459 _IT1	=	0x008a
                           000089   460 _IE0	=	0x0089
                           000088   461 _IT0	=	0x0088
                           000096   462 _CRC0SEL	=	0x0096
                           000095   463 _CRC0INIT	=	0x0095
                           000094   464 _CRC0VAL	=	0x0094
                           00009F   465 _S0MODE	=	0x009f
                           00009D   466 _MCE0	=	0x009d
                           00009C   467 _REN0	=	0x009c
                           00009B   468 _TB80	=	0x009b
                           00009A   469 _RB80	=	0x009a
                           000099   470 _TI0	=	0x0099
                           000098   471 _RI0	=	0x0098
                           0000AF   472 _EA	=	0x00af
                           0000AE   473 _ESPI0	=	0x00ae
                           0000AD   474 _ET2	=	0x00ad
                           0000AC   475 _ES0	=	0x00ac
                           0000AB   476 _ET1	=	0x00ab
                           0000AA   477 _EX1	=	0x00aa
                           0000A9   478 _ET0	=	0x00a9
                           0000A8   479 _EX0	=	0x00a8
                           0000B7   480 _SPIF1	=	0x00b7
                           0000B6   481 _WCOL1	=	0x00b6
                           0000B5   482 _MODF1	=	0x00b5
                           0000B4   483 _RXOVRN1	=	0x00b4
                           0000B3   484 _NSS1MD1	=	0x00b3
                           0000B2   485 _NSS1MD0	=	0x00b2
                           0000B1   486 _TXBMT1	=	0x00b1
                           0000B0   487 _SPI1EN	=	0x00b0
                           0000BE   488 _PSPI0	=	0x00be
                           0000BD   489 _PT2	=	0x00bd
                           0000BC   490 _PS0	=	0x00bc
                           0000BB   491 _PT1	=	0x00bb
                           0000BA   492 _PX1	=	0x00ba
                           0000B9   493 _PT0	=	0x00b9
                           0000B8   494 _PX0	=	0x00b8
                           0000C7   495 _MASTER	=	0x00c7
                           0000C6   496 _TXMODE	=	0x00c6
                           0000C5   497 _STA	=	0x00c5
                           0000C4   498 _STO	=	0x00c4
                           0000C3   499 _ACKRQ	=	0x00c3
                           0000C2   500 _ARBLOST	=	0x00c2
                           0000C1   501 _ACK	=	0x00c1
                           0000C0   502 _SI	=	0x00c0
                           0000CF   503 _TF2H	=	0x00cf
                           0000CE   504 _TF2L	=	0x00ce
                           0000CD   505 _TF2LEN	=	0x00cd
                           0000CC   506 _TF2CEN	=	0x00cc
                           0000CB   507 _T2SPLIT	=	0x00cb
                           0000CA   508 _TR2	=	0x00ca
                           0000C9   509 _T2RCLK	=	0x00c9
                           0000C8   510 _T2XCLK	=	0x00c8
                           0000D7   511 _CY	=	0x00d7
                           0000D6   512 _AC	=	0x00d6
                           0000D5   513 _F0	=	0x00d5
                           0000D4   514 _RS1	=	0x00d4
                           0000D3   515 _RS0	=	0x00d3
                           0000D2   516 _OV	=	0x00d2
                           0000D1   517 _F1	=	0x00d1
                           0000D0   518 _P	=	0x00d0
                           0000DF   519 _CF	=	0x00df
                           0000DE   520 _CR	=	0x00de
                           0000DD   521 _CCF5	=	0x00dd
                           0000DC   522 _CCF4	=	0x00dc
                           0000DB   523 _CCF3	=	0x00db
                           0000DA   524 _CCF2	=	0x00da
                           0000D9   525 _CCF1	=	0x00d9
                           0000D8   526 _CCF0	=	0x00d8
                           0000EF   527 _AD0EN	=	0x00ef
                           0000EE   528 _BURSTEN	=	0x00ee
                           0000ED   529 _AD0INT	=	0x00ed
                           0000EC   530 _AD0BUSY	=	0x00ec
                           0000EB   531 _AD0WINT	=	0x00eb
                           0000EA   532 _AD0CM2	=	0x00ea
                           0000E9   533 _AD0CM1	=	0x00e9
                           0000E8   534 _AD0CM0	=	0x00e8
                           0000FF   535 _SPIF0	=	0x00ff
                           0000FE   536 _WCOL0	=	0x00fe
                           0000FD   537 _MODF0	=	0x00fd
                           0000FC   538 _RXOVRN0	=	0x00fc
                           0000FB   539 _NSS0MD1	=	0x00fb
                           0000FA   540 _NSS0MD0	=	0x00fa
                           0000F9   541 _TXBMT0	=	0x00f9
                           0000F8   542 _SPI0EN	=	0x00f8
                           000096   543 _LED_RED	=	0x0096
                           000095   544 _LED_GREEN	=	0x0095
                           000082   545 _PIN_CONFIG	=	0x0082
                           000083   546 _PIN_ENABLE	=	0x0083
                           000087   547 _IRQ	=	0x0087
                           000094   548 _NSS1	=	0x0094
                           0000A6   549 _SDN	=	0x00a6
                                    550 ;--------------------------------------------------------
                                    551 ; overlayable register banks
                                    552 ;--------------------------------------------------------
                                    553 	.area REG_BANK_0	(REL,OVR,DATA)
      000000                        554 	.ds 8
                                    555 ;--------------------------------------------------------
                                    556 ; overlayable bit register bank
                                    557 ;--------------------------------------------------------
                                    558 	.area BIT_BANK	(REL,OVR,DATA)
      000000                        559 bits:
      000000                        560 	.ds 1
                           008000   561 	b0 = bits[0]
                           008100   562 	b1 = bits[1]
                           008200   563 	b2 = bits[2]
                           008300   564 	b3 = bits[3]
                           008400   565 	b4 = bits[4]
                           008500   566 	b5 = bits[5]
                           008600   567 	b6 = bits[6]
                           008700   568 	b7 = bits[7]
                                    569 ;--------------------------------------------------------
                                    570 ; internal ram data
                                    571 ;--------------------------------------------------------
                                    572 	.area DSEG    (DATA)
      000000                        573 _serial_read_buf_sloc0_1_0:
      000000                        574 	.ds 3
                                    575 ;--------------------------------------------------------
                                    576 ; overlayable items in internal ram 
                                    577 ;--------------------------------------------------------
                                    578 	.area	OSEG    (OVR,DATA)
                                    579 	.area	OSEG    (OVR,DATA)
                                    580 	.area	OSEG    (OVR,DATA)
                                    581 	.area	OSEG    (OVR,DATA)
                                    582 	.area	OSEG    (OVR,DATA)
                                    583 ;--------------------------------------------------------
                                    584 ; indirectly addressable internal ram data
                                    585 ;--------------------------------------------------------
                                    586 	.area ISEG    (DATA)
                                    587 ;--------------------------------------------------------
                                    588 ; absolute internal ram data
                                    589 ;--------------------------------------------------------
                                    590 	.area IABS    (ABS,DATA)
                                    591 	.area IABS    (ABS,DATA)
                                    592 ;--------------------------------------------------------
                                    593 ; bit data
                                    594 ;--------------------------------------------------------
                                    595 	.area BSEG    (BIT)
      000000                        596 _tx_idle:
      000000                        597 	.ds 1
      000001                        598 _serial_write_buf_sloc0_1_0:
      000001                        599 	.ds 1
      000002                        600 _serial_write_space_ES_saved_1_179:
      000002                        601 	.ds 1
      000003                        602 _serial_read_ES_saved_1_184:
      000003                        603 	.ds 1
      000004                        604 _serial_peek_ES_saved_1_190:
      000004                        605 	.ds 1
      000005                        606 _serial_peekx_ES_saved_1_192:
      000005                        607 	.ds 1
      000006                        608 _serial_read_buf_sloc1_1_0:
      000006                        609 	.ds 1
      000007                        610 _serial_read_available_ES_saved_1_204:
      000007                        611 	.ds 1
                                    612 ;--------------------------------------------------------
                                    613 ; paged external ram data
                                    614 ;--------------------------------------------------------
                                    615 	.area PSEG    (PAG,XDATA)
      000000                        616 _rx_insert:
      000000                        617 	.ds 2
      000002                        618 _rx_remove:
      000002                        619 	.ds 2
      000004                        620 _tx_insert:
      000004                        621 	.ds 2
      000006                        622 _tx_remove:
      000006                        623 	.ds 2
      000008                        624 _serial_write_buf_PARM_2:
      000008                        625 	.ds 1
      000009                        626 _serial_read_buf_PARM_2:
      000009                        627 	.ds 1
                                    628 ;--------------------------------------------------------
                                    629 ; external ram data
                                    630 ;--------------------------------------------------------
                                    631 	.area XSEG    (XDATA)
      000000                        632 _rts_count:
      000000                        633 	.ds 1
      000001                        634 _serial_write_buf_buf_1_166:
      000001                        635 	.ds 2
      000003                        636 _serial_peekx_offset_1_191:
      000003                        637 	.ds 2
      000005                        638 _serial_read_buf_buf_1_193:
      000005                        639 	.ds 2
      000007                        640 _serial_device_set_speed_i_1_214:
      000007                        641 	.ds 1
                                    642 ;--------------------------------------------------------
                                    643 ; absolute external ram data
                                    644 ;--------------------------------------------------------
                                    645 	.area XABS    (ABS,XDATA)
                                    646 ;--------------------------------------------------------
                                    647 ; external initialized ram data
                                    648 ;--------------------------------------------------------
                                    649 	.area XISEG   (XDATA)
      000000                        650 _rx_buf::
      000000                        651 	.ds 1850
      00073A                        652 _tx_buf::
      00073A                        653 	.ds 645
                                    654 	.area HOME    (CODE)
                                    655 	.area GSINIT0 (CODE)
                                    656 	.area GSINIT1 (CODE)
                                    657 	.area GSINIT2 (CODE)
                                    658 	.area GSINIT3 (CODE)
                                    659 	.area GSINIT4 (CODE)
                                    660 	.area GSINIT5 (CODE)
                                    661 	.area GSINIT  (CODE)
                                    662 	.area GSFINAL (CODE)
                                    663 	.area CSEG    (CODE)
                                    664 ;--------------------------------------------------------
                                    665 ; global & static initialisations
                                    666 ;--------------------------------------------------------
                                    667 	.area HOME    (CODE)
                                    668 	.area GSINIT  (CODE)
                                    669 	.area GSFINAL (CODE)
                                    670 	.area GSINIT  (CODE)
                                    671 ;--------------------------------------------------------
                                    672 ; Home
                                    673 ;--------------------------------------------------------
                                    674 	.area HOME    (CODE)
                                    675 	.area HOME    (CODE)
                                    676 ;--------------------------------------------------------
                                    677 ; code
                                    678 ;--------------------------------------------------------
                                    679 	.area CSEG    (CODE)
                                    680 ;------------------------------------------------------------
                                    681 ;Allocation info for local variables in function 'serial_interrupt'
                                    682 ;------------------------------------------------------------
                                    683 ;c                         Allocated to registers r7 
                                    684 ;------------------------------------------------------------
                                    685 ;	radio/serial.c:121: serial_interrupt(void) __interrupt(INTERRUPT_UART0)
                                    686 ;	-----------------------------------------
                                    687 ;	 function serial_interrupt
                                    688 ;	-----------------------------------------
      000000                        689 _serial_interrupt:
                           000007   690 	ar7 = 0x07
                           000006   691 	ar6 = 0x06
                           000005   692 	ar5 = 0x05
                           000004   693 	ar4 = 0x04
                           000003   694 	ar3 = 0x03
                           000002   695 	ar2 = 0x02
                           000001   696 	ar1 = 0x01
                           000000   697 	ar0 = 0x00
      000000 C0*00            [24]  698 	push	bits
      000002 C0 E0            [24]  699 	push	acc
      000004 C0 F0            [24]  700 	push	b
      000006 C0 82            [24]  701 	push	dpl
      000008 C0 83            [24]  702 	push	dph
      00000A C0 07            [24]  703 	push	(0+7)
      00000C C0 06            [24]  704 	push	(0+6)
      00000E C0 05            [24]  705 	push	(0+5)
      000010 C0 04            [24]  706 	push	(0+4)
      000012 C0 03            [24]  707 	push	(0+3)
      000014 C0 02            [24]  708 	push	(0+2)
      000016 C0 01            [24]  709 	push	(0+1)
      000018 C0 00            [24]  710 	push	(0+0)
      00001A C0 D0            [24]  711 	push	psw
      00001C 75 D0 00         [24]  712 	mov	psw,#0x00
                                    713 ;	radio/serial.c:126: if (RI0) {
                                    714 ;	radio/serial.c:128: RI0 = 0;
      00001F 10 98 03         [24]  715 	jbc	_RI0,00192$
      000022 02r01r15         [24]  716 	ljmp	00117$
      000025                        717 00192$:
                                    718 ;	radio/serial.c:129: c = SBUF0;
      000025 AF 99            [24]  719 	mov	r7,_SBUF0
                                    720 ;	radio/serial.c:132: if (at_mode_active) {
      000027 30*00 0E         [24]  721 	jnb	_at_mode_active,00114$
                                    722 ;	radio/serial.c:134: if (!at_cmd_ready) {
      00002A 30*00 03         [24]  723 	jnb	_at_cmd_ready,00194$
      00002D 02r01r15         [24]  724 	ljmp	00117$
      000030                        725 00194$:
                                    726 ;	radio/serial.c:135: at_input(c);
      000030 8F 82            [24]  727 	mov	dpl,r7
      000032 12r00r00         [24]  728 	lcall	_at_input
      000035 02r01r15         [24]  729 	ljmp	00117$
      000038                        730 00114$:
                                    731 ;	radio/serial.c:139: at_plus_detector(c);
      000038 8F 82            [24]  732 	mov	dpl,r7
      00003A C0 07            [24]  733 	push	ar7
      00003C 12r00r00         [24]  734 	lcall	_at_plus_detector
      00003F D0 07            [24]  735 	pop	ar7
                                    736 ;	radio/serial.c:142: if (BUF_NOT_FULL(rx)) {
      000041 78r00            [12]  737 	mov	r0,#_rx_insert
      000043 E2               [24]  738 	movx	a,@r0
      000044 24 01            [12]  739 	add	a,#0x01
      000046 FD               [12]  740 	mov	r5,a
      000047 08               [12]  741 	inc	r0
      000048 E2               [24]  742 	movx	a,@r0
      000049 34 00            [12]  743 	addc	a,#0x00
      00004B FE               [12]  744 	mov	r6,a
      00004C BD 3A 09         [24]  745 	cjne	r5,#0x3A,00136$
      00004F BE 07 06         [24]  746 	cjne	r6,#0x07,00136$
      000052 7D 00            [12]  747 	mov	r5,#0x00
      000054 7E 00            [12]  748 	mov	r6,#0x00
      000056 80 0B            [24]  749 	sjmp	00137$
      000058                        750 00136$:
      000058 78r00            [12]  751 	mov	r0,#_rx_insert
      00005A E2               [24]  752 	movx	a,@r0
      00005B 24 01            [12]  753 	add	a,#0x01
      00005D FD               [12]  754 	mov	r5,a
      00005E 08               [12]  755 	inc	r0
      00005F E2               [24]  756 	movx	a,@r0
      000060 34 00            [12]  757 	addc	a,#0x00
      000062 FE               [12]  758 	mov	r6,a
      000063                        759 00137$:
      000063 78r02            [12]  760 	mov	r0,#_rx_remove
      000065 E2               [24]  761 	movx	a,@r0
      000066 B5 05 07         [24]  762 	cjne	a,ar5,00197$
      000069 08               [12]  763 	inc	r0
      00006A E2               [24]  764 	movx	a,@r0
      00006B B5 06 02         [24]  765 	cjne	a,ar6,00197$
      00006E 80 3A            [24]  766 	sjmp	00109$
      000070                        767 00197$:
                                    768 ;	radio/serial.c:143: BUF_INSERT(rx, c);
      000070 78r00            [12]  769 	mov	r0,#_rx_insert
      000072 E2               [24]  770 	movx	a,@r0
      000073 24r00            [12]  771 	add	a,#_rx_buf
      000075 F5 82            [12]  772 	mov	dpl,a
      000077 08               [12]  773 	inc	r0
      000078 E2               [24]  774 	movx	a,@r0
      000079 34s00            [12]  775 	addc	a,#(_rx_buf >> 8)
      00007B F5 83            [12]  776 	mov	dph,a
      00007D EF               [12]  777 	mov	a,r7
      00007E F0               [24]  778 	movx	@dptr,a
      00007F 78r00            [12]  779 	mov	r0,#_rx_insert
      000081 E2               [24]  780 	movx	a,@r0
      000082 24 01            [12]  781 	add	a,#0x01
      000084 FD               [12]  782 	mov	r5,a
      000085 08               [12]  783 	inc	r0
      000086 E2               [24]  784 	movx	a,@r0
      000087 34 00            [12]  785 	addc	a,#0x00
      000089 FE               [12]  786 	mov	r6,a
      00008A BD 3A 09         [24]  787 	cjne	r5,#0x3A,00138$
      00008D BE 07 06         [24]  788 	cjne	r6,#0x07,00138$
      000090 7D 00            [12]  789 	mov	r5,#0x00
      000092 7E 00            [12]  790 	mov	r6,#0x00
      000094 80 0B            [24]  791 	sjmp	00139$
      000096                        792 00138$:
      000096 78r00            [12]  793 	mov	r0,#_rx_insert
      000098 E2               [24]  794 	movx	a,@r0
      000099 24 01            [12]  795 	add	a,#0x01
      00009B FD               [12]  796 	mov	r5,a
      00009C 08               [12]  797 	inc	r0
      00009D E2               [24]  798 	movx	a,@r0
      00009E 34 00            [12]  799 	addc	a,#0x00
      0000A0 FE               [12]  800 	mov	r6,a
      0000A1                        801 00139$:
      0000A1 78r00            [12]  802 	mov	r0,#_rx_insert
      0000A3 ED               [12]  803 	mov	a,r5
      0000A4 F2               [24]  804 	movx	@r0,a
      0000A5 08               [12]  805 	inc	r0
      0000A6 EE               [12]  806 	mov	a,r6
      0000A7 F2               [24]  807 	movx	@r0,a
      0000A8 80 1B            [24]  808 	sjmp	00110$
      0000AA                        809 00109$:
                                    810 ;	radio/serial.c:145: if (errors.serial_rx_overflow != 0xFFFF) {
      0000AA 78r06            [12]  811 	mov	r0,#(_errors + 0x0006)
      0000AC E2               [24]  812 	movx	a,@r0
      0000AD FD               [12]  813 	mov	r5,a
      0000AE 08               [12]  814 	inc	r0
      0000AF E2               [24]  815 	movx	a,@r0
      0000B0 FE               [12]  816 	mov	r6,a
      0000B1 BD FF 05         [24]  817 	cjne	r5,#0xFF,00200$
      0000B4 BE FF 02         [24]  818 	cjne	r6,#0xFF,00200$
      0000B7 80 0C            [24]  819 	sjmp	00110$
      0000B9                        820 00200$:
                                    821 ;	radio/serial.c:146: errors.serial_rx_overflow++;
      0000B9 0D               [12]  822 	inc	r5
      0000BA BD 00 01         [24]  823 	cjne	r5,#0x00,00201$
      0000BD 0E               [12]  824 	inc	r6
      0000BE                        825 00201$:
      0000BE 78r06            [12]  826 	mov	r0,#(_errors + 0x0006)
      0000C0 ED               [12]  827 	mov	a,r5
      0000C1 F2               [24]  828 	movx	@r0,a
      0000C2 08               [12]  829 	inc	r0
      0000C3 EE               [12]  830 	mov	a,r6
      0000C4 F2               [24]  831 	movx	@r0,a
      0000C5                        832 00110$:
                                    833 ;	radio/serial.c:150: if (BUF_FREE(rx) < SERIAL_CTS_THRESHOLD_LOW) {
      0000C5 78r00            [12]  834 	mov	r0,#_rx_insert
      0000C7 79r02            [12]  835 	mov	r1,#_rx_remove
      0000C9 C3               [12]  836 	clr	c
      0000CA E3               [24]  837 	movx	a,@r1
      0000CB F5 F0            [12]  838 	mov	b,a
      0000CD E2               [24]  839 	movx	a,@r0
      0000CE 95 F0            [12]  840 	subb	a,b
      0000D0 09               [12]  841 	inc	r1
      0000D1 E3               [24]  842 	movx	a,@r1
      0000D2 F5 F0            [12]  843 	mov	b,a
      0000D4 08               [12]  844 	inc	r0
      0000D5 E2               [24]  845 	movx	a,@r0
      0000D6 95 F0            [12]  846 	subb	a,b
      0000D8 40 1B            [24]  847 	jc	00140$
      0000DA 78r02            [12]  848 	mov	r0,#_rx_remove
      0000DC E2               [24]  849 	movx	a,@r0
      0000DD 24 3A            [12]  850 	add	a,#0x3A
      0000DF FD               [12]  851 	mov	r5,a
      0000E0 08               [12]  852 	inc	r0
      0000E1 E2               [24]  853 	movx	a,@r0
      0000E2 34 07            [12]  854 	addc	a,#0x07
      0000E4 FE               [12]  855 	mov	r6,a
      0000E5 78r00            [12]  856 	mov	r0,#_rx_insert
      0000E7 D3               [12]  857 	setb	c
      0000E8 E2               [24]  858 	movx	a,@r0
      0000E9 9D               [12]  859 	subb	a,r5
      0000EA F4               [12]  860 	cpl	a
      0000EB B3               [12]  861 	cpl	c
      0000EC FD               [12]  862 	mov	r5,a
      0000ED B3               [12]  863 	cpl	c
      0000EE 08               [12]  864 	inc	r0
      0000EF E2               [24]  865 	movx	a,@r0
      0000F0 9E               [12]  866 	subb	a,r6
      0000F1 F4               [12]  867 	cpl	a
      0000F2 FE               [12]  868 	mov	r6,a
      0000F3 80 15            [24]  869 	sjmp	00141$
      0000F5                        870 00140$:
      0000F5 78r02            [12]  871 	mov	r0,#_rx_remove
      0000F7 79r00            [12]  872 	mov	r1,#_rx_insert
      0000F9 E3               [24]  873 	movx	a,@r1
      0000FA F5 F0            [12]  874 	mov	b,a
      0000FC C3               [12]  875 	clr	c
      0000FD E2               [24]  876 	movx	a,@r0
      0000FE 95 F0            [12]  877 	subb	a,b
      000100 FD               [12]  878 	mov	r5,a
      000101 09               [12]  879 	inc	r1
      000102 E3               [24]  880 	movx	a,@r1
      000103 F5 F0            [12]  881 	mov	b,a
      000105 08               [12]  882 	inc	r0
      000106 E2               [24]  883 	movx	a,@r0
      000107 95 F0            [12]  884 	subb	a,b
      000109 FE               [12]  885 	mov	r6,a
      00010A                        886 00141$:
      00010A C3               [12]  887 	clr	c
      00010B ED               [12]  888 	mov	a,r5
      00010C 94 11            [12]  889 	subb	a,#0x11
      00010E EE               [12]  890 	mov	a,r6
      00010F 94 00            [12]  891 	subb	a,#0x00
      000111 50 02            [24]  892 	jnc	00117$
                                    893 ;	radio/serial.c:151: SERIAL_CTS = true;
      000113 D2 82            [12]  894 	setb	_PIN_CONFIG
      000115                        895 00117$:
                                    896 ;	radio/serial.c:158: if (TI0) {
                                    897 ;	radio/serial.c:160: TI0 = 0;
      000115 10 99 03         [24]  898 	jbc	_TI0,00204$
      000118 02r01r92         [24]  899 	ljmp	00134$
      00011B                        900 00204$:
                                    901 ;	radio/serial.c:163: if (BUF_NOT_EMPTY(tx)) {
      00011B 78r04            [12]  902 	mov	r0,#_tx_insert
      00011D 79r06            [12]  903 	mov	r1,#_tx_remove
      00011F E2               [24]  904 	movx	a,@r0
      000120 F5 F0            [12]  905 	mov	b,a
      000122 E3               [24]  906 	movx	a,@r1
      000123 B5 F0 0B         [24]  907 	cjne	a,b,00205$
      000126 08               [12]  908 	inc	r0
      000127 E2               [24]  909 	movx	a,@r0
      000128 F5 F0            [12]  910 	mov	b,a
      00012A 09               [12]  911 	inc	r1
      00012B E3               [24]  912 	movx	a,@r1
      00012C B5 F0 02         [24]  913 	cjne	a,b,00205$
      00012F 80 5F            [24]  914 	sjmp	00130$
      000131                        915 00205$:
                                    916 ;	radio/serial.c:165: if (feature_rtscts) {
      000131 30*00 20         [24]  917 	jnb	_feature_rtscts,00126$
                                    918 ;	radio/serial.c:166: if (SERIAL_RTS && !at_mode_active) {
      000134 30 83 17         [24]  919 	jnb	_PIN_ENABLE,00121$
      000137 20*00 14         [24]  920 	jb	_at_mode_active,00121$
                                    921 ;	radio/serial.c:167: if (rts_count == 0) {
      00013A 90r00r00         [24]  922 	mov	dptr,#_rts_count
      00013D E0               [24]  923 	movx	a,@dptr
      00013E FE               [12]  924 	mov	r6,a
      00013F E0               [24]  925 	movx	a,@dptr
      000140 70 04            [24]  926 	jnz	00119$
                                    927 ;	radio/serial.c:170: tx_idle = true;
      000142 D2*00            [12]  928 	setb	_tx_idle
                                    929 ;	radio/serial.c:171: return;
      000144 80 4C            [24]  930 	sjmp	00134$
      000146                        931 00119$:
                                    932 ;	radio/serial.c:173: rts_count--;
      000146 EE               [12]  933 	mov	a,r6
      000147 14               [12]  934 	dec	a
      000148 90r00r00         [24]  935 	mov	dptr,#_rts_count
      00014B F0               [24]  936 	movx	@dptr,a
      00014C 80 06            [24]  937 	sjmp	00126$
      00014E                        938 00121$:
                                    939 ;	radio/serial.c:175: rts_count = 8;
      00014E 90r00r00         [24]  940 	mov	dptr,#_rts_count
      000151 74 08            [12]  941 	mov	a,#0x08
      000153 F0               [24]  942 	movx	@dptr,a
                                    943 ;	radio/serial.c:180: BUF_REMOVE(tx, c);
      000154                        944 00126$:
      000154 78r06            [12]  945 	mov	r0,#_tx_remove
      000156 E2               [24]  946 	movx	a,@r0
      000157 24r3A            [12]  947 	add	a,#_tx_buf
      000159 F5 82            [12]  948 	mov	dpl,a
      00015B 08               [12]  949 	inc	r0
      00015C E2               [24]  950 	movx	a,@r0
      00015D 34s07            [12]  951 	addc	a,#(_tx_buf >> 8)
      00015F F5 83            [12]  952 	mov	dph,a
      000161 E0               [24]  953 	movx	a,@dptr
      000162 FF               [12]  954 	mov	r7,a
      000163 78r06            [12]  955 	mov	r0,#_tx_remove
      000165 E2               [24]  956 	movx	a,@r0
      000166 24 01            [12]  957 	add	a,#0x01
      000168 FD               [12]  958 	mov	r5,a
      000169 08               [12]  959 	inc	r0
      00016A E2               [24]  960 	movx	a,@r0
      00016B 34 00            [12]  961 	addc	a,#0x00
      00016D FE               [12]  962 	mov	r6,a
      00016E BD 85 09         [24]  963 	cjne	r5,#0x85,00142$
      000171 BE 02 06         [24]  964 	cjne	r6,#0x02,00142$
      000174 7D 00            [12]  965 	mov	r5,#0x00
      000176 7E 00            [12]  966 	mov	r6,#0x00
      000178 80 0B            [24]  967 	sjmp	00143$
      00017A                        968 00142$:
      00017A 78r06            [12]  969 	mov	r0,#_tx_remove
      00017C E2               [24]  970 	movx	a,@r0
      00017D 24 01            [12]  971 	add	a,#0x01
      00017F FD               [12]  972 	mov	r5,a
      000180 08               [12]  973 	inc	r0
      000181 E2               [24]  974 	movx	a,@r0
      000182 34 00            [12]  975 	addc	a,#0x00
      000184 FE               [12]  976 	mov	r6,a
      000185                        977 00143$:
      000185 78r06            [12]  978 	mov	r0,#_tx_remove
      000187 ED               [12]  979 	mov	a,r5
      000188 F2               [24]  980 	movx	@r0,a
      000189 08               [12]  981 	inc	r0
      00018A EE               [12]  982 	mov	a,r6
      00018B F2               [24]  983 	movx	@r0,a
                                    984 ;	radio/serial.c:181: SBUF0 = c;
      00018C 8F 99            [24]  985 	mov	_SBUF0,r7
      00018E 80 02            [24]  986 	sjmp	00134$
      000190                        987 00130$:
                                    988 ;	radio/serial.c:184: tx_idle = true;
      000190 D2*00            [12]  989 	setb	_tx_idle
      000192                        990 00134$:
      000192 D0 D0            [24]  991 	pop	psw
      000194 D0 00            [24]  992 	pop	(0+0)
      000196 D0 01            [24]  993 	pop	(0+1)
      000198 D0 02            [24]  994 	pop	(0+2)
      00019A D0 03            [24]  995 	pop	(0+3)
      00019C D0 04            [24]  996 	pop	(0+4)
      00019E D0 05            [24]  997 	pop	(0+5)
      0001A0 D0 06            [24]  998 	pop	(0+6)
      0001A2 D0 07            [24]  999 	pop	(0+7)
      0001A4 D0 83            [24] 1000 	pop	dph
      0001A6 D0 82            [24] 1001 	pop	dpl
      0001A8 D0 F0            [24] 1002 	pop	b
      0001AA D0 E0            [24] 1003 	pop	acc
      0001AC D0*00            [24] 1004 	pop	bits
      0001AE 32               [24] 1005 	reti
                                   1006 ;------------------------------------------------------------
                                   1007 ;Allocation info for local variables in function 'serial_check_rts'
                                   1008 ;------------------------------------------------------------
                                   1009 ;	radio/serial.c:193: serial_check_rts(void)
                                   1010 ;	-----------------------------------------
                                   1011 ;	 function serial_check_rts
                                   1012 ;	-----------------------------------------
      0001AF                       1013 _serial_check_rts:
                                   1014 ;	radio/serial.c:195: if (BUF_NOT_EMPTY(tx) && tx_idle) {
      0001AF 78r04            [12] 1015 	mov	r0,#_tx_insert
      0001B1 79r06            [12] 1016 	mov	r1,#_tx_remove
      0001B3 E2               [24] 1017 	movx	a,@r0
      0001B4 F5 F0            [12] 1018 	mov	b,a
      0001B6 E3               [24] 1019 	movx	a,@r1
      0001B7 B5 F0 0A         [24] 1020 	cjne	a,b,00112$
      0001BA 08               [12] 1021 	inc	r0
      0001BB E2               [24] 1022 	movx	a,@r0
      0001BC F5 F0            [12] 1023 	mov	b,a
      0001BE 09               [12] 1024 	inc	r1
      0001BF E3               [24] 1025 	movx	a,@r1
      0001C0 B5 F0 01         [24] 1026 	cjne	a,b,00112$
      0001C3 22               [24] 1027 	ret
      0001C4                       1028 00112$:
      0001C4 30*00 03         [24] 1029 	jnb	_tx_idle,00104$
                                   1030 ;	radio/serial.c:196: serial_restart();
      0001C7 02r04r4F         [24] 1031 	ljmp	_serial_restart
      0001CA                       1032 00104$:
      0001CA 22               [24] 1033 	ret
                                   1034 ;------------------------------------------------------------
                                   1035 ;Allocation info for local variables in function 'serial_init'
                                   1036 ;------------------------------------------------------------
                                   1037 ;speed                     Allocated to registers r7 
                                   1038 ;------------------------------------------------------------
                                   1039 ;	radio/serial.c:201: serial_init(register uint8_t speed)
                                   1040 ;	-----------------------------------------
                                   1041 ;	 function serial_init
                                   1042 ;	-----------------------------------------
      0001CB                       1043 _serial_init:
      0001CB AF 82            [24] 1044 	mov	r7,dpl
                                   1045 ;	radio/serial.c:204: ES0 = 0;
      0001CD C2 AC            [12] 1046 	clr	_ES0
                                   1047 ;	radio/serial.c:207: rx_insert = 0;
      0001CF 78r00            [12] 1048 	mov	r0,#_rx_insert
      0001D1 E4               [12] 1049 	clr	a
      0001D2 F2               [24] 1050 	movx	@r0,a
      0001D3 08               [12] 1051 	inc	r0
      0001D4 F2               [24] 1052 	movx	@r0,a
                                   1053 ;	radio/serial.c:208: rx_remove = 0;
      0001D5 78r02            [12] 1054 	mov	r0,#_rx_remove
      0001D7 F2               [24] 1055 	movx	@r0,a
      0001D8 08               [12] 1056 	inc	r0
      0001D9 F2               [24] 1057 	movx	@r0,a
                                   1058 ;	radio/serial.c:209: tx_insert = 0;
      0001DA 78r04            [12] 1059 	mov	r0,#_tx_insert
      0001DC F2               [24] 1060 	movx	@r0,a
      0001DD 08               [12] 1061 	inc	r0
      0001DE F2               [24] 1062 	movx	@r0,a
                                   1063 ;	radio/serial.c:210: tx_remove = 0;
      0001DF 78r06            [12] 1064 	mov	r0,#_tx_remove
      0001E1 F2               [24] 1065 	movx	@r0,a
      0001E2 08               [12] 1066 	inc	r0
      0001E3 F2               [24] 1067 	movx	@r0,a
                                   1068 ;	radio/serial.c:215: tx_idle = true;
      0001E4 D2*00            [12] 1069 	setb	_tx_idle
                                   1070 ;	radio/serial.c:218: TR1 	= 0;				// timer off
      0001E6 C2 8E            [12] 1071 	clr	_TR1
                                   1072 ;	radio/serial.c:219: TMOD	= (TMOD & ~0xf0) | 0x20;	// 8-bit free-running auto-reload mode
      0001E8 AE 89            [24] 1073 	mov	r6,_TMOD
      0001EA 74 0F            [12] 1074 	mov	a,#0x0F
      0001EC 5E               [12] 1075 	anl	a,r6
      0001ED 44 20            [12] 1076 	orl	a,#0x20
      0001EF F5 89            [12] 1077 	mov	_TMOD,a
                                   1078 ;	radio/serial.c:220: serial_device_set_speed(speed);		// device-specific clocking setup
      0001F1 8F 82            [24] 1079 	mov	dpl,r7
      0001F3 12r07rBB         [24] 1080 	lcall	_serial_device_set_speed
                                   1081 ;	radio/serial.c:221: TR1	= 1;				// timer on
      0001F6 D2 8E            [12] 1082 	setb	_TR1
                                   1083 ;	radio/serial.c:224: SCON0	= 0x10;				// enable receiver, clear interrupts
      0001F8 75 98 10         [24] 1084 	mov	_SCON0,#0x10
                                   1085 ;	radio/serial.c:229: SERIAL_CTS = false;
      0001FB C2 82            [12] 1086 	clr	_PIN_CONFIG
                                   1087 ;	radio/serial.c:233: ES0 = 1;
      0001FD D2 AC            [12] 1088 	setb	_ES0
      0001FF 22               [24] 1089 	ret
                                   1090 ;------------------------------------------------------------
                                   1091 ;Allocation info for local variables in function 'serial_write'
                                   1092 ;------------------------------------------------------------
                                   1093 ;c                         Allocated to registers r7 
                                   1094 ;------------------------------------------------------------
                                   1095 ;	radio/serial.c:237: serial_write(register uint8_t c)
                                   1096 ;	-----------------------------------------
                                   1097 ;	 function serial_write
                                   1098 ;	-----------------------------------------
      000200                       1099 _serial_write:
      000200 AF 82            [24] 1100 	mov	r7,dpl
                                   1101 ;	radio/serial.c:239: if (serial_write_space() < 1)
      000202 C0 07            [24] 1102 	push	ar7
      000204 12r03rFB         [24] 1103 	lcall	_serial_write_space
      000207 AD 82            [24] 1104 	mov	r5,dpl
      000209 AE 83            [24] 1105 	mov	r6,dph
      00020B D0 07            [24] 1106 	pop	ar7
      00020D C3               [12] 1107 	clr	c
      00020E ED               [12] 1108 	mov	a,r5
      00020F 94 01            [12] 1109 	subb	a,#0x01
      000211 EE               [12] 1110 	mov	a,r6
      000212 94 00            [12] 1111 	subb	a,#0x00
      000214 50 02            [24] 1112 	jnc	00102$
                                   1113 ;	radio/serial.c:240: return false;
      000216 C3               [12] 1114 	clr	c
      000217 22               [24] 1115 	ret
      000218                       1116 00102$:
                                   1117 ;	radio/serial.c:242: _serial_write(c);
      000218 8F 82            [24] 1118 	mov	dpl,r7
      00021A 12r02r1F         [24] 1119 	lcall	__serial_write
                                   1120 ;	radio/serial.c:243: return true;
      00021D D3               [12] 1121 	setb	c
      00021E 22               [24] 1122 	ret
                                   1123 ;------------------------------------------------------------
                                   1124 ;Allocation info for local variables in function '_serial_write'
                                   1125 ;------------------------------------------------------------
                                   1126 ;c                         Allocated to registers r7 
                                   1127 ;ES_saved                  Allocated to registers b0 
                                   1128 ;------------------------------------------------------------
                                   1129 ;	radio/serial.c:247: _serial_write(register uint8_t c) __reentrant
                                   1130 ;	-----------------------------------------
                                   1131 ;	 function _serial_write
                                   1132 ;	-----------------------------------------
      00021F                       1133 __serial_write:
      00021F AF 82            [24] 1134 	mov	r7,dpl
                                   1135 ;	radio/serial.c:249: ES0_SAVE_DISABLE;
      000221 A2 AC            [12] 1136 	mov	c,_ES0
      000223 92*00            [24] 1137 	mov	b0,c
      000225 C2 AC            [12] 1138 	clr	_ES0
                                   1139 ;	radio/serial.c:252: if (BUF_NOT_FULL(tx)) {
      000227 78r04            [12] 1140 	mov	r0,#_tx_insert
      000229 E2               [24] 1141 	movx	a,@r0
      00022A 24 01            [12] 1142 	add	a,#0x01
      00022C FD               [12] 1143 	mov	r5,a
      00022D 08               [12] 1144 	inc	r0
      00022E E2               [24] 1145 	movx	a,@r0
      00022F 34 00            [12] 1146 	addc	a,#0x00
      000231 FE               [12] 1147 	mov	r6,a
      000232 BD 85 09         [24] 1148 	cjne	r5,#0x85,00113$
      000235 BE 02 06         [24] 1149 	cjne	r6,#0x02,00113$
      000238 7D 00            [12] 1150 	mov	r5,#0x00
      00023A 7E 00            [12] 1151 	mov	r6,#0x00
      00023C 80 0B            [24] 1152 	sjmp	00114$
      00023E                       1153 00113$:
      00023E 78r04            [12] 1154 	mov	r0,#_tx_insert
      000240 E2               [24] 1155 	movx	a,@r0
      000241 24 01            [12] 1156 	add	a,#0x01
      000243 FD               [12] 1157 	mov	r5,a
      000244 08               [12] 1158 	inc	r0
      000245 E2               [24] 1159 	movx	a,@r0
      000246 34 00            [12] 1160 	addc	a,#0x00
      000248 FE               [12] 1161 	mov	r6,a
      000249                       1162 00114$:
      000249 78r06            [12] 1163 	mov	r0,#_tx_remove
      00024B E2               [24] 1164 	movx	a,@r0
      00024C B5 05 07         [24] 1165 	cjne	a,ar5,00134$
      00024F 08               [12] 1166 	inc	r0
      000250 E2               [24] 1167 	movx	a,@r0
      000251 B5 06 02         [24] 1168 	cjne	a,ar6,00134$
      000254 80 44            [24] 1169 	sjmp	00109$
      000256                       1170 00134$:
                                   1171 ;	radio/serial.c:255: BUF_INSERT(tx, c);
      000256 78r04            [12] 1172 	mov	r0,#_tx_insert
      000258 E2               [24] 1173 	movx	a,@r0
      000259 24r3A            [12] 1174 	add	a,#_tx_buf
      00025B F5 82            [12] 1175 	mov	dpl,a
      00025D 08               [12] 1176 	inc	r0
      00025E E2               [24] 1177 	movx	a,@r0
      00025F 34s07            [12] 1178 	addc	a,#(_tx_buf >> 8)
      000261 F5 83            [12] 1179 	mov	dph,a
      000263 EF               [12] 1180 	mov	a,r7
      000264 F0               [24] 1181 	movx	@dptr,a
      000265 78r04            [12] 1182 	mov	r0,#_tx_insert
      000267 E2               [24] 1183 	movx	a,@r0
      000268 24 01            [12] 1184 	add	a,#0x01
      00026A FE               [12] 1185 	mov	r6,a
      00026B 08               [12] 1186 	inc	r0
      00026C E2               [24] 1187 	movx	a,@r0
      00026D 34 00            [12] 1188 	addc	a,#0x00
      00026F FF               [12] 1189 	mov	r7,a
      000270 BE 85 09         [24] 1190 	cjne	r6,#0x85,00115$
      000273 BF 02 06         [24] 1191 	cjne	r7,#0x02,00115$
      000276 7E 00            [12] 1192 	mov	r6,#0x00
      000278 7F 00            [12] 1193 	mov	r7,#0x00
      00027A 80 0B            [24] 1194 	sjmp	00116$
      00027C                       1195 00115$:
      00027C 78r04            [12] 1196 	mov	r0,#_tx_insert
      00027E E2               [24] 1197 	movx	a,@r0
      00027F 24 01            [12] 1198 	add	a,#0x01
      000281 FE               [12] 1199 	mov	r6,a
      000282 08               [12] 1200 	inc	r0
      000283 E2               [24] 1201 	movx	a,@r0
      000284 34 00            [12] 1202 	addc	a,#0x00
      000286 FF               [12] 1203 	mov	r7,a
      000287                       1204 00116$:
      000287 78r04            [12] 1205 	mov	r0,#_tx_insert
      000289 EE               [12] 1206 	mov	a,r6
      00028A F2               [24] 1207 	movx	@r0,a
      00028B 08               [12] 1208 	inc	r0
      00028C EF               [12] 1209 	mov	a,r7
      00028D F2               [24] 1210 	movx	@r0,a
                                   1211 ;	radio/serial.c:258: if (tx_idle)
      00028E 30*00 24         [24] 1212 	jnb	_tx_idle,00110$
                                   1213 ;	radio/serial.c:259: serial_restart();
      000291 C0*00            [24] 1214 	push	bits
      000293 12r04r4F         [24] 1215 	lcall	_serial_restart
      000296 D0*00            [24] 1216 	pop	bits
      000298 80 1B            [24] 1217 	sjmp	00110$
      00029A                       1218 00109$:
                                   1219 ;	radio/serial.c:260: } else if (errors.serial_tx_overflow != 0xFFFF) {
      00029A 78r04            [12] 1220 	mov	r0,#(_errors + 0x0004)
      00029C E2               [24] 1221 	movx	a,@r0
      00029D FE               [12] 1222 	mov	r6,a
      00029E 08               [12] 1223 	inc	r0
      00029F E2               [24] 1224 	movx	a,@r0
      0002A0 FF               [12] 1225 	mov	r7,a
      0002A1 BE FF 05         [24] 1226 	cjne	r6,#0xFF,00138$
      0002A4 BF FF 02         [24] 1227 	cjne	r7,#0xFF,00138$
      0002A7 80 0C            [24] 1228 	sjmp	00110$
      0002A9                       1229 00138$:
                                   1230 ;	radio/serial.c:261: errors.serial_tx_overflow++;
      0002A9 0E               [12] 1231 	inc	r6
      0002AA BE 00 01         [24] 1232 	cjne	r6,#0x00,00139$
      0002AD 0F               [12] 1233 	inc	r7
      0002AE                       1234 00139$:
      0002AE 78r04            [12] 1235 	mov	r0,#(_errors + 0x0004)
      0002B0 EE               [12] 1236 	mov	a,r6
      0002B1 F2               [24] 1237 	movx	@r0,a
      0002B2 08               [12] 1238 	inc	r0
      0002B3 EF               [12] 1239 	mov	a,r7
      0002B4 F2               [24] 1240 	movx	@r0,a
      0002B5                       1241 00110$:
                                   1242 ;	radio/serial.c:264: ES0_RESTORE;
      0002B5 A2*00            [12] 1243 	mov	c,b0
      0002B7 92 AC            [24] 1244 	mov	_ES0,c
      0002B9 22               [24] 1245 	ret
                                   1246 ;------------------------------------------------------------
                                   1247 ;Allocation info for local variables in function 'serial_write_buf'
                                   1248 ;------------------------------------------------------------
                                   1249 ;buf                       Allocated with name '_serial_write_buf_buf_1_166'
                                   1250 ;------------------------------------------------------------
                                   1251 ;	radio/serial.c:355: serial_write_buf(__xdata uint8_t * buf, __pdata uint8_t count)
                                   1252 ;	-----------------------------------------
                                   1253 ;	 function serial_write_buf
                                   1254 ;	-----------------------------------------
      0002BA                       1255 _serial_write_buf:
      0002BA AF 83            [24] 1256 	mov	r7,dph
      0002BC E5 82            [12] 1257 	mov	a,dpl
      0002BE 90r00r01         [24] 1258 	mov	dptr,#_serial_write_buf_buf_1_166
      0002C1 F0               [24] 1259 	movx	@dptr,a
      0002C2 EF               [12] 1260 	mov	a,r7
      0002C3 A3               [24] 1261 	inc	dptr
      0002C4 F0               [24] 1262 	movx	@dptr,a
                                   1263 ;	radio/serial.c:360: if (count == 0) {
      0002C5 78r08            [12] 1264 	mov	r0,#_serial_write_buf_PARM_2
      0002C7 E2               [24] 1265 	movx	a,@r0
      0002C8 70 01            [24] 1266 	jnz	00102$
                                   1267 ;	radio/serial.c:361: return;
      0002CA 22               [24] 1268 	ret
      0002CB                       1269 00102$:
                                   1270 ;	radio/serial.c:367: space = serial_write_space();	
      0002CB 12r03rFB         [24] 1271 	lcall	_serial_write_space
      0002CE AE 82            [24] 1272 	mov	r6,dpl
      0002D0 AF 83            [24] 1273 	mov	r7,dph
                                   1274 ;	radio/serial.c:368: if (count > space) {
      0002D2 78r08            [12] 1275 	mov	r0,#_serial_write_buf_PARM_2
      0002D4 E2               [24] 1276 	movx	a,@r0
      0002D5 FC               [12] 1277 	mov	r4,a
      0002D6 7D 00            [12] 1278 	mov	r5,#0x00
      0002D8 C3               [12] 1279 	clr	c
      0002D9 EE               [12] 1280 	mov	a,r6
      0002DA 9C               [12] 1281 	subb	a,r4
      0002DB EF               [12] 1282 	mov	a,r7
      0002DC 9D               [12] 1283 	subb	a,r5
      0002DD 50 1F            [24] 1284 	jnc	00106$
                                   1285 ;	radio/serial.c:369: count = space;
      0002DF 78r08            [12] 1286 	mov	r0,#_serial_write_buf_PARM_2
      0002E1 EE               [12] 1287 	mov	a,r6
      0002E2 F2               [24] 1288 	movx	@r0,a
                                   1289 ;	radio/serial.c:370: if (errors.serial_tx_overflow != 0xFFFF) {
      0002E3 78r04            [12] 1290 	mov	r0,#(_errors + 0x0004)
      0002E5 E2               [24] 1291 	movx	a,@r0
      0002E6 FE               [12] 1292 	mov	r6,a
      0002E7 08               [12] 1293 	inc	r0
      0002E8 E2               [24] 1294 	movx	a,@r0
      0002E9 FF               [12] 1295 	mov	r7,a
      0002EA BE FF 05         [24] 1296 	cjne	r6,#0xFF,00140$
      0002ED BF FF 02         [24] 1297 	cjne	r7,#0xFF,00140$
      0002F0 80 0C            [24] 1298 	sjmp	00106$
      0002F2                       1299 00140$:
                                   1300 ;	radio/serial.c:371: errors.serial_tx_overflow++;
      0002F2 0E               [12] 1301 	inc	r6
      0002F3 BE 00 01         [24] 1302 	cjne	r6,#0x00,00141$
      0002F6 0F               [12] 1303 	inc	r7
      0002F7                       1304 00141$:
      0002F7 78r04            [12] 1305 	mov	r0,#(_errors + 0x0004)
      0002F9 EE               [12] 1306 	mov	a,r6
      0002FA F2               [24] 1307 	movx	@r0,a
      0002FB 08               [12] 1308 	inc	r0
      0002FC EF               [12] 1309 	mov	a,r7
      0002FD F2               [24] 1310 	movx	@r0,a
      0002FE                       1311 00106$:
                                   1312 ;	radio/serial.c:376: n1 = count;
      0002FE 78r08            [12] 1313 	mov	r0,#_serial_write_buf_PARM_2
      000300 E2               [24] 1314 	movx	a,@r0
      000301 FF               [12] 1315 	mov	r7,a
                                   1316 ;	radio/serial.c:377: if (n1 > sizeof(tx_buf) - tx_insert) {
      000302 78r04            [12] 1317 	mov	r0,#_tx_insert
      000304 D3               [12] 1318 	setb	c
      000305 E2               [24] 1319 	movx	a,@r0
      000306 94 85            [12] 1320 	subb	a,#0x85
      000308 F4               [12] 1321 	cpl	a
      000309 B3               [12] 1322 	cpl	c
      00030A FD               [12] 1323 	mov	r5,a
      00030B B3               [12] 1324 	cpl	c
      00030C 08               [12] 1325 	inc	r0
      00030D E2               [24] 1326 	movx	a,@r0
      00030E 94 02            [12] 1327 	subb	a,#0x02
      000310 F4               [12] 1328 	cpl	a
      000311 FE               [12] 1329 	mov	r6,a
      000312 8F 03            [24] 1330 	mov	ar3,r7
      000314 7C 00            [12] 1331 	mov	r4,#0x00
      000316 C3               [12] 1332 	clr	c
      000317 ED               [12] 1333 	mov	a,r5
      000318 9B               [12] 1334 	subb	a,r3
      000319 EE               [12] 1335 	mov	a,r6
      00031A 9C               [12] 1336 	subb	a,r4
      00031B 50 09            [24] 1337 	jnc	00108$
                                   1338 ;	radio/serial.c:378: n1 = sizeof(tx_buf) - tx_insert;
      00031D 78r04            [12] 1339 	mov	r0,#_tx_insert
      00031F E2               [24] 1340 	movx	a,@r0
      000320 FE               [12] 1341 	mov	r6,a
      000321 74 85            [12] 1342 	mov	a,#0x85
      000323 C3               [12] 1343 	clr	c
      000324 9E               [12] 1344 	subb	a,r6
      000325 FF               [12] 1345 	mov	r7,a
      000326                       1346 00108$:
                                   1347 ;	radio/serial.c:380: memcpy(&tx_buf[tx_insert], buf, n1);
      000326 78r04            [12] 1348 	mov	r0,#_tx_insert
      000328 E2               [24] 1349 	movx	a,@r0
      000329 24r3A            [12] 1350 	add	a,#_tx_buf
      00032B FD               [12] 1351 	mov	r5,a
      00032C 08               [12] 1352 	inc	r0
      00032D E2               [24] 1353 	movx	a,@r0
      00032E 34s07            [12] 1354 	addc	a,#(_tx_buf >> 8)
      000330 FE               [12] 1355 	mov	r6,a
      000331 7C 00            [12] 1356 	mov	r4,#0x00
      000333 90r00r01         [24] 1357 	mov	dptr,#_serial_write_buf_buf_1_166
      000336 E0               [24] 1358 	movx	a,@dptr
      000337 FA               [12] 1359 	mov	r2,a
      000338 A3               [24] 1360 	inc	dptr
      000339 E0               [24] 1361 	movx	a,@dptr
      00033A FB               [12] 1362 	mov	r3,a
      00033B 90r00r00         [24] 1363 	mov	dptr,#_memcpy_PARM_2
      00033E EA               [12] 1364 	mov	a,r2
      00033F F0               [24] 1365 	movx	@dptr,a
      000340 EB               [12] 1366 	mov	a,r3
      000341 A3               [24] 1367 	inc	dptr
      000342 F0               [24] 1368 	movx	@dptr,a
      000343 E4               [12] 1369 	clr	a
      000344 A3               [24] 1370 	inc	dptr
      000345 F0               [24] 1371 	movx	@dptr,a
      000346 90r00r00         [24] 1372 	mov	dptr,#_memcpy_PARM_3
      000349 EF               [12] 1373 	mov	a,r7
      00034A F0               [24] 1374 	movx	@dptr,a
      00034B E4               [12] 1375 	clr	a
      00034C A3               [24] 1376 	inc	dptr
      00034D F0               [24] 1377 	movx	@dptr,a
      00034E 8D 82            [24] 1378 	mov	dpl,r5
      000350 8E 83            [24] 1379 	mov	dph,r6
      000352 8C F0            [24] 1380 	mov	b,r4
      000354 C0 07            [24] 1381 	push	ar7
      000356 C0 03            [24] 1382 	push	ar3
      000358 C0 02            [24] 1383 	push	ar2
      00035A 12r00r00         [24] 1384 	lcall	_memcpy
      00035D D0 02            [24] 1385 	pop	ar2
      00035F D0 03            [24] 1386 	pop	ar3
      000361 D0 07            [24] 1387 	pop	ar7
                                   1388 ;	radio/serial.c:381: buf += n1;
      000363 90r00r01         [24] 1389 	mov	dptr,#_serial_write_buf_buf_1_166
      000366 EF               [12] 1390 	mov	a,r7
      000367 2A               [12] 1391 	add	a,r2
      000368 F0               [24] 1392 	movx	@dptr,a
      000369 E4               [12] 1393 	clr	a
      00036A 3B               [12] 1394 	addc	a,r3
      00036B A3               [24] 1395 	inc	dptr
      00036C F0               [24] 1396 	movx	@dptr,a
                                   1397 ;	radio/serial.c:382: count -= n1;
      00036D 78r08            [12] 1398 	mov	r0,#_serial_write_buf_PARM_2
      00036F E2               [24] 1399 	movx	a,@r0
      000370 C3               [12] 1400 	clr	c
      000371 9F               [12] 1401 	subb	a,r7
      000372 F2               [24] 1402 	movx	@r0,a
                                   1403 ;	radio/serial.c:388: }
      000373 D2*01            [12] 1404 	setb	_serial_write_buf_sloc0_1_0
      000375 10 AF 02         [24] 1405 	jbc	ea,00143$
      000378 C2*01            [12] 1406 	clr	_serial_write_buf_sloc0_1_0
      00037A                       1407 00143$:
                                   1408 ;	radio/serial.c:384: tx_insert += n1;
      00037A 7E 00            [12] 1409 	mov	r6,#0x00
      00037C 78r04            [12] 1410 	mov	r0,#_tx_insert
      00037E E2               [24] 1411 	movx	a,@r0
      00037F 2F               [12] 1412 	add	a,r7
      000380 F2               [24] 1413 	movx	@r0,a
      000381 08               [12] 1414 	inc	r0
      000382 E2               [24] 1415 	movx	a,@r0
      000383 3E               [12] 1416 	addc	a,r6
      000384 F2               [24] 1417 	movx	@r0,a
                                   1418 ;	radio/serial.c:385: if (tx_insert >= sizeof(tx_buf)) {
      000385 78r04            [12] 1419 	mov	r0,#_tx_insert
      000387 C3               [12] 1420 	clr	c
      000388 E2               [24] 1421 	movx	a,@r0
      000389 94 85            [12] 1422 	subb	a,#0x85
      00038B 08               [12] 1423 	inc	r0
      00038C E2               [24] 1424 	movx	a,@r0
      00038D 94 02            [12] 1425 	subb	a,#0x02
      00038F 40 0B            [24] 1426 	jc	00110$
                                   1427 ;	radio/serial.c:386: tx_insert -= sizeof(tx_buf);
      000391 78r04            [12] 1428 	mov	r0,#_tx_insert
      000393 E2               [24] 1429 	movx	a,@r0
      000394 24 7B            [12] 1430 	add	a,#0x7B
      000396 F2               [24] 1431 	movx	@r0,a
      000397 08               [12] 1432 	inc	r0
      000398 E2               [24] 1433 	movx	a,@r0
      000399 34 FD            [12] 1434 	addc	a,#0xFD
      00039B F2               [24] 1435 	movx	@r0,a
      00039C                       1436 00110$:
      00039C A2*01            [12] 1437 	mov	c,_serial_write_buf_sloc0_1_0
      00039E 92 AF            [24] 1438 	mov	ea,c
                                   1439 ;	radio/serial.c:391: if (count != 0) {
      0003A0 78r08            [12] 1440 	mov	r0,#_serial_write_buf_PARM_2
      0003A2 E2               [24] 1441 	movx	a,@r0
      0003A3 60 44            [24] 1442 	jz	00112$
                                   1443 ;	radio/serial.c:392: memcpy(&tx_buf[0], buf, count);
      0003A5 90r00r01         [24] 1444 	mov	dptr,#_serial_write_buf_buf_1_166
      0003A8 E0               [24] 1445 	movx	a,@dptr
      0003A9 FE               [12] 1446 	mov	r6,a
      0003AA A3               [24] 1447 	inc	dptr
      0003AB E0               [24] 1448 	movx	a,@dptr
      0003AC FF               [12] 1449 	mov	r7,a
      0003AD 90r00r00         [24] 1450 	mov	dptr,#_memcpy_PARM_2
      0003B0 EE               [12] 1451 	mov	a,r6
      0003B1 F0               [24] 1452 	movx	@dptr,a
      0003B2 EF               [12] 1453 	mov	a,r7
      0003B3 A3               [24] 1454 	inc	dptr
      0003B4 F0               [24] 1455 	movx	@dptr,a
      0003B5 E4               [12] 1456 	clr	a
      0003B6 A3               [24] 1457 	inc	dptr
      0003B7 F0               [24] 1458 	movx	@dptr,a
      0003B8 78r08            [12] 1459 	mov	r0,#_serial_write_buf_PARM_2
      0003BA E2               [24] 1460 	movx	a,@r0
      0003BB FE               [12] 1461 	mov	r6,a
      0003BC 7F 00            [12] 1462 	mov	r7,#0x00
      0003BE 90r00r00         [24] 1463 	mov	dptr,#_memcpy_PARM_3
      0003C1 EE               [12] 1464 	mov	a,r6
      0003C2 F0               [24] 1465 	movx	@dptr,a
      0003C3 EF               [12] 1466 	mov	a,r7
      0003C4 A3               [24] 1467 	inc	dptr
      0003C5 F0               [24] 1468 	movx	@dptr,a
      0003C6 90r07r3A         [24] 1469 	mov	dptr,#_tx_buf
      0003C9 75 F0 00         [24] 1470 	mov	b,#0x00
      0003CC C0 07            [24] 1471 	push	ar7
      0003CE C0 06            [24] 1472 	push	ar6
      0003D0 12r00r00         [24] 1473 	lcall	_memcpy
      0003D3 D0 06            [24] 1474 	pop	ar6
      0003D5 D0 07            [24] 1475 	pop	ar7
                                   1476 ;	radio/serial.c:395: }		
      0003D7 D2*01            [12] 1477 	setb	_serial_write_buf_sloc0_1_0
      0003D9 10 AF 02         [24] 1478 	jbc	ea,00146$
      0003DC C2*01            [12] 1479 	clr	_serial_write_buf_sloc0_1_0
      0003DE                       1480 00146$:
                                   1481 ;	radio/serial.c:394: tx_insert = count;
      0003DE 78r04            [12] 1482 	mov	r0,#_tx_insert
      0003E0 EE               [12] 1483 	mov	a,r6
      0003E1 F2               [24] 1484 	movx	@r0,a
      0003E2 08               [12] 1485 	inc	r0
      0003E3 EF               [12] 1486 	mov	a,r7
      0003E4 F2               [24] 1487 	movx	@r0,a
      0003E5 A2*01            [12] 1488 	mov	c,_serial_write_buf_sloc0_1_0
      0003E7 92 AF            [24] 1489 	mov	ea,c
      0003E9                       1490 00112$:
                                   1491 ;	radio/serial.c:401: }
      0003E9 D2*01            [12] 1492 	setb	_serial_write_buf_sloc0_1_0
      0003EB 10 AF 02         [24] 1493 	jbc	ea,00147$
      0003EE C2*01            [12] 1494 	clr	_serial_write_buf_sloc0_1_0
      0003F0                       1495 00147$:
                                   1496 ;	radio/serial.c:398: if (tx_idle) {
      0003F0 30*00 03         [24] 1497 	jnb	_tx_idle,00114$
                                   1498 ;	radio/serial.c:399: serial_restart();
      0003F3 12r04r4F         [24] 1499 	lcall	_serial_restart
      0003F6                       1500 00114$:
      0003F6 A2*01            [12] 1501 	mov	c,_serial_write_buf_sloc0_1_0
      0003F8 92 AF            [24] 1502 	mov	ea,c
      0003FA 22               [24] 1503 	ret
                                   1504 ;------------------------------------------------------------
                                   1505 ;Allocation info for local variables in function 'serial_write_space'
                                   1506 ;------------------------------------------------------------
                                   1507 ;ret                       Allocated to registers r6 r7 
                                   1508 ;------------------------------------------------------------
                                   1509 ;	radio/serial.c:405: serial_write_space(void)
                                   1510 ;	-----------------------------------------
                                   1511 ;	 function serial_write_space
                                   1512 ;	-----------------------------------------
      0003FB                       1513 _serial_write_space:
                                   1514 ;	radio/serial.c:408: ES0_SAVE_DISABLE;
      0003FB A2 AC            [12] 1515 	mov	c,_ES0
      0003FD 92*02            [24] 1516 	mov	_serial_write_space_ES_saved_1_179,c
      0003FF C2 AC            [12] 1517 	clr	_ES0
                                   1518 ;	radio/serial.c:409: ret = BUF_FREE(tx);
      000401 78r04            [12] 1519 	mov	r0,#_tx_insert
      000403 79r06            [12] 1520 	mov	r1,#_tx_remove
      000405 C3               [12] 1521 	clr	c
      000406 E3               [24] 1522 	movx	a,@r1
      000407 F5 F0            [12] 1523 	mov	b,a
      000409 E2               [24] 1524 	movx	a,@r0
      00040A 95 F0            [12] 1525 	subb	a,b
      00040C 09               [12] 1526 	inc	r1
      00040D E3               [24] 1527 	movx	a,@r1
      00040E F5 F0            [12] 1528 	mov	b,a
      000410 08               [12] 1529 	inc	r0
      000411 E2               [24] 1530 	movx	a,@r0
      000412 95 F0            [12] 1531 	subb	a,b
      000414 40 1B            [24] 1532 	jc	00103$
      000416 78r06            [12] 1533 	mov	r0,#_tx_remove
      000418 E2               [24] 1534 	movx	a,@r0
      000419 24 85            [12] 1535 	add	a,#0x85
      00041B FE               [12] 1536 	mov	r6,a
      00041C 08               [12] 1537 	inc	r0
      00041D E2               [24] 1538 	movx	a,@r0
      00041E 34 02            [12] 1539 	addc	a,#0x02
      000420 FF               [12] 1540 	mov	r7,a
      000421 78r04            [12] 1541 	mov	r0,#_tx_insert
      000423 D3               [12] 1542 	setb	c
      000424 E2               [24] 1543 	movx	a,@r0
      000425 9E               [12] 1544 	subb	a,r6
      000426 F4               [12] 1545 	cpl	a
      000427 B3               [12] 1546 	cpl	c
      000428 FE               [12] 1547 	mov	r6,a
      000429 B3               [12] 1548 	cpl	c
      00042A 08               [12] 1549 	inc	r0
      00042B E2               [24] 1550 	movx	a,@r0
      00042C 9F               [12] 1551 	subb	a,r7
      00042D F4               [12] 1552 	cpl	a
      00042E FF               [12] 1553 	mov	r7,a
      00042F 80 15            [24] 1554 	sjmp	00104$
      000431                       1555 00103$:
      000431 78r06            [12] 1556 	mov	r0,#_tx_remove
      000433 79r04            [12] 1557 	mov	r1,#_tx_insert
      000435 E3               [24] 1558 	movx	a,@r1
      000436 F5 F0            [12] 1559 	mov	b,a
      000438 C3               [12] 1560 	clr	c
      000439 E2               [24] 1561 	movx	a,@r0
      00043A 95 F0            [12] 1562 	subb	a,b
      00043C FE               [12] 1563 	mov	r6,a
      00043D 09               [12] 1564 	inc	r1
      00043E E3               [24] 1565 	movx	a,@r1
      00043F F5 F0            [12] 1566 	mov	b,a
      000441 08               [12] 1567 	inc	r0
      000442 E2               [24] 1568 	movx	a,@r0
      000443 95 F0            [12] 1569 	subb	a,b
      000445 FF               [12] 1570 	mov	r7,a
      000446                       1571 00104$:
                                   1572 ;	radio/serial.c:410: ES0_RESTORE;
      000446 A2*02            [12] 1573 	mov	c,_serial_write_space_ES_saved_1_179
      000448 92 AC            [24] 1574 	mov	_ES0,c
                                   1575 ;	radio/serial.c:411: return ret;
      00044A 8E 82            [24] 1576 	mov	dpl,r6
      00044C 8F 83            [24] 1577 	mov	dph,r7
      00044E 22               [24] 1578 	ret
                                   1579 ;------------------------------------------------------------
                                   1580 ;Allocation info for local variables in function 'serial_restart'
                                   1581 ;------------------------------------------------------------
                                   1582 ;	radio/serial.c:415: serial_restart(void)
                                   1583 ;	-----------------------------------------
                                   1584 ;	 function serial_restart
                                   1585 ;	-----------------------------------------
      00044F                       1586 _serial_restart:
                                   1587 ;	radio/serial.c:418: if (feature_rtscts && SERIAL_RTS && !at_mode_active) {
      00044F 30*00 07         [24] 1588 	jnb	_feature_rtscts,00102$
      000452 30 83 04         [24] 1589 	jnb	_PIN_ENABLE,00102$
      000455 20*00 01         [24] 1590 	jb	_at_mode_active,00102$
                                   1591 ;	radio/serial.c:420: return;
      000458 22               [24] 1592 	ret
      000459                       1593 00102$:
                                   1594 ;	radio/serial.c:424: tx_idle = false;
      000459 C2*00            [12] 1595 	clr	_tx_idle
                                   1596 ;	radio/serial.c:425: TI0 = 1;
      00045B D2 99            [12] 1597 	setb	_TI0
      00045D 22               [24] 1598 	ret
                                   1599 ;------------------------------------------------------------
                                   1600 ;Allocation info for local variables in function 'serial_read'
                                   1601 ;------------------------------------------------------------
                                   1602 ;c                         Allocated to registers r7 
                                   1603 ;------------------------------------------------------------
                                   1604 ;	radio/serial.c:429: serial_read(void)
                                   1605 ;	-----------------------------------------
                                   1606 ;	 function serial_read
                                   1607 ;	-----------------------------------------
      00045E                       1608 _serial_read:
                                   1609 ;	radio/serial.c:433: ES0_SAVE_DISABLE;
      00045E A2 AC            [12] 1610 	mov	c,_ES0
      000460 92*03            [24] 1611 	mov	_serial_read_ES_saved_1_184,c
      000462 C2 AC            [12] 1612 	clr	_ES0
                                   1613 ;	radio/serial.c:435: if (BUF_NOT_EMPTY(rx)) {
      000464 78r00            [12] 1614 	mov	r0,#_rx_insert
      000466 79r02            [12] 1615 	mov	r1,#_rx_remove
      000468 E2               [24] 1616 	movx	a,@r0
      000469 F5 F0            [12] 1617 	mov	b,a
      00046B E3               [24] 1618 	movx	a,@r1
      00046C B5 F0 0B         [24] 1619 	cjne	a,b,00127$
      00046F 08               [12] 1620 	inc	r0
      000470 E2               [24] 1621 	movx	a,@r0
      000471 F5 F0            [12] 1622 	mov	b,a
      000473 09               [12] 1623 	inc	r1
      000474 E3               [24] 1624 	movx	a,@r1
      000475 B5 F0 02         [24] 1625 	cjne	a,b,00127$
      000478 80 3A            [24] 1626 	sjmp	00105$
      00047A                       1627 00127$:
                                   1628 ;	radio/serial.c:436: BUF_REMOVE(rx, c);
      00047A 78r02            [12] 1629 	mov	r0,#_rx_remove
      00047C E2               [24] 1630 	movx	a,@r0
      00047D 24r00            [12] 1631 	add	a,#_rx_buf
      00047F F5 82            [12] 1632 	mov	dpl,a
      000481 08               [12] 1633 	inc	r0
      000482 E2               [24] 1634 	movx	a,@r0
      000483 34s00            [12] 1635 	addc	a,#(_rx_buf >> 8)
      000485 F5 83            [12] 1636 	mov	dph,a
      000487 E0               [24] 1637 	movx	a,@dptr
      000488 FF               [12] 1638 	mov	r7,a
      000489 78r02            [12] 1639 	mov	r0,#_rx_remove
      00048B E2               [24] 1640 	movx	a,@r0
      00048C 24 01            [12] 1641 	add	a,#0x01
      00048E FD               [12] 1642 	mov	r5,a
      00048F 08               [12] 1643 	inc	r0
      000490 E2               [24] 1644 	movx	a,@r0
      000491 34 00            [12] 1645 	addc	a,#0x00
      000493 FE               [12] 1646 	mov	r6,a
      000494 BD 3A 09         [24] 1647 	cjne	r5,#0x3A,00111$
      000497 BE 07 06         [24] 1648 	cjne	r6,#0x07,00111$
      00049A 7D 00            [12] 1649 	mov	r5,#0x00
      00049C 7E 00            [12] 1650 	mov	r6,#0x00
      00049E 80 0B            [24] 1651 	sjmp	00112$
      0004A0                       1652 00111$:
      0004A0 78r02            [12] 1653 	mov	r0,#_rx_remove
      0004A2 E2               [24] 1654 	movx	a,@r0
      0004A3 24 01            [12] 1655 	add	a,#0x01
      0004A5 FD               [12] 1656 	mov	r5,a
      0004A6 08               [12] 1657 	inc	r0
      0004A7 E2               [24] 1658 	movx	a,@r0
      0004A8 34 00            [12] 1659 	addc	a,#0x00
      0004AA FE               [12] 1660 	mov	r6,a
      0004AB                       1661 00112$:
      0004AB 78r02            [12] 1662 	mov	r0,#_rx_remove
      0004AD ED               [12] 1663 	mov	a,r5
      0004AE F2               [24] 1664 	movx	@r0,a
      0004AF 08               [12] 1665 	inc	r0
      0004B0 EE               [12] 1666 	mov	a,r6
      0004B1 F2               [24] 1667 	movx	@r0,a
      0004B2 80 02            [24] 1668 	sjmp	00106$
      0004B4                       1669 00105$:
                                   1670 ;	radio/serial.c:438: c = '\0';
      0004B4 7F 00            [12] 1671 	mov	r7,#0x00
      0004B6                       1672 00106$:
                                   1673 ;	radio/serial.c:442: if (BUF_FREE(rx) > SERIAL_CTS_THRESHOLD_HIGH) {
      0004B6 78r00            [12] 1674 	mov	r0,#_rx_insert
      0004B8 79r02            [12] 1675 	mov	r1,#_rx_remove
      0004BA C3               [12] 1676 	clr	c
      0004BB E3               [24] 1677 	movx	a,@r1
      0004BC F5 F0            [12] 1678 	mov	b,a
      0004BE E2               [24] 1679 	movx	a,@r0
      0004BF 95 F0            [12] 1680 	subb	a,b
      0004C1 09               [12] 1681 	inc	r1
      0004C2 E3               [24] 1682 	movx	a,@r1
      0004C3 F5 F0            [12] 1683 	mov	b,a
      0004C5 08               [12] 1684 	inc	r0
      0004C6 E2               [24] 1685 	movx	a,@r0
      0004C7 95 F0            [12] 1686 	subb	a,b
      0004C9 40 1B            [24] 1687 	jc	00113$
      0004CB 78r02            [12] 1688 	mov	r0,#_rx_remove
      0004CD E2               [24] 1689 	movx	a,@r0
      0004CE 24 3A            [12] 1690 	add	a,#0x3A
      0004D0 FD               [12] 1691 	mov	r5,a
      0004D1 08               [12] 1692 	inc	r0
      0004D2 E2               [24] 1693 	movx	a,@r0
      0004D3 34 07            [12] 1694 	addc	a,#0x07
      0004D5 FE               [12] 1695 	mov	r6,a
      0004D6 78r00            [12] 1696 	mov	r0,#_rx_insert
      0004D8 D3               [12] 1697 	setb	c
      0004D9 E2               [24] 1698 	movx	a,@r0
      0004DA 9D               [12] 1699 	subb	a,r5
      0004DB F4               [12] 1700 	cpl	a
      0004DC B3               [12] 1701 	cpl	c
      0004DD FD               [12] 1702 	mov	r5,a
      0004DE B3               [12] 1703 	cpl	c
      0004DF 08               [12] 1704 	inc	r0
      0004E0 E2               [24] 1705 	movx	a,@r0
      0004E1 9E               [12] 1706 	subb	a,r6
      0004E2 F4               [12] 1707 	cpl	a
      0004E3 FE               [12] 1708 	mov	r6,a
      0004E4 80 15            [24] 1709 	sjmp	00114$
      0004E6                       1710 00113$:
      0004E6 78r02            [12] 1711 	mov	r0,#_rx_remove
      0004E8 79r00            [12] 1712 	mov	r1,#_rx_insert
      0004EA E3               [24] 1713 	movx	a,@r1
      0004EB F5 F0            [12] 1714 	mov	b,a
      0004ED C3               [12] 1715 	clr	c
      0004EE E2               [24] 1716 	movx	a,@r0
      0004EF 95 F0            [12] 1717 	subb	a,b
      0004F1 FD               [12] 1718 	mov	r5,a
      0004F2 09               [12] 1719 	inc	r1
      0004F3 E3               [24] 1720 	movx	a,@r1
      0004F4 F5 F0            [12] 1721 	mov	b,a
      0004F6 08               [12] 1722 	inc	r0
      0004F7 E2               [24] 1723 	movx	a,@r0
      0004F8 95 F0            [12] 1724 	subb	a,b
      0004FA FE               [12] 1725 	mov	r6,a
      0004FB                       1726 00114$:
      0004FB C3               [12] 1727 	clr	c
      0004FC 74 22            [12] 1728 	mov	a,#0x22
      0004FE 9D               [12] 1729 	subb	a,r5
      0004FF E4               [12] 1730 	clr	a
      000500 9E               [12] 1731 	subb	a,r6
      000501 50 02            [24] 1732 	jnc	00108$
                                   1733 ;	radio/serial.c:443: SERIAL_CTS = false;
      000503 C2 82            [12] 1734 	clr	_PIN_CONFIG
      000505                       1735 00108$:
                                   1736 ;	radio/serial.c:447: ES0_RESTORE;
      000505 A2*03            [12] 1737 	mov	c,_serial_read_ES_saved_1_184
      000507 92 AC            [24] 1738 	mov	_ES0,c
                                   1739 ;	radio/serial.c:449: return c;
      000509 8F 82            [24] 1740 	mov	dpl,r7
      00050B 22               [24] 1741 	ret
                                   1742 ;------------------------------------------------------------
                                   1743 ;Allocation info for local variables in function 'serial_peek'
                                   1744 ;------------------------------------------------------------
                                   1745 ;c                         Allocated to registers r7 
                                   1746 ;------------------------------------------------------------
                                   1747 ;	radio/serial.c:453: serial_peek(void)
                                   1748 ;	-----------------------------------------
                                   1749 ;	 function serial_peek
                                   1750 ;	-----------------------------------------
      00050C                       1751 _serial_peek:
                                   1752 ;	radio/serial.c:457: ES0_SAVE_DISABLE;
      00050C A2 AC            [12] 1753 	mov	c,_ES0
      00050E 92*04            [24] 1754 	mov	_serial_peek_ES_saved_1_190,c
      000510 C2 AC            [12] 1755 	clr	_ES0
                                   1756 ;	radio/serial.c:458: c = BUF_PEEK(rx);
      000512 78r02            [12] 1757 	mov	r0,#_rx_remove
      000514 E2               [24] 1758 	movx	a,@r0
      000515 24r00            [12] 1759 	add	a,#_rx_buf
      000517 F5 82            [12] 1760 	mov	dpl,a
      000519 08               [12] 1761 	inc	r0
      00051A E2               [24] 1762 	movx	a,@r0
      00051B 34s00            [12] 1763 	addc	a,#(_rx_buf >> 8)
      00051D F5 83            [12] 1764 	mov	dph,a
      00051F E0               [24] 1765 	movx	a,@dptr
      000520 FF               [12] 1766 	mov	r7,a
                                   1767 ;	radio/serial.c:459: ES0_RESTORE;
      000521 A2*04            [12] 1768 	mov	c,_serial_peek_ES_saved_1_190
      000523 92 AC            [24] 1769 	mov	_ES0,c
                                   1770 ;	radio/serial.c:461: return c;
      000525 8F 82            [24] 1771 	mov	dpl,r7
      000527 22               [24] 1772 	ret
                                   1773 ;------------------------------------------------------------
                                   1774 ;Allocation info for local variables in function 'serial_peekx'
                                   1775 ;------------------------------------------------------------
                                   1776 ;c                         Allocated to registers r7 
                                   1777 ;offset                    Allocated with name '_serial_peekx_offset_1_191'
                                   1778 ;------------------------------------------------------------
                                   1779 ;	radio/serial.c:465: serial_peekx(uint16_t offset)
                                   1780 ;	-----------------------------------------
                                   1781 ;	 function serial_peekx
                                   1782 ;	-----------------------------------------
      000528                       1783 _serial_peekx:
      000528 AF 83            [24] 1784 	mov	r7,dph
      00052A E5 82            [12] 1785 	mov	a,dpl
      00052C 90r00r03         [24] 1786 	mov	dptr,#_serial_peekx_offset_1_191
      00052F F0               [24] 1787 	movx	@dptr,a
      000530 EF               [12] 1788 	mov	a,r7
      000531 A3               [24] 1789 	inc	dptr
      000532 F0               [24] 1790 	movx	@dptr,a
                                   1791 ;	radio/serial.c:469: ES0_SAVE_DISABLE;
      000533 A2 AC            [12] 1792 	mov	c,_ES0
      000535 92*05            [24] 1793 	mov	_serial_peekx_ES_saved_1_192,c
      000537 C2 AC            [12] 1794 	clr	_ES0
                                   1795 ;	radio/serial.c:470: c = BUF_PEEKX(rx, offset);
      000539 90r00r03         [24] 1796 	mov	dptr,#_serial_peekx_offset_1_191
      00053C E0               [24] 1797 	movx	a,@dptr
      00053D FE               [12] 1798 	mov	r6,a
      00053E A3               [24] 1799 	inc	dptr
      00053F E0               [24] 1800 	movx	a,@dptr
      000540 FF               [12] 1801 	mov	r7,a
      000541 78r02            [12] 1802 	mov	r0,#_rx_remove
      000543 E2               [24] 1803 	movx	a,@r0
      000544 2E               [12] 1804 	add	a,r6
      000545 FE               [12] 1805 	mov	r6,a
      000546 08               [12] 1806 	inc	r0
      000547 E2               [24] 1807 	movx	a,@r0
      000548 3F               [12] 1808 	addc	a,r7
      000549 FF               [12] 1809 	mov	r7,a
      00054A 90r00r00         [24] 1810 	mov	dptr,#__moduint_PARM_2
      00054D 74 3A            [12] 1811 	mov	a,#0x3A
      00054F F0               [24] 1812 	movx	@dptr,a
      000550 74 07            [12] 1813 	mov	a,#0x07
      000552 A3               [24] 1814 	inc	dptr
      000553 F0               [24] 1815 	movx	@dptr,a
      000554 8E 82            [24] 1816 	mov	dpl,r6
      000556 8F 83            [24] 1817 	mov	dph,r7
      000558 12r00r00         [24] 1818 	lcall	__moduint
      00055B AE 82            [24] 1819 	mov	r6,dpl
      00055D AF 83            [24] 1820 	mov	r7,dph
      00055F EE               [12] 1821 	mov	a,r6
      000560 24r00            [12] 1822 	add	a,#_rx_buf
      000562 F5 82            [12] 1823 	mov	dpl,a
      000564 EF               [12] 1824 	mov	a,r7
      000565 34s00            [12] 1825 	addc	a,#(_rx_buf >> 8)
      000567 F5 83            [12] 1826 	mov	dph,a
      000569 E0               [24] 1827 	movx	a,@dptr
      00056A FF               [12] 1828 	mov	r7,a
                                   1829 ;	radio/serial.c:471: ES0_RESTORE;
      00056B A2*05            [12] 1830 	mov	c,_serial_peekx_ES_saved_1_192
      00056D 92 AC            [24] 1831 	mov	_ES0,c
                                   1832 ;	radio/serial.c:473: return c;
      00056F 8F 82            [24] 1833 	mov	dpl,r7
      000571 22               [24] 1834 	ret
                                   1835 ;------------------------------------------------------------
                                   1836 ;Allocation info for local variables in function 'serial_read_buf'
                                   1837 ;------------------------------------------------------------
                                   1838 ;sloc0                     Allocated with name '_serial_read_buf_sloc0_1_0'
                                   1839 ;buf                       Allocated with name '_serial_read_buf_buf_1_193'
                                   1840 ;------------------------------------------------------------
                                   1841 ;	radio/serial.c:480: serial_read_buf(__xdata uint8_t * buf, __pdata uint8_t count)
                                   1842 ;	-----------------------------------------
                                   1843 ;	 function serial_read_buf
                                   1844 ;	-----------------------------------------
      000572                       1845 _serial_read_buf:
      000572 AF 83            [24] 1846 	mov	r7,dph
      000574 E5 82            [12] 1847 	mov	a,dpl
      000576 90r00r05         [24] 1848 	mov	dptr,#_serial_read_buf_buf_1_193
      000579 F0               [24] 1849 	movx	@dptr,a
      00057A EF               [12] 1850 	mov	a,r7
      00057B A3               [24] 1851 	inc	dptr
      00057C F0               [24] 1852 	movx	@dptr,a
                                   1853 ;	radio/serial.c:485: if (count > serial_read_available()) {
      00057D 12r06rED         [24] 1854 	lcall	_serial_read_available
      000580 AE 82            [24] 1855 	mov	r6,dpl
      000582 AF 83            [24] 1856 	mov	r7,dph
      000584 78r09            [12] 1857 	mov	r0,#_serial_read_buf_PARM_2
      000586 E2               [24] 1858 	movx	a,@r0
      000587 FC               [12] 1859 	mov	r4,a
      000588 7D 00            [12] 1860 	mov	r5,#0x00
      00058A C3               [12] 1861 	clr	c
      00058B EE               [12] 1862 	mov	a,r6
      00058C 9C               [12] 1863 	subb	a,r4
      00058D EF               [12] 1864 	mov	a,r7
      00058E 9D               [12] 1865 	subb	a,r5
      00058F 50 02            [24] 1866 	jnc	00102$
                                   1867 ;	radio/serial.c:486: return false;
      000591 C3               [12] 1868 	clr	c
      000592 22               [24] 1869 	ret
      000593                       1870 00102$:
                                   1871 ;	radio/serial.c:489: n1 = count;
      000593 8C 03            [24] 1872 	mov	ar3,r4
      000595 8D 02            [24] 1873 	mov	ar2,r5
                                   1874 ;	radio/serial.c:490: if (n1 > sizeof(rx_buf) - rx_remove) {
      000597 78r02            [12] 1875 	mov	r0,#_rx_remove
      000599 D3               [12] 1876 	setb	c
      00059A E2               [24] 1877 	movx	a,@r0
      00059B 94 3A            [12] 1878 	subb	a,#0x3A
      00059D F4               [12] 1879 	cpl	a
      00059E B3               [12] 1880 	cpl	c
      00059F FC               [12] 1881 	mov	r4,a
      0005A0 B3               [12] 1882 	cpl	c
      0005A1 08               [12] 1883 	inc	r0
      0005A2 E2               [24] 1884 	movx	a,@r0
      0005A3 94 07            [12] 1885 	subb	a,#0x07
      0005A5 F4               [12] 1886 	cpl	a
      0005A6 FD               [12] 1887 	mov	r5,a
      0005A7 C3               [12] 1888 	clr	c
      0005A8 EC               [12] 1889 	mov	a,r4
      0005A9 9B               [12] 1890 	subb	a,r3
      0005AA ED               [12] 1891 	mov	a,r5
      0005AB 9A               [12] 1892 	subb	a,r2
      0005AC 50 10            [24] 1893 	jnc	00104$
                                   1894 ;	radio/serial.c:491: n1 = sizeof(rx_buf) - rx_remove;
      0005AE 78r02            [12] 1895 	mov	r0,#_rx_remove
      0005B0 D3               [12] 1896 	setb	c
      0005B1 E2               [24] 1897 	movx	a,@r0
      0005B2 94 3A            [12] 1898 	subb	a,#0x3A
      0005B4 F4               [12] 1899 	cpl	a
      0005B5 B3               [12] 1900 	cpl	c
      0005B6 FB               [12] 1901 	mov	r3,a
      0005B7 B3               [12] 1902 	cpl	c
      0005B8 08               [12] 1903 	inc	r0
      0005B9 E2               [24] 1904 	movx	a,@r0
      0005BA 94 07            [12] 1905 	subb	a,#0x07
      0005BC F4               [12] 1906 	cpl	a
      0005BD FA               [12] 1907 	mov	r2,a
      0005BE                       1908 00104$:
                                   1909 ;	radio/serial.c:493: memcpy(buf, &rx_buf[rx_remove], n1);
      0005BE 90r00r05         [24] 1910 	mov	dptr,#_serial_read_buf_buf_1_193
      0005C1 E0               [24] 1911 	movx	a,@dptr
      0005C2 FC               [12] 1912 	mov	r4,a
      0005C3 A3               [24] 1913 	inc	dptr
      0005C4 E0               [24] 1914 	movx	a,@dptr
      0005C5 FD               [12] 1915 	mov	r5,a
      0005C6 8C*00            [24] 1916 	mov	_serial_read_buf_sloc0_1_0,r4
      0005C8 8D*01            [24] 1917 	mov	(_serial_read_buf_sloc0_1_0 + 1),r5
      0005CA 75*02 00         [24] 1918 	mov	(_serial_read_buf_sloc0_1_0 + 2),#0x00
      0005CD 78r02            [12] 1919 	mov	r0,#_rx_remove
      0005CF E2               [24] 1920 	movx	a,@r0
      0005D0 24r00            [12] 1921 	add	a,#_rx_buf
      0005D2 FE               [12] 1922 	mov	r6,a
      0005D3 08               [12] 1923 	inc	r0
      0005D4 E2               [24] 1924 	movx	a,@r0
      0005D5 34s00            [12] 1925 	addc	a,#(_rx_buf >> 8)
      0005D7 FF               [12] 1926 	mov	r7,a
      0005D8 90r00r00         [24] 1927 	mov	dptr,#_memcpy_PARM_2
      0005DB EE               [12] 1928 	mov	a,r6
      0005DC F0               [24] 1929 	movx	@dptr,a
      0005DD EF               [12] 1930 	mov	a,r7
      0005DE A3               [24] 1931 	inc	dptr
      0005DF F0               [24] 1932 	movx	@dptr,a
      0005E0 E4               [12] 1933 	clr	a
      0005E1 A3               [24] 1934 	inc	dptr
      0005E2 F0               [24] 1935 	movx	@dptr,a
      0005E3 90r00r00         [24] 1936 	mov	dptr,#_memcpy_PARM_3
      0005E6 EB               [12] 1937 	mov	a,r3
      0005E7 F0               [24] 1938 	movx	@dptr,a
      0005E8 EA               [12] 1939 	mov	a,r2
      0005E9 A3               [24] 1940 	inc	dptr
      0005EA F0               [24] 1941 	movx	@dptr,a
      0005EB 85*00 82         [24] 1942 	mov	dpl,_serial_read_buf_sloc0_1_0
      0005EE 85*01 83         [24] 1943 	mov	dph,(_serial_read_buf_sloc0_1_0 + 1)
      0005F1 85*02 F0         [24] 1944 	mov	b,(_serial_read_buf_sloc0_1_0 + 2)
      0005F4 C0 05            [24] 1945 	push	ar5
      0005F6 C0 04            [24] 1946 	push	ar4
      0005F8 C0 03            [24] 1947 	push	ar3
      0005FA C0 02            [24] 1948 	push	ar2
      0005FC 12r00r00         [24] 1949 	lcall	_memcpy
      0005FF D0 02            [24] 1950 	pop	ar2
      000601 D0 03            [24] 1951 	pop	ar3
      000603 D0 04            [24] 1952 	pop	ar4
      000605 D0 05            [24] 1953 	pop	ar5
                                   1954 ;	radio/serial.c:494: count -= n1;
      000607 8B 06            [24] 1955 	mov	ar6,r3
      000609 78r09            [12] 1956 	mov	r0,#_serial_read_buf_PARM_2
      00060B E2               [24] 1957 	movx	a,@r0
      00060C C3               [12] 1958 	clr	c
      00060D 9E               [12] 1959 	subb	a,r6
      00060E F2               [24] 1960 	movx	@r0,a
                                   1961 ;	radio/serial.c:495: buf += n1;
      00060F 90r00r05         [24] 1962 	mov	dptr,#_serial_read_buf_buf_1_193
      000612 EB               [12] 1963 	mov	a,r3
      000613 2C               [12] 1964 	add	a,r4
      000614 F0               [24] 1965 	movx	@dptr,a
      000615 EA               [12] 1966 	mov	a,r2
      000616 3D               [12] 1967 	addc	a,r5
      000617 A3               [24] 1968 	inc	dptr
      000618 F0               [24] 1969 	movx	@dptr,a
                                   1970 ;	radio/serial.c:502: }
      000619 D2*06            [12] 1971 	setb	_serial_read_buf_sloc1_1_0
      00061B 10 AF 02         [24] 1972 	jbc	ea,00135$
      00061E C2*06            [12] 1973 	clr	_serial_read_buf_sloc1_1_0
      000620                       1974 00135$:
                                   1975 ;	radio/serial.c:498: rx_remove += n1;
      000620 78r02            [12] 1976 	mov	r0,#_rx_remove
      000622 E2               [24] 1977 	movx	a,@r0
      000623 2B               [12] 1978 	add	a,r3
      000624 F2               [24] 1979 	movx	@r0,a
      000625 08               [12] 1980 	inc	r0
      000626 E2               [24] 1981 	movx	a,@r0
      000627 3A               [12] 1982 	addc	a,r2
      000628 F2               [24] 1983 	movx	@r0,a
                                   1984 ;	radio/serial.c:499: if (rx_remove >= sizeof(rx_buf)) {
      000629 78r02            [12] 1985 	mov	r0,#_rx_remove
      00062B C3               [12] 1986 	clr	c
      00062C E2               [24] 1987 	movx	a,@r0
      00062D 94 3A            [12] 1988 	subb	a,#0x3A
      00062F 08               [12] 1989 	inc	r0
      000630 E2               [24] 1990 	movx	a,@r0
      000631 94 07            [12] 1991 	subb	a,#0x07
      000633 40 0B            [24] 1992 	jc	00106$
                                   1993 ;	radio/serial.c:500: rx_remove -= sizeof(rx_buf);
      000635 78r02            [12] 1994 	mov	r0,#_rx_remove
      000637 E2               [24] 1995 	movx	a,@r0
      000638 24 C6            [12] 1996 	add	a,#0xC6
      00063A F2               [24] 1997 	movx	@r0,a
      00063B 08               [12] 1998 	inc	r0
      00063C E2               [24] 1999 	movx	a,@r0
      00063D 34 F8            [12] 2000 	addc	a,#0xF8
      00063F F2               [24] 2001 	movx	@r0,a
      000640                       2002 00106$:
      000640 A2*06            [12] 2003 	mov	c,_serial_read_buf_sloc1_1_0
      000642 92 AF            [24] 2004 	mov	ea,c
                                   2005 ;	radio/serial.c:504: if (count > 0) {
      000644 78r09            [12] 2006 	mov	r0,#_serial_read_buf_PARM_2
      000646 E2               [24] 2007 	movx	a,@r0
      000647 60 48            [24] 2008 	jz	00108$
                                   2009 ;	radio/serial.c:505: memcpy(buf, &rx_buf[0], count);
      000649 90r00r05         [24] 2010 	mov	dptr,#_serial_read_buf_buf_1_193
      00064C E0               [24] 2011 	movx	a,@dptr
      00064D FE               [12] 2012 	mov	r6,a
      00064E A3               [24] 2013 	inc	dptr
      00064F E0               [24] 2014 	movx	a,@dptr
      000650 FF               [12] 2015 	mov	r7,a
      000651 7D 00            [12] 2016 	mov	r5,#0x00
      000653 90r00r00         [24] 2017 	mov	dptr,#_memcpy_PARM_2
      000656 74r00            [12] 2018 	mov	a,#_rx_buf
      000658 F0               [24] 2019 	movx	@dptr,a
      000659 74s00            [12] 2020 	mov	a,#(_rx_buf >> 8)
      00065B A3               [24] 2021 	inc	dptr
      00065C F0               [24] 2022 	movx	@dptr,a
      00065D E4               [12] 2023 	clr	a
      00065E A3               [24] 2024 	inc	dptr
      00065F F0               [24] 2025 	movx	@dptr,a
      000660 78r09            [12] 2026 	mov	r0,#_serial_read_buf_PARM_2
      000662 E2               [24] 2027 	movx	a,@r0
      000663 FB               [12] 2028 	mov	r3,a
      000664 7C 00            [12] 2029 	mov	r4,#0x00
      000666 90r00r00         [24] 2030 	mov	dptr,#_memcpy_PARM_3
      000669 EB               [12] 2031 	mov	a,r3
      00066A F0               [24] 2032 	movx	@dptr,a
      00066B EC               [12] 2033 	mov	a,r4
      00066C A3               [24] 2034 	inc	dptr
      00066D F0               [24] 2035 	movx	@dptr,a
      00066E 8E 82            [24] 2036 	mov	dpl,r6
      000670 8F 83            [24] 2037 	mov	dph,r7
      000672 8D F0            [24] 2038 	mov	b,r5
      000674 C0 04            [24] 2039 	push	ar4
      000676 C0 03            [24] 2040 	push	ar3
      000678 12r00r00         [24] 2041 	lcall	_memcpy
      00067B D0 03            [24] 2042 	pop	ar3
      00067D D0 04            [24] 2043 	pop	ar4
                                   2044 ;	radio/serial.c:508: }		
      00067F D2*06            [12] 2045 	setb	_serial_read_buf_sloc1_1_0
      000681 10 AF 02         [24] 2046 	jbc	ea,00138$
      000684 C2*06            [12] 2047 	clr	_serial_read_buf_sloc1_1_0
      000686                       2048 00138$:
                                   2049 ;	radio/serial.c:507: rx_remove = count;
      000686 78r02            [12] 2050 	mov	r0,#_rx_remove
      000688 EB               [12] 2051 	mov	a,r3
      000689 F2               [24] 2052 	movx	@r0,a
      00068A 08               [12] 2053 	inc	r0
      00068B EC               [12] 2054 	mov	a,r4
      00068C F2               [24] 2055 	movx	@r0,a
      00068D A2*06            [12] 2056 	mov	c,_serial_read_buf_sloc1_1_0
      00068F 92 AF            [24] 2057 	mov	ea,c
      000691                       2058 00108$:
                                   2059 ;	radio/serial.c:516: }
      000691 D2*06            [12] 2060 	setb	_serial_read_buf_sloc1_1_0
      000693 10 AF 02         [24] 2061 	jbc	ea,00139$
      000696 C2*06            [12] 2062 	clr	_serial_read_buf_sloc1_1_0
      000698                       2063 00139$:
                                   2064 ;	radio/serial.c:513: if (BUF_FREE(rx) > SERIAL_CTS_THRESHOLD_HIGH) {
      000698 78r00            [12] 2065 	mov	r0,#_rx_insert
      00069A 79r02            [12] 2066 	mov	r1,#_rx_remove
      00069C C3               [12] 2067 	clr	c
      00069D E3               [24] 2068 	movx	a,@r1
      00069E F5 F0            [12] 2069 	mov	b,a
      0006A0 E2               [24] 2070 	movx	a,@r0
      0006A1 95 F0            [12] 2071 	subb	a,b
      0006A3 09               [12] 2072 	inc	r1
      0006A4 E3               [24] 2073 	movx	a,@r1
      0006A5 F5 F0            [12] 2074 	mov	b,a
      0006A7 08               [12] 2075 	inc	r0
      0006A8 E2               [24] 2076 	movx	a,@r0
      0006A9 95 F0            [12] 2077 	subb	a,b
      0006AB 40 1B            [24] 2078 	jc	00113$
      0006AD 78r02            [12] 2079 	mov	r0,#_rx_remove
      0006AF E2               [24] 2080 	movx	a,@r0
      0006B0 24 3A            [12] 2081 	add	a,#0x3A
      0006B2 FE               [12] 2082 	mov	r6,a
      0006B3 08               [12] 2083 	inc	r0
      0006B4 E2               [24] 2084 	movx	a,@r0
      0006B5 34 07            [12] 2085 	addc	a,#0x07
      0006B7 FF               [12] 2086 	mov	r7,a
      0006B8 78r00            [12] 2087 	mov	r0,#_rx_insert
      0006BA D3               [12] 2088 	setb	c
      0006BB E2               [24] 2089 	movx	a,@r0
      0006BC 9E               [12] 2090 	subb	a,r6
      0006BD F4               [12] 2091 	cpl	a
      0006BE B3               [12] 2092 	cpl	c
      0006BF FE               [12] 2093 	mov	r6,a
      0006C0 B3               [12] 2094 	cpl	c
      0006C1 08               [12] 2095 	inc	r0
      0006C2 E2               [24] 2096 	movx	a,@r0
      0006C3 9F               [12] 2097 	subb	a,r7
      0006C4 F4               [12] 2098 	cpl	a
      0006C5 FF               [12] 2099 	mov	r7,a
      0006C6 80 15            [24] 2100 	sjmp	00114$
      0006C8                       2101 00113$:
      0006C8 78r02            [12] 2102 	mov	r0,#_rx_remove
      0006CA 79r00            [12] 2103 	mov	r1,#_rx_insert
      0006CC E3               [24] 2104 	movx	a,@r1
      0006CD F5 F0            [12] 2105 	mov	b,a
      0006CF C3               [12] 2106 	clr	c
      0006D0 E2               [24] 2107 	movx	a,@r0
      0006D1 95 F0            [12] 2108 	subb	a,b
      0006D3 FE               [12] 2109 	mov	r6,a
      0006D4 09               [12] 2110 	inc	r1
      0006D5 E3               [24] 2111 	movx	a,@r1
      0006D6 F5 F0            [12] 2112 	mov	b,a
      0006D8 08               [12] 2113 	inc	r0
      0006D9 E2               [24] 2114 	movx	a,@r0
      0006DA 95 F0            [12] 2115 	subb	a,b
      0006DC FF               [12] 2116 	mov	r7,a
      0006DD                       2117 00114$:
      0006DD C3               [12] 2118 	clr	c
      0006DE 74 22            [12] 2119 	mov	a,#0x22
      0006E0 9E               [12] 2120 	subb	a,r6
      0006E1 E4               [12] 2121 	clr	a
      0006E2 9F               [12] 2122 	subb	a,r7
      0006E3 50 02            [24] 2123 	jnc	00110$
                                   2124 ;	radio/serial.c:514: SERIAL_CTS = false;
      0006E5 C2 82            [12] 2125 	clr	_PIN_CONFIG
      0006E7                       2126 00110$:
      0006E7 A2*06            [12] 2127 	mov	c,_serial_read_buf_sloc1_1_0
      0006E9 92 AF            [24] 2128 	mov	ea,c
                                   2129 ;	radio/serial.c:518: return true;
      0006EB D3               [12] 2130 	setb	c
      0006EC 22               [24] 2131 	ret
                                   2132 ;------------------------------------------------------------
                                   2133 ;Allocation info for local variables in function 'serial_read_available'
                                   2134 ;------------------------------------------------------------
                                   2135 ;ret                       Allocated to registers r6 r7 
                                   2136 ;------------------------------------------------------------
                                   2137 ;	radio/serial.c:522: serial_read_available(void)
                                   2138 ;	-----------------------------------------
                                   2139 ;	 function serial_read_available
                                   2140 ;	-----------------------------------------
      0006ED                       2141 _serial_read_available:
                                   2142 ;	radio/serial.c:525: ES0_SAVE_DISABLE;
      0006ED A2 AC            [12] 2143 	mov	c,_ES0
      0006EF 92*07            [24] 2144 	mov	_serial_read_available_ES_saved_1_204,c
      0006F1 C2 AC            [12] 2145 	clr	_ES0
                                   2146 ;	radio/serial.c:526: ret = BUF_USED(rx);
      0006F3 78r00            [12] 2147 	mov	r0,#_rx_insert
      0006F5 79r02            [12] 2148 	mov	r1,#_rx_remove
      0006F7 C3               [12] 2149 	clr	c
      0006F8 E3               [24] 2150 	movx	a,@r1
      0006F9 F5 F0            [12] 2151 	mov	b,a
      0006FB E2               [24] 2152 	movx	a,@r0
      0006FC 95 F0            [12] 2153 	subb	a,b
      0006FE 09               [12] 2154 	inc	r1
      0006FF E3               [24] 2155 	movx	a,@r1
      000700 F5 F0            [12] 2156 	mov	b,a
      000702 08               [12] 2157 	inc	r0
      000703 E2               [24] 2158 	movx	a,@r0
      000704 95 F0            [12] 2159 	subb	a,b
      000706 40 17            [24] 2160 	jc	00103$
      000708 78r00            [12] 2161 	mov	r0,#_rx_insert
      00070A 79r02            [12] 2162 	mov	r1,#_rx_remove
      00070C E3               [24] 2163 	movx	a,@r1
      00070D F5 F0            [12] 2164 	mov	b,a
      00070F C3               [12] 2165 	clr	c
      000710 E2               [24] 2166 	movx	a,@r0
      000711 95 F0            [12] 2167 	subb	a,b
      000713 FE               [12] 2168 	mov	r6,a
      000714 09               [12] 2169 	inc	r1
      000715 E3               [24] 2170 	movx	a,@r1
      000716 F5 F0            [12] 2171 	mov	b,a
      000718 08               [12] 2172 	inc	r0
      000719 E2               [24] 2173 	movx	a,@r0
      00071A 95 F0            [12] 2174 	subb	a,b
      00071C FF               [12] 2175 	mov	r7,a
      00071D 80 19            [24] 2176 	sjmp	00104$
      00071F                       2177 00103$:
      00071F 78r02            [12] 2178 	mov	r0,#_rx_remove
      000721 D3               [12] 2179 	setb	c
      000722 E2               [24] 2180 	movx	a,@r0
      000723 94 3A            [12] 2181 	subb	a,#0x3A
      000725 F4               [12] 2182 	cpl	a
      000726 B3               [12] 2183 	cpl	c
      000727 FC               [12] 2184 	mov	r4,a
      000728 B3               [12] 2185 	cpl	c
      000729 08               [12] 2186 	inc	r0
      00072A E2               [24] 2187 	movx	a,@r0
      00072B 94 07            [12] 2188 	subb	a,#0x07
      00072D F4               [12] 2189 	cpl	a
      00072E FD               [12] 2190 	mov	r5,a
      00072F 78r00            [12] 2191 	mov	r0,#_rx_insert
      000731 E2               [24] 2192 	movx	a,@r0
      000732 2C               [12] 2193 	add	a,r4
      000733 FE               [12] 2194 	mov	r6,a
      000734 08               [12] 2195 	inc	r0
      000735 E2               [24] 2196 	movx	a,@r0
      000736 3D               [12] 2197 	addc	a,r5
      000737 FF               [12] 2198 	mov	r7,a
      000738                       2199 00104$:
                                   2200 ;	radio/serial.c:527: ES0_RESTORE;
      000738 A2*07            [12] 2201 	mov	c,_serial_read_available_ES_saved_1_204
      00073A 92 AC            [24] 2202 	mov	_ES0,c
                                   2203 ;	radio/serial.c:528: return ret;
      00073C 8E 82            [24] 2204 	mov	dpl,r6
      00073E 8F 83            [24] 2205 	mov	dph,r7
      000740 22               [24] 2206 	ret
                                   2207 ;------------------------------------------------------------
                                   2208 ;Allocation info for local variables in function 'serial_read_space'
                                   2209 ;------------------------------------------------------------
                                   2210 ;space                     Allocated with name '_serial_read_space_space_1_206'
                                   2211 ;------------------------------------------------------------
                                   2212 ;	radio/serial.c:533: serial_read_space(void)
                                   2213 ;	-----------------------------------------
                                   2214 ;	 function serial_read_space
                                   2215 ;	-----------------------------------------
      000741                       2216 _serial_read_space:
                                   2217 ;	radio/serial.c:535: uint16_t space = sizeof(rx_buf) - serial_read_available();
      000741 12r06rED         [24] 2218 	lcall	_serial_read_available
      000744 AE 82            [24] 2219 	mov	r6,dpl
      000746 AF 83            [24] 2220 	mov	r7,dph
      000748 74 3A            [12] 2221 	mov	a,#0x3A
      00074A C3               [12] 2222 	clr	c
      00074B 9E               [12] 2223 	subb	a,r6
      00074C FE               [12] 2224 	mov	r6,a
      00074D 74 07            [12] 2225 	mov	a,#0x07
      00074F 9F               [12] 2226 	subb	a,r7
                                   2227 ;	radio/serial.c:536: space = (100 * (space/8)) / (sizeof(rx_buf)/8);
      000750 C4               [12] 2228 	swap	a
      000751 23               [12] 2229 	rl	a
      000752 CE               [12] 2230 	xch	a,r6
      000753 C4               [12] 2231 	swap	a
      000754 23               [12] 2232 	rl	a
      000755 54 1F            [12] 2233 	anl	a,#0x1F
      000757 6E               [12] 2234 	xrl	a,r6
      000758 CE               [12] 2235 	xch	a,r6
      000759 54 1F            [12] 2236 	anl	a,#0x1F
      00075B CE               [12] 2237 	xch	a,r6
      00075C 6E               [12] 2238 	xrl	a,r6
      00075D CE               [12] 2239 	xch	a,r6
      00075E FF               [12] 2240 	mov	r7,a
      00075F 90r00r00         [24] 2241 	mov	dptr,#__mulint_PARM_2
      000762 EE               [12] 2242 	mov	a,r6
      000763 F0               [24] 2243 	movx	@dptr,a
      000764 EF               [12] 2244 	mov	a,r7
      000765 A3               [24] 2245 	inc	dptr
      000766 F0               [24] 2246 	movx	@dptr,a
      000767 90 00 64         [24] 2247 	mov	dptr,#0x0064
      00076A 12r00r00         [24] 2248 	lcall	__mulint
      00076D AE 82            [24] 2249 	mov	r6,dpl
      00076F AF 83            [24] 2250 	mov	r7,dph
      000771 90r00r00         [24] 2251 	mov	dptr,#__divuint_PARM_2
      000774 74 E7            [12] 2252 	mov	a,#0xE7
      000776 F0               [24] 2253 	movx	@dptr,a
      000777 E4               [12] 2254 	clr	a
      000778 A3               [24] 2255 	inc	dptr
      000779 F0               [24] 2256 	movx	@dptr,a
                                   2257 ;	radio/serial.c:537: return space;
      00077A 8E 82            [24] 2258 	mov	dpl,r6
      00077C 8F 83            [24] 2259 	mov	dph,r7
      00077E 02r00r00         [24] 2260 	ljmp	__divuint
                                   2261 ;------------------------------------------------------------
                                   2262 ;Allocation info for local variables in function 'putchar'
                                   2263 ;------------------------------------------------------------
                                   2264 ;c                         Allocated to registers r7 
                                   2265 ;------------------------------------------------------------
                                   2266 ;	radio/serial.c:541: putchar(char c) __reentrant
                                   2267 ;	-----------------------------------------
                                   2268 ;	 function putchar
                                   2269 ;	-----------------------------------------
      000781                       2270 _putchar:
      000781 AF 82            [24] 2271 	mov	r7,dpl
                                   2272 ;	radio/serial.c:543: if (c == '\n')
      000783 BF 0A 0A         [24] 2273 	cjne	r7,#0x0A,00102$
                                   2274 ;	radio/serial.c:544: _serial_write('\r');
      000786 75 82 0D         [24] 2275 	mov	dpl,#0x0D
      000789 C0 07            [24] 2276 	push	ar7
      00078B 12r02r1F         [24] 2277 	lcall	__serial_write
      00078E D0 07            [24] 2278 	pop	ar7
      000790                       2279 00102$:
                                   2280 ;	radio/serial.c:545: _serial_write(c);
      000790 8F 82            [24] 2281 	mov	dpl,r7
      000792 02r02r1F         [24] 2282 	ljmp	__serial_write
                                   2283 ;------------------------------------------------------------
                                   2284 ;Allocation info for local variables in function 'serial_device_valid_speed'
                                   2285 ;------------------------------------------------------------
                                   2286 ;i                         Allocated with name '_serial_device_valid_speed_i_1_210'
                                   2287 ;num_rates                 Allocated with name '_serial_device_valid_speed_num_rates_1_210'
                                   2288 ;speed                     Allocated to registers r7 
                                   2289 ;------------------------------------------------------------
                                   2290 ;	radio/serial.c:575: serial_device_valid_speed(register uint8_t speed)
                                   2291 ;	-----------------------------------------
                                   2292 ;	 function serial_device_valid_speed
                                   2293 ;	-----------------------------------------
      000795                       2294 _serial_device_valid_speed:
      000795 AF 82            [24] 2295 	mov	r7,dpl
                                   2296 ;	radio/serial.c:580: for (i = 0; i < num_rates; i++) {
      000797 7E 00            [12] 2297 	mov	r6,#0x00
      000799                       2298 00105$:
      000799 BE 09 00         [24] 2299 	cjne	r6,#0x09,00118$
      00079C                       2300 00118$:
      00079C 50 1B            [24] 2301 	jnc	00103$
                                   2302 ;	radio/serial.c:581: if (speed == serial_rates[i].rate) {
      00079E EE               [12] 2303 	mov	a,r6
      00079F 75 F0 03         [24] 2304 	mov	b,#0x03
      0007A2 A4               [48] 2305 	mul	ab
      0007A3 24r00            [12] 2306 	add	a,#_serial_rates
      0007A5 F5 82            [12] 2307 	mov	dpl,a
      0007A7 74s00            [12] 2308 	mov	a,#(_serial_rates >> 8)
      0007A9 35 F0            [12] 2309 	addc	a,b
      0007AB F5 83            [12] 2310 	mov	dph,a
      0007AD E4               [12] 2311 	clr	a
      0007AE 93               [24] 2312 	movc	a,@a+dptr
      0007AF FD               [12] 2313 	mov	r5,a
      0007B0 EF               [12] 2314 	mov	a,r7
      0007B1 B5 05 02         [24] 2315 	cjne	a,ar5,00106$
                                   2316 ;	radio/serial.c:582: return true;
      0007B4 D3               [12] 2317 	setb	c
      0007B5 22               [24] 2318 	ret
      0007B6                       2319 00106$:
                                   2320 ;	radio/serial.c:580: for (i = 0; i < num_rates; i++) {
      0007B6 0E               [12] 2321 	inc	r6
      0007B7 80 E0            [24] 2322 	sjmp	00105$
      0007B9                       2323 00103$:
                                   2324 ;	radio/serial.c:585: return false;
      0007B9 C3               [12] 2325 	clr	c
      0007BA 22               [24] 2326 	ret
                                   2327 ;------------------------------------------------------------
                                   2328 ;Allocation info for local variables in function 'serial_device_set_speed'
                                   2329 ;------------------------------------------------------------
                                   2330 ;speed                     Allocated to registers r7 
                                   2331 ;i                         Allocated with name '_serial_device_set_speed_i_1_214'
                                   2332 ;num_rates                 Allocated with name '_serial_device_set_speed_num_rates_1_214'
                                   2333 ;------------------------------------------------------------
                                   2334 ;	radio/serial.c:589: void serial_device_set_speed(register uint8_t speed)
                                   2335 ;	-----------------------------------------
                                   2336 ;	 function serial_device_set_speed
                                   2337 ;	-----------------------------------------
      0007BB                       2338 _serial_device_set_speed:
      0007BB AF 82            [24] 2339 	mov	r7,dpl
                                   2340 ;	radio/serial.c:594: for (i = 0; i < num_rates; i++) {
      0007BD 7E 00            [12] 2341 	mov	r6,#0x00
      0007BF                       2342 00107$:
      0007BF BE 09 00         [24] 2343 	cjne	r6,#0x09,00124$
      0007C2                       2344 00124$:
      0007C2 50 1B            [24] 2345 	jnc	00115$
                                   2346 ;	radio/serial.c:595: if (speed == serial_rates[i].rate) {
      0007C4 EE               [12] 2347 	mov	a,r6
      0007C5 75 F0 03         [24] 2348 	mov	b,#0x03
      0007C8 A4               [48] 2349 	mul	ab
      0007C9 24r00            [12] 2350 	add	a,#_serial_rates
      0007CB F5 82            [12] 2351 	mov	dpl,a
      0007CD 74s00            [12] 2352 	mov	a,#(_serial_rates >> 8)
      0007CF 35 F0            [12] 2353 	addc	a,b
      0007D1 F5 83            [12] 2354 	mov	dph,a
      0007D3 E4               [12] 2355 	clr	a
      0007D4 93               [24] 2356 	movc	a,@a+dptr
      0007D5 FD               [12] 2357 	mov	r5,a
      0007D6 EF               [12] 2358 	mov	a,r7
      0007D7 B5 05 02         [24] 2359 	cjne	a,ar5,00126$
      0007DA 80 03            [24] 2360 	sjmp	00115$
      0007DC                       2361 00126$:
                                   2362 ;	radio/serial.c:594: for (i = 0; i < num_rates; i++) {
      0007DC 0E               [12] 2363 	inc	r6
      0007DD 80 E0            [24] 2364 	sjmp	00107$
      0007DF                       2365 00115$:
      0007DF 90r00r07         [24] 2366 	mov	dptr,#_serial_device_set_speed_i_1_214
      0007E2 EE               [12] 2367 	mov	a,r6
      0007E3 F0               [24] 2368 	movx	@dptr,a
                                   2369 ;	radio/serial.c:599: if (i == num_rates) {
      0007E4 BE 09 06         [24] 2370 	cjne	r6,#0x09,00105$
                                   2371 ;	radio/serial.c:600: i = 6; // 57600 default
      0007E7 90r00r07         [24] 2372 	mov	dptr,#_serial_device_set_speed_i_1_214
      0007EA 74 06            [12] 2373 	mov	a,#0x06
      0007EC F0               [24] 2374 	movx	@dptr,a
      0007ED                       2375 00105$:
                                   2376 ;	radio/serial.c:604: TH1 = serial_rates[i].th1;
      0007ED 90r00r07         [24] 2377 	mov	dptr,#_serial_device_set_speed_i_1_214
      0007F0 E0               [24] 2378 	movx	a,@dptr
      0007F1 75 F0 03         [24] 2379 	mov	b,#0x03
      0007F4 A4               [48] 2380 	mul	ab
      0007F5 24r00            [12] 2381 	add	a,#_serial_rates
      0007F7 FD               [12] 2382 	mov	r5,a
      0007F8 74s00            [12] 2383 	mov	a,#(_serial_rates >> 8)
      0007FA 35 F0            [12] 2384 	addc	a,b
      0007FC FE               [12] 2385 	mov	r6,a
      0007FD 8D 82            [24] 2386 	mov	dpl,r5
      0007FF 8E 83            [24] 2387 	mov	dph,r6
      000801 A3               [24] 2388 	inc	dptr
      000802 E4               [12] 2389 	clr	a
      000803 93               [24] 2390 	movc	a,@a+dptr
      000804 F5 8D            [12] 2391 	mov	_TH1,a
                                   2392 ;	radio/serial.c:605: CKCON = (CKCON & ~0x0b) | serial_rates[i].ckcon;
      000806 AC 8E            [24] 2393 	mov	r4,_CKCON
      000808 53 04 F4         [24] 2394 	anl	ar4,#0xF4
      00080B 8D 82            [24] 2395 	mov	dpl,r5
      00080D 8E 83            [24] 2396 	mov	dph,r6
      00080F A3               [24] 2397 	inc	dptr
      000810 A3               [24] 2398 	inc	dptr
      000811 E4               [12] 2399 	clr	a
      000812 93               [24] 2400 	movc	a,@a+dptr
      000813 4C               [12] 2401 	orl	a,r4
      000814 F5 8E            [12] 2402 	mov	_CKCON,a
                                   2403 ;	radio/serial.c:609: packet_set_serial_speed(speed*125UL);	
      000816 90r00r00         [24] 2404 	mov	dptr,#__mullong_PARM_2
      000819 EF               [12] 2405 	mov	a,r7
      00081A F0               [24] 2406 	movx	@dptr,a
      00081B E4               [12] 2407 	clr	a
      00081C A3               [24] 2408 	inc	dptr
      00081D F0               [24] 2409 	movx	@dptr,a
      00081E A3               [24] 2410 	inc	dptr
      00081F F0               [24] 2411 	movx	@dptr,a
      000820 A3               [24] 2412 	inc	dptr
      000821 F0               [24] 2413 	movx	@dptr,a
      000822 90 00 7D         [24] 2414 	mov	dptr,#(0x7D&0x00ff)
      000825 E4               [12] 2415 	clr	a
      000826 F5 F0            [12] 2416 	mov	b,a
      000828 12r00r00         [24] 2417 	lcall	__mullong
      00082B 02r00r00         [24] 2418 	ljmp	_packet_set_serial_speed
                                   2419 	.area CSEG    (CODE)
                                   2420 	.area CONST   (CODE)
      000000                       2421 _serial_rates:
      000000 01                    2422 	.db #0x01	; 1
      000001 2C                    2423 	.db #0x2C	; 44
      000002 02                    2424 	.db #0x02	; 2
      000003 02                    2425 	.db #0x02	; 2
      000004 96                    2426 	.db #0x96	; 150
      000005 02                    2427 	.db #0x02	; 2
      000006 04                    2428 	.db #0x04	; 4
      000007 2C                    2429 	.db #0x2C	; 44
      000008 00                    2430 	.db #0x00	; 0
      000009 09                    2431 	.db #0x09	; 9
      00000A 96                    2432 	.db #0x96	; 150
      00000B 00                    2433 	.db #0x00	; 0
      00000C 13                    2434 	.db #0x13	; 19
      00000D 60                    2435 	.db #0x60	; 96
      00000E 01                    2436 	.db #0x01	; 1
      00000F 26                    2437 	.db #0x26	; 38
      000010 B0                    2438 	.db #0xB0	; 176
      000011 01                    2439 	.db #0x01	; 1
      000012 39                    2440 	.db #0x39	; 57	'9'
      000013 2B                    2441 	.db #0x2B	; 43
      000014 08                    2442 	.db #0x08	; 8
      000015 73                    2443 	.db #0x73	; 115	's'
      000016 96                    2444 	.db #0x96	; 150
      000017 08                    2445 	.db #0x08	; 8
      000018 E6                    2446 	.db #0xE6	; 230
      000019 CB                    2447 	.db #0xCB	; 203
      00001A 08                    2448 	.db #0x08	; 8
                                   2449 	.area XINIT   (CODE)
      000000                       2450 __xinit__rx_buf:
      000000 00                    2451 	.db #0x00	; 0
      000001 00                    2452 	.db 0x00
      000002 00                    2453 	.db 0x00
      000003 00                    2454 	.db 0x00
      000004 00                    2455 	.db 0x00
      000005 00                    2456 	.db 0x00
      000006 00                    2457 	.db 0x00
      000007 00                    2458 	.db 0x00
      000008 00                    2459 	.db 0x00
      000009 00                    2460 	.db 0x00
      00000A 00                    2461 	.db 0x00
      00000B 00                    2462 	.db 0x00
      00000C 00                    2463 	.db 0x00
      00000D 00                    2464 	.db 0x00
      00000E 00                    2465 	.db 0x00
      00000F 00                    2466 	.db 0x00
      000010 00                    2467 	.db 0x00
      000011 00                    2468 	.db 0x00
      000012 00                    2469 	.db 0x00
      000013 00                    2470 	.db 0x00
      000014 00                    2471 	.db 0x00
      000015 00                    2472 	.db 0x00
      000016 00                    2473 	.db 0x00
      000017 00                    2474 	.db 0x00
      000018 00                    2475 	.db 0x00
      000019 00                    2476 	.db 0x00
      00001A 00                    2477 	.db 0x00
      00001B 00                    2478 	.db 0x00
      00001C 00                    2479 	.db 0x00
      00001D 00                    2480 	.db 0x00
      00001E 00                    2481 	.db 0x00
      00001F 00                    2482 	.db 0x00
      000020 00                    2483 	.db 0x00
      000021 00                    2484 	.db 0x00
      000022 00                    2485 	.db 0x00
      000023 00                    2486 	.db 0x00
      000024 00                    2487 	.db 0x00
      000025 00                    2488 	.db 0x00
      000026 00                    2489 	.db 0x00
      000027 00                    2490 	.db 0x00
      000028 00                    2491 	.db 0x00
      000029 00                    2492 	.db 0x00
      00002A 00                    2493 	.db 0x00
      00002B 00                    2494 	.db 0x00
      00002C 00                    2495 	.db 0x00
      00002D 00                    2496 	.db 0x00
      00002E 00                    2497 	.db 0x00
      00002F 00                    2498 	.db 0x00
      000030 00                    2499 	.db 0x00
      000031 00                    2500 	.db 0x00
      000032 00                    2501 	.db 0x00
      000033 00                    2502 	.db 0x00
      000034 00                    2503 	.db 0x00
      000035 00                    2504 	.db 0x00
      000036 00                    2505 	.db 0x00
      000037 00                    2506 	.db 0x00
      000038 00                    2507 	.db 0x00
      000039 00                    2508 	.db 0x00
      00003A 00                    2509 	.db 0x00
      00003B 00                    2510 	.db 0x00
      00003C 00                    2511 	.db 0x00
      00003D 00                    2512 	.db 0x00
      00003E 00                    2513 	.db 0x00
      00003F 00                    2514 	.db 0x00
      000040 00                    2515 	.db 0x00
      000041 00                    2516 	.db 0x00
      000042 00                    2517 	.db 0x00
      000043 00                    2518 	.db 0x00
      000044 00                    2519 	.db 0x00
      000045 00                    2520 	.db 0x00
      000046 00                    2521 	.db 0x00
      000047 00                    2522 	.db 0x00
      000048 00                    2523 	.db 0x00
      000049 00                    2524 	.db 0x00
      00004A 00                    2525 	.db 0x00
      00004B 00                    2526 	.db 0x00
      00004C 00                    2527 	.db 0x00
      00004D 00                    2528 	.db 0x00
      00004E 00                    2529 	.db 0x00
      00004F 00                    2530 	.db 0x00
      000050 00                    2531 	.db 0x00
      000051 00                    2532 	.db 0x00
      000052 00                    2533 	.db 0x00
      000053 00                    2534 	.db 0x00
      000054 00                    2535 	.db 0x00
      000055 00                    2536 	.db 0x00
      000056 00                    2537 	.db 0x00
      000057 00                    2538 	.db 0x00
      000058 00                    2539 	.db 0x00
      000059 00                    2540 	.db 0x00
      00005A 00                    2541 	.db 0x00
      00005B 00                    2542 	.db 0x00
      00005C 00                    2543 	.db 0x00
      00005D 00                    2544 	.db 0x00
      00005E 00                    2545 	.db 0x00
      00005F 00                    2546 	.db 0x00
      000060 00                    2547 	.db 0x00
      000061 00                    2548 	.db 0x00
      000062 00                    2549 	.db 0x00
      000063 00                    2550 	.db 0x00
      000064 00                    2551 	.db 0x00
      000065 00                    2552 	.db 0x00
      000066 00                    2553 	.db 0x00
      000067 00                    2554 	.db 0x00
      000068 00                    2555 	.db 0x00
      000069 00                    2556 	.db 0x00
      00006A 00                    2557 	.db 0x00
      00006B 00                    2558 	.db 0x00
      00006C 00                    2559 	.db 0x00
      00006D 00                    2560 	.db 0x00
      00006E 00                    2561 	.db 0x00
      00006F 00                    2562 	.db 0x00
      000070 00                    2563 	.db 0x00
      000071 00                    2564 	.db 0x00
      000072 00                    2565 	.db 0x00
      000073 00                    2566 	.db 0x00
      000074 00                    2567 	.db 0x00
      000075 00                    2568 	.db 0x00
      000076 00                    2569 	.db 0x00
      000077 00                    2570 	.db 0x00
      000078 00                    2571 	.db 0x00
      000079 00                    2572 	.db 0x00
      00007A 00                    2573 	.db 0x00
      00007B 00                    2574 	.db 0x00
      00007C 00                    2575 	.db 0x00
      00007D 00                    2576 	.db 0x00
      00007E 00                    2577 	.db 0x00
      00007F 00                    2578 	.db 0x00
      000080 00                    2579 	.db 0x00
      000081 00                    2580 	.db 0x00
      000082 00                    2581 	.db 0x00
      000083 00                    2582 	.db 0x00
      000084 00                    2583 	.db 0x00
      000085 00                    2584 	.db 0x00
      000086 00                    2585 	.db 0x00
      000087 00                    2586 	.db 0x00
      000088 00                    2587 	.db 0x00
      000089 00                    2588 	.db 0x00
      00008A 00                    2589 	.db 0x00
      00008B 00                    2590 	.db 0x00
      00008C 00                    2591 	.db 0x00
      00008D 00                    2592 	.db 0x00
      00008E 00                    2593 	.db 0x00
      00008F 00                    2594 	.db 0x00
      000090 00                    2595 	.db 0x00
      000091 00                    2596 	.db 0x00
      000092 00                    2597 	.db 0x00
      000093 00                    2598 	.db 0x00
      000094 00                    2599 	.db 0x00
      000095 00                    2600 	.db 0x00
      000096 00                    2601 	.db 0x00
      000097 00                    2602 	.db 0x00
      000098 00                    2603 	.db 0x00
      000099 00                    2604 	.db 0x00
      00009A 00                    2605 	.db 0x00
      00009B 00                    2606 	.db 0x00
      00009C 00                    2607 	.db 0x00
      00009D 00                    2608 	.db 0x00
      00009E 00                    2609 	.db 0x00
      00009F 00                    2610 	.db 0x00
      0000A0 00                    2611 	.db 0x00
      0000A1 00                    2612 	.db 0x00
      0000A2 00                    2613 	.db 0x00
      0000A3 00                    2614 	.db 0x00
      0000A4 00                    2615 	.db 0x00
      0000A5 00                    2616 	.db 0x00
      0000A6 00                    2617 	.db 0x00
      0000A7 00                    2618 	.db 0x00
      0000A8 00                    2619 	.db 0x00
      0000A9 00                    2620 	.db 0x00
      0000AA 00                    2621 	.db 0x00
      0000AB 00                    2622 	.db 0x00
      0000AC 00                    2623 	.db 0x00
      0000AD 00                    2624 	.db 0x00
      0000AE 00                    2625 	.db 0x00
      0000AF 00                    2626 	.db 0x00
      0000B0 00                    2627 	.db 0x00
      0000B1 00                    2628 	.db 0x00
      0000B2 00                    2629 	.db 0x00
      0000B3 00                    2630 	.db 0x00
      0000B4 00                    2631 	.db 0x00
      0000B5 00                    2632 	.db 0x00
      0000B6 00                    2633 	.db 0x00
      0000B7 00                    2634 	.db 0x00
      0000B8 00                    2635 	.db 0x00
      0000B9 00                    2636 	.db 0x00
      0000BA 00                    2637 	.db 0x00
      0000BB 00                    2638 	.db 0x00
      0000BC 00                    2639 	.db 0x00
      0000BD 00                    2640 	.db 0x00
      0000BE 00                    2641 	.db 0x00
      0000BF 00                    2642 	.db 0x00
      0000C0 00                    2643 	.db 0x00
      0000C1 00                    2644 	.db 0x00
      0000C2 00                    2645 	.db 0x00
      0000C3 00                    2646 	.db 0x00
      0000C4 00                    2647 	.db 0x00
      0000C5 00                    2648 	.db 0x00
      0000C6 00                    2649 	.db 0x00
      0000C7 00                    2650 	.db 0x00
      0000C8 00                    2651 	.db 0x00
      0000C9 00                    2652 	.db 0x00
      0000CA 00                    2653 	.db 0x00
      0000CB 00                    2654 	.db 0x00
      0000CC 00                    2655 	.db 0x00
      0000CD 00                    2656 	.db 0x00
      0000CE 00                    2657 	.db 0x00
      0000CF 00                    2658 	.db 0x00
      0000D0 00                    2659 	.db 0x00
      0000D1 00                    2660 	.db 0x00
      0000D2 00                    2661 	.db 0x00
      0000D3 00                    2662 	.db 0x00
      0000D4 00                    2663 	.db 0x00
      0000D5 00                    2664 	.db 0x00
      0000D6 00                    2665 	.db 0x00
      0000D7 00                    2666 	.db 0x00
      0000D8 00                    2667 	.db 0x00
      0000D9 00                    2668 	.db 0x00
      0000DA 00                    2669 	.db 0x00
      0000DB 00                    2670 	.db 0x00
      0000DC 00                    2671 	.db 0x00
      0000DD 00                    2672 	.db 0x00
      0000DE 00                    2673 	.db 0x00
      0000DF 00                    2674 	.db 0x00
      0000E0 00                    2675 	.db 0x00
      0000E1 00                    2676 	.db 0x00
      0000E2 00                    2677 	.db 0x00
      0000E3 00                    2678 	.db 0x00
      0000E4 00                    2679 	.db 0x00
      0000E5 00                    2680 	.db 0x00
      0000E6 00                    2681 	.db 0x00
      0000E7 00                    2682 	.db 0x00
      0000E8 00                    2683 	.db 0x00
      0000E9 00                    2684 	.db 0x00
      0000EA 00                    2685 	.db 0x00
      0000EB 00                    2686 	.db 0x00
      0000EC 00                    2687 	.db 0x00
      0000ED 00                    2688 	.db 0x00
      0000EE 00                    2689 	.db 0x00
      0000EF 00                    2690 	.db 0x00
      0000F0 00                    2691 	.db 0x00
      0000F1 00                    2692 	.db 0x00
      0000F2 00                    2693 	.db 0x00
      0000F3 00                    2694 	.db 0x00
      0000F4 00                    2695 	.db 0x00
      0000F5 00                    2696 	.db 0x00
      0000F6 00                    2697 	.db 0x00
      0000F7 00                    2698 	.db 0x00
      0000F8 00                    2699 	.db 0x00
      0000F9 00                    2700 	.db 0x00
      0000FA 00                    2701 	.db 0x00
      0000FB 00                    2702 	.db 0x00
      0000FC 00                    2703 	.db 0x00
      0000FD 00                    2704 	.db 0x00
      0000FE 00                    2705 	.db 0x00
      0000FF 00                    2706 	.db 0x00
      000100 00                    2707 	.db 0x00
      000101 00                    2708 	.db 0x00
      000102 00                    2709 	.db 0x00
      000103 00                    2710 	.db 0x00
      000104 00                    2711 	.db 0x00
      000105 00                    2712 	.db 0x00
      000106 00                    2713 	.db 0x00
      000107 00                    2714 	.db 0x00
      000108 00                    2715 	.db 0x00
      000109 00                    2716 	.db 0x00
      00010A 00                    2717 	.db 0x00
      00010B 00                    2718 	.db 0x00
      00010C 00                    2719 	.db 0x00
      00010D 00                    2720 	.db 0x00
      00010E 00                    2721 	.db 0x00
      00010F 00                    2722 	.db 0x00
      000110 00                    2723 	.db 0x00
      000111 00                    2724 	.db 0x00
      000112 00                    2725 	.db 0x00
      000113 00                    2726 	.db 0x00
      000114 00                    2727 	.db 0x00
      000115 00                    2728 	.db 0x00
      000116 00                    2729 	.db 0x00
      000117 00                    2730 	.db 0x00
      000118 00                    2731 	.db 0x00
      000119 00                    2732 	.db 0x00
      00011A 00                    2733 	.db 0x00
      00011B 00                    2734 	.db 0x00
      00011C 00                    2735 	.db 0x00
      00011D 00                    2736 	.db 0x00
      00011E 00                    2737 	.db 0x00
      00011F 00                    2738 	.db 0x00
      000120 00                    2739 	.db 0x00
      000121 00                    2740 	.db 0x00
      000122 00                    2741 	.db 0x00
      000123 00                    2742 	.db 0x00
      000124 00                    2743 	.db 0x00
      000125 00                    2744 	.db 0x00
      000126 00                    2745 	.db 0x00
      000127 00                    2746 	.db 0x00
      000128 00                    2747 	.db 0x00
      000129 00                    2748 	.db 0x00
      00012A 00                    2749 	.db 0x00
      00012B 00                    2750 	.db 0x00
      00012C 00                    2751 	.db 0x00
      00012D 00                    2752 	.db 0x00
      00012E 00                    2753 	.db 0x00
      00012F 00                    2754 	.db 0x00
      000130 00                    2755 	.db 0x00
      000131 00                    2756 	.db 0x00
      000132 00                    2757 	.db 0x00
      000133 00                    2758 	.db 0x00
      000134 00                    2759 	.db 0x00
      000135 00                    2760 	.db 0x00
      000136 00                    2761 	.db 0x00
      000137 00                    2762 	.db 0x00
      000138 00                    2763 	.db 0x00
      000139 00                    2764 	.db 0x00
      00013A 00                    2765 	.db 0x00
      00013B 00                    2766 	.db 0x00
      00013C 00                    2767 	.db 0x00
      00013D 00                    2768 	.db 0x00
      00013E 00                    2769 	.db 0x00
      00013F 00                    2770 	.db 0x00
      000140 00                    2771 	.db 0x00
      000141 00                    2772 	.db 0x00
      000142 00                    2773 	.db 0x00
      000143 00                    2774 	.db 0x00
      000144 00                    2775 	.db 0x00
      000145 00                    2776 	.db 0x00
      000146 00                    2777 	.db 0x00
      000147 00                    2778 	.db 0x00
      000148 00                    2779 	.db 0x00
      000149 00                    2780 	.db 0x00
      00014A 00                    2781 	.db 0x00
      00014B 00                    2782 	.db 0x00
      00014C 00                    2783 	.db 0x00
      00014D 00                    2784 	.db 0x00
      00014E 00                    2785 	.db 0x00
      00014F 00                    2786 	.db 0x00
      000150 00                    2787 	.db 0x00
      000151 00                    2788 	.db 0x00
      000152 00                    2789 	.db 0x00
      000153 00                    2790 	.db 0x00
      000154 00                    2791 	.db 0x00
      000155 00                    2792 	.db 0x00
      000156 00                    2793 	.db 0x00
      000157 00                    2794 	.db 0x00
      000158 00                    2795 	.db 0x00
      000159 00                    2796 	.db 0x00
      00015A 00                    2797 	.db 0x00
      00015B 00                    2798 	.db 0x00
      00015C 00                    2799 	.db 0x00
      00015D 00                    2800 	.db 0x00
      00015E 00                    2801 	.db 0x00
      00015F 00                    2802 	.db 0x00
      000160 00                    2803 	.db 0x00
      000161 00                    2804 	.db 0x00
      000162 00                    2805 	.db 0x00
      000163 00                    2806 	.db 0x00
      000164 00                    2807 	.db 0x00
      000165 00                    2808 	.db 0x00
      000166 00                    2809 	.db 0x00
      000167 00                    2810 	.db 0x00
      000168 00                    2811 	.db 0x00
      000169 00                    2812 	.db 0x00
      00016A 00                    2813 	.db 0x00
      00016B 00                    2814 	.db 0x00
      00016C 00                    2815 	.db 0x00
      00016D 00                    2816 	.db 0x00
      00016E 00                    2817 	.db 0x00
      00016F 00                    2818 	.db 0x00
      000170 00                    2819 	.db 0x00
      000171 00                    2820 	.db 0x00
      000172 00                    2821 	.db 0x00
      000173 00                    2822 	.db 0x00
      000174 00                    2823 	.db 0x00
      000175 00                    2824 	.db 0x00
      000176 00                    2825 	.db 0x00
      000177 00                    2826 	.db 0x00
      000178 00                    2827 	.db 0x00
      000179 00                    2828 	.db 0x00
      00017A 00                    2829 	.db 0x00
      00017B 00                    2830 	.db 0x00
      00017C 00                    2831 	.db 0x00
      00017D 00                    2832 	.db 0x00
      00017E 00                    2833 	.db 0x00
      00017F 00                    2834 	.db 0x00
      000180 00                    2835 	.db 0x00
      000181 00                    2836 	.db 0x00
      000182 00                    2837 	.db 0x00
      000183 00                    2838 	.db 0x00
      000184 00                    2839 	.db 0x00
      000185 00                    2840 	.db 0x00
      000186 00                    2841 	.db 0x00
      000187 00                    2842 	.db 0x00
      000188 00                    2843 	.db 0x00
      000189 00                    2844 	.db 0x00
      00018A 00                    2845 	.db 0x00
      00018B 00                    2846 	.db 0x00
      00018C 00                    2847 	.db 0x00
      00018D 00                    2848 	.db 0x00
      00018E 00                    2849 	.db 0x00
      00018F 00                    2850 	.db 0x00
      000190 00                    2851 	.db 0x00
      000191 00                    2852 	.db 0x00
      000192 00                    2853 	.db 0x00
      000193 00                    2854 	.db 0x00
      000194 00                    2855 	.db 0x00
      000195 00                    2856 	.db 0x00
      000196 00                    2857 	.db 0x00
      000197 00                    2858 	.db 0x00
      000198 00                    2859 	.db 0x00
      000199 00                    2860 	.db 0x00
      00019A 00                    2861 	.db 0x00
      00019B 00                    2862 	.db 0x00
      00019C 00                    2863 	.db 0x00
      00019D 00                    2864 	.db 0x00
      00019E 00                    2865 	.db 0x00
      00019F 00                    2866 	.db 0x00
      0001A0 00                    2867 	.db 0x00
      0001A1 00                    2868 	.db 0x00
      0001A2 00                    2869 	.db 0x00
      0001A3 00                    2870 	.db 0x00
      0001A4 00                    2871 	.db 0x00
      0001A5 00                    2872 	.db 0x00
      0001A6 00                    2873 	.db 0x00
      0001A7 00                    2874 	.db 0x00
      0001A8 00                    2875 	.db 0x00
      0001A9 00                    2876 	.db 0x00
      0001AA 00                    2877 	.db 0x00
      0001AB 00                    2878 	.db 0x00
      0001AC 00                    2879 	.db 0x00
      0001AD 00                    2880 	.db 0x00
      0001AE 00                    2881 	.db 0x00
      0001AF 00                    2882 	.db 0x00
      0001B0 00                    2883 	.db 0x00
      0001B1 00                    2884 	.db 0x00
      0001B2 00                    2885 	.db 0x00
      0001B3 00                    2886 	.db 0x00
      0001B4 00                    2887 	.db 0x00
      0001B5 00                    2888 	.db 0x00
      0001B6 00                    2889 	.db 0x00
      0001B7 00                    2890 	.db 0x00
      0001B8 00                    2891 	.db 0x00
      0001B9 00                    2892 	.db 0x00
      0001BA 00                    2893 	.db 0x00
      0001BB 00                    2894 	.db 0x00
      0001BC 00                    2895 	.db 0x00
      0001BD 00                    2896 	.db 0x00
      0001BE 00                    2897 	.db 0x00
      0001BF 00                    2898 	.db 0x00
      0001C0 00                    2899 	.db 0x00
      0001C1 00                    2900 	.db 0x00
      0001C2 00                    2901 	.db 0x00
      0001C3 00                    2902 	.db 0x00
      0001C4 00                    2903 	.db 0x00
      0001C5 00                    2904 	.db 0x00
      0001C6 00                    2905 	.db 0x00
      0001C7 00                    2906 	.db 0x00
      0001C8 00                    2907 	.db 0x00
      0001C9 00                    2908 	.db 0x00
      0001CA 00                    2909 	.db 0x00
      0001CB 00                    2910 	.db 0x00
      0001CC 00                    2911 	.db 0x00
      0001CD 00                    2912 	.db 0x00
      0001CE 00                    2913 	.db 0x00
      0001CF 00                    2914 	.db 0x00
      0001D0 00                    2915 	.db 0x00
      0001D1 00                    2916 	.db 0x00
      0001D2 00                    2917 	.db 0x00
      0001D3 00                    2918 	.db 0x00
      0001D4 00                    2919 	.db 0x00
      0001D5 00                    2920 	.db 0x00
      0001D6 00                    2921 	.db 0x00
      0001D7 00                    2922 	.db 0x00
      0001D8 00                    2923 	.db 0x00
      0001D9 00                    2924 	.db 0x00
      0001DA 00                    2925 	.db 0x00
      0001DB 00                    2926 	.db 0x00
      0001DC 00                    2927 	.db 0x00
      0001DD 00                    2928 	.db 0x00
      0001DE 00                    2929 	.db 0x00
      0001DF 00                    2930 	.db 0x00
      0001E0 00                    2931 	.db 0x00
      0001E1 00                    2932 	.db 0x00
      0001E2 00                    2933 	.db 0x00
      0001E3 00                    2934 	.db 0x00
      0001E4 00                    2935 	.db 0x00
      0001E5 00                    2936 	.db 0x00
      0001E6 00                    2937 	.db 0x00
      0001E7 00                    2938 	.db 0x00
      0001E8 00                    2939 	.db 0x00
      0001E9 00                    2940 	.db 0x00
      0001EA 00                    2941 	.db 0x00
      0001EB 00                    2942 	.db 0x00
      0001EC 00                    2943 	.db 0x00
      0001ED 00                    2944 	.db 0x00
      0001EE 00                    2945 	.db 0x00
      0001EF 00                    2946 	.db 0x00
      0001F0 00                    2947 	.db 0x00
      0001F1 00                    2948 	.db 0x00
      0001F2 00                    2949 	.db 0x00
      0001F3 00                    2950 	.db 0x00
      0001F4 00                    2951 	.db 0x00
      0001F5 00                    2952 	.db 0x00
      0001F6 00                    2953 	.db 0x00
      0001F7 00                    2954 	.db 0x00
      0001F8 00                    2955 	.db 0x00
      0001F9 00                    2956 	.db 0x00
      0001FA 00                    2957 	.db 0x00
      0001FB 00                    2958 	.db 0x00
      0001FC 00                    2959 	.db 0x00
      0001FD 00                    2960 	.db 0x00
      0001FE 00                    2961 	.db 0x00
      0001FF 00                    2962 	.db 0x00
      000200 00                    2963 	.db 0x00
      000201 00                    2964 	.db 0x00
      000202 00                    2965 	.db 0x00
      000203 00                    2966 	.db 0x00
      000204 00                    2967 	.db 0x00
      000205 00                    2968 	.db 0x00
      000206 00                    2969 	.db 0x00
      000207 00                    2970 	.db 0x00
      000208 00                    2971 	.db 0x00
      000209 00                    2972 	.db 0x00
      00020A 00                    2973 	.db 0x00
      00020B 00                    2974 	.db 0x00
      00020C 00                    2975 	.db 0x00
      00020D 00                    2976 	.db 0x00
      00020E 00                    2977 	.db 0x00
      00020F 00                    2978 	.db 0x00
      000210 00                    2979 	.db 0x00
      000211 00                    2980 	.db 0x00
      000212 00                    2981 	.db 0x00
      000213 00                    2982 	.db 0x00
      000214 00                    2983 	.db 0x00
      000215 00                    2984 	.db 0x00
      000216 00                    2985 	.db 0x00
      000217 00                    2986 	.db 0x00
      000218 00                    2987 	.db 0x00
      000219 00                    2988 	.db 0x00
      00021A 00                    2989 	.db 0x00
      00021B 00                    2990 	.db 0x00
      00021C 00                    2991 	.db 0x00
      00021D 00                    2992 	.db 0x00
      00021E 00                    2993 	.db 0x00
      00021F 00                    2994 	.db 0x00
      000220 00                    2995 	.db 0x00
      000221 00                    2996 	.db 0x00
      000222 00                    2997 	.db 0x00
      000223 00                    2998 	.db 0x00
      000224 00                    2999 	.db 0x00
      000225 00                    3000 	.db 0x00
      000226 00                    3001 	.db 0x00
      000227 00                    3002 	.db 0x00
      000228 00                    3003 	.db 0x00
      000229 00                    3004 	.db 0x00
      00022A 00                    3005 	.db 0x00
      00022B 00                    3006 	.db 0x00
      00022C 00                    3007 	.db 0x00
      00022D 00                    3008 	.db 0x00
      00022E 00                    3009 	.db 0x00
      00022F 00                    3010 	.db 0x00
      000230 00                    3011 	.db 0x00
      000231 00                    3012 	.db 0x00
      000232 00                    3013 	.db 0x00
      000233 00                    3014 	.db 0x00
      000234 00                    3015 	.db 0x00
      000235 00                    3016 	.db 0x00
      000236 00                    3017 	.db 0x00
      000237 00                    3018 	.db 0x00
      000238 00                    3019 	.db 0x00
      000239 00                    3020 	.db 0x00
      00023A 00                    3021 	.db 0x00
      00023B 00                    3022 	.db 0x00
      00023C 00                    3023 	.db 0x00
      00023D 00                    3024 	.db 0x00
      00023E 00                    3025 	.db 0x00
      00023F 00                    3026 	.db 0x00
      000240 00                    3027 	.db 0x00
      000241 00                    3028 	.db 0x00
      000242 00                    3029 	.db 0x00
      000243 00                    3030 	.db 0x00
      000244 00                    3031 	.db 0x00
      000245 00                    3032 	.db 0x00
      000246 00                    3033 	.db 0x00
      000247 00                    3034 	.db 0x00
      000248 00                    3035 	.db 0x00
      000249 00                    3036 	.db 0x00
      00024A 00                    3037 	.db 0x00
      00024B 00                    3038 	.db 0x00
      00024C 00                    3039 	.db 0x00
      00024D 00                    3040 	.db 0x00
      00024E 00                    3041 	.db 0x00
      00024F 00                    3042 	.db 0x00
      000250 00                    3043 	.db 0x00
      000251 00                    3044 	.db 0x00
      000252 00                    3045 	.db 0x00
      000253 00                    3046 	.db 0x00
      000254 00                    3047 	.db 0x00
      000255 00                    3048 	.db 0x00
      000256 00                    3049 	.db 0x00
      000257 00                    3050 	.db 0x00
      000258 00                    3051 	.db 0x00
      000259 00                    3052 	.db 0x00
      00025A 00                    3053 	.db 0x00
      00025B 00                    3054 	.db 0x00
      00025C 00                    3055 	.db 0x00
      00025D 00                    3056 	.db 0x00
      00025E 00                    3057 	.db 0x00
      00025F 00                    3058 	.db 0x00
      000260 00                    3059 	.db 0x00
      000261 00                    3060 	.db 0x00
      000262 00                    3061 	.db 0x00
      000263 00                    3062 	.db 0x00
      000264 00                    3063 	.db 0x00
      000265 00                    3064 	.db 0x00
      000266 00                    3065 	.db 0x00
      000267 00                    3066 	.db 0x00
      000268 00                    3067 	.db 0x00
      000269 00                    3068 	.db 0x00
      00026A 00                    3069 	.db 0x00
      00026B 00                    3070 	.db 0x00
      00026C 00                    3071 	.db 0x00
      00026D 00                    3072 	.db 0x00
      00026E 00                    3073 	.db 0x00
      00026F 00                    3074 	.db 0x00
      000270 00                    3075 	.db 0x00
      000271 00                    3076 	.db 0x00
      000272 00                    3077 	.db 0x00
      000273 00                    3078 	.db 0x00
      000274 00                    3079 	.db 0x00
      000275 00                    3080 	.db 0x00
      000276 00                    3081 	.db 0x00
      000277 00                    3082 	.db 0x00
      000278 00                    3083 	.db 0x00
      000279 00                    3084 	.db 0x00
      00027A 00                    3085 	.db 0x00
      00027B 00                    3086 	.db 0x00
      00027C 00                    3087 	.db 0x00
      00027D 00                    3088 	.db 0x00
      00027E 00                    3089 	.db 0x00
      00027F 00                    3090 	.db 0x00
      000280 00                    3091 	.db 0x00
      000281 00                    3092 	.db 0x00
      000282 00                    3093 	.db 0x00
      000283 00                    3094 	.db 0x00
      000284 00                    3095 	.db 0x00
      000285 00                    3096 	.db 0x00
      000286 00                    3097 	.db 0x00
      000287 00                    3098 	.db 0x00
      000288 00                    3099 	.db 0x00
      000289 00                    3100 	.db 0x00
      00028A 00                    3101 	.db 0x00
      00028B 00                    3102 	.db 0x00
      00028C 00                    3103 	.db 0x00
      00028D 00                    3104 	.db 0x00
      00028E 00                    3105 	.db 0x00
      00028F 00                    3106 	.db 0x00
      000290 00                    3107 	.db 0x00
      000291 00                    3108 	.db 0x00
      000292 00                    3109 	.db 0x00
      000293 00                    3110 	.db 0x00
      000294 00                    3111 	.db 0x00
      000295 00                    3112 	.db 0x00
      000296 00                    3113 	.db 0x00
      000297 00                    3114 	.db 0x00
      000298 00                    3115 	.db 0x00
      000299 00                    3116 	.db 0x00
      00029A 00                    3117 	.db 0x00
      00029B 00                    3118 	.db 0x00
      00029C 00                    3119 	.db 0x00
      00029D 00                    3120 	.db 0x00
      00029E 00                    3121 	.db 0x00
      00029F 00                    3122 	.db 0x00
      0002A0 00                    3123 	.db 0x00
      0002A1 00                    3124 	.db 0x00
      0002A2 00                    3125 	.db 0x00
      0002A3 00                    3126 	.db 0x00
      0002A4 00                    3127 	.db 0x00
      0002A5 00                    3128 	.db 0x00
      0002A6 00                    3129 	.db 0x00
      0002A7 00                    3130 	.db 0x00
      0002A8 00                    3131 	.db 0x00
      0002A9 00                    3132 	.db 0x00
      0002AA 00                    3133 	.db 0x00
      0002AB 00                    3134 	.db 0x00
      0002AC 00                    3135 	.db 0x00
      0002AD 00                    3136 	.db 0x00
      0002AE 00                    3137 	.db 0x00
      0002AF 00                    3138 	.db 0x00
      0002B0 00                    3139 	.db 0x00
      0002B1 00                    3140 	.db 0x00
      0002B2 00                    3141 	.db 0x00
      0002B3 00                    3142 	.db 0x00
      0002B4 00                    3143 	.db 0x00
      0002B5 00                    3144 	.db 0x00
      0002B6 00                    3145 	.db 0x00
      0002B7 00                    3146 	.db 0x00
      0002B8 00                    3147 	.db 0x00
      0002B9 00                    3148 	.db 0x00
      0002BA 00                    3149 	.db 0x00
      0002BB 00                    3150 	.db 0x00
      0002BC 00                    3151 	.db 0x00
      0002BD 00                    3152 	.db 0x00
      0002BE 00                    3153 	.db 0x00
      0002BF 00                    3154 	.db 0x00
      0002C0 00                    3155 	.db 0x00
      0002C1 00                    3156 	.db 0x00
      0002C2 00                    3157 	.db 0x00
      0002C3 00                    3158 	.db 0x00
      0002C4 00                    3159 	.db 0x00
      0002C5 00                    3160 	.db 0x00
      0002C6 00                    3161 	.db 0x00
      0002C7 00                    3162 	.db 0x00
      0002C8 00                    3163 	.db 0x00
      0002C9 00                    3164 	.db 0x00
      0002CA 00                    3165 	.db 0x00
      0002CB 00                    3166 	.db 0x00
      0002CC 00                    3167 	.db 0x00
      0002CD 00                    3168 	.db 0x00
      0002CE 00                    3169 	.db 0x00
      0002CF 00                    3170 	.db 0x00
      0002D0 00                    3171 	.db 0x00
      0002D1 00                    3172 	.db 0x00
      0002D2 00                    3173 	.db 0x00
      0002D3 00                    3174 	.db 0x00
      0002D4 00                    3175 	.db 0x00
      0002D5 00                    3176 	.db 0x00
      0002D6 00                    3177 	.db 0x00
      0002D7 00                    3178 	.db 0x00
      0002D8 00                    3179 	.db 0x00
      0002D9 00                    3180 	.db 0x00
      0002DA 00                    3181 	.db 0x00
      0002DB 00                    3182 	.db 0x00
      0002DC 00                    3183 	.db 0x00
      0002DD 00                    3184 	.db 0x00
      0002DE 00                    3185 	.db 0x00
      0002DF 00                    3186 	.db 0x00
      0002E0 00                    3187 	.db 0x00
      0002E1 00                    3188 	.db 0x00
      0002E2 00                    3189 	.db 0x00
      0002E3 00                    3190 	.db 0x00
      0002E4 00                    3191 	.db 0x00
      0002E5 00                    3192 	.db 0x00
      0002E6 00                    3193 	.db 0x00
      0002E7 00                    3194 	.db 0x00
      0002E8 00                    3195 	.db 0x00
      0002E9 00                    3196 	.db 0x00
      0002EA 00                    3197 	.db 0x00
      0002EB 00                    3198 	.db 0x00
      0002EC 00                    3199 	.db 0x00
      0002ED 00                    3200 	.db 0x00
      0002EE 00                    3201 	.db 0x00
      0002EF 00                    3202 	.db 0x00
      0002F0 00                    3203 	.db 0x00
      0002F1 00                    3204 	.db 0x00
      0002F2 00                    3205 	.db 0x00
      0002F3 00                    3206 	.db 0x00
      0002F4 00                    3207 	.db 0x00
      0002F5 00                    3208 	.db 0x00
      0002F6 00                    3209 	.db 0x00
      0002F7 00                    3210 	.db 0x00
      0002F8 00                    3211 	.db 0x00
      0002F9 00                    3212 	.db 0x00
      0002FA 00                    3213 	.db 0x00
      0002FB 00                    3214 	.db 0x00
      0002FC 00                    3215 	.db 0x00
      0002FD 00                    3216 	.db 0x00
      0002FE 00                    3217 	.db 0x00
      0002FF 00                    3218 	.db 0x00
      000300 00                    3219 	.db 0x00
      000301 00                    3220 	.db 0x00
      000302 00                    3221 	.db 0x00
      000303 00                    3222 	.db 0x00
      000304 00                    3223 	.db 0x00
      000305 00                    3224 	.db 0x00
      000306 00                    3225 	.db 0x00
      000307 00                    3226 	.db 0x00
      000308 00                    3227 	.db 0x00
      000309 00                    3228 	.db 0x00
      00030A 00                    3229 	.db 0x00
      00030B 00                    3230 	.db 0x00
      00030C 00                    3231 	.db 0x00
      00030D 00                    3232 	.db 0x00
      00030E 00                    3233 	.db 0x00
      00030F 00                    3234 	.db 0x00
      000310 00                    3235 	.db 0x00
      000311 00                    3236 	.db 0x00
      000312 00                    3237 	.db 0x00
      000313 00                    3238 	.db 0x00
      000314 00                    3239 	.db 0x00
      000315 00                    3240 	.db 0x00
      000316 00                    3241 	.db 0x00
      000317 00                    3242 	.db 0x00
      000318 00                    3243 	.db 0x00
      000319 00                    3244 	.db 0x00
      00031A 00                    3245 	.db 0x00
      00031B 00                    3246 	.db 0x00
      00031C 00                    3247 	.db 0x00
      00031D 00                    3248 	.db 0x00
      00031E 00                    3249 	.db 0x00
      00031F 00                    3250 	.db 0x00
      000320 00                    3251 	.db 0x00
      000321 00                    3252 	.db 0x00
      000322 00                    3253 	.db 0x00
      000323 00                    3254 	.db 0x00
      000324 00                    3255 	.db 0x00
      000325 00                    3256 	.db 0x00
      000326 00                    3257 	.db 0x00
      000327 00                    3258 	.db 0x00
      000328 00                    3259 	.db 0x00
      000329 00                    3260 	.db 0x00
      00032A 00                    3261 	.db 0x00
      00032B 00                    3262 	.db 0x00
      00032C 00                    3263 	.db 0x00
      00032D 00                    3264 	.db 0x00
      00032E 00                    3265 	.db 0x00
      00032F 00                    3266 	.db 0x00
      000330 00                    3267 	.db 0x00
      000331 00                    3268 	.db 0x00
      000332 00                    3269 	.db 0x00
      000333 00                    3270 	.db 0x00
      000334 00                    3271 	.db 0x00
      000335 00                    3272 	.db 0x00
      000336 00                    3273 	.db 0x00
      000337 00                    3274 	.db 0x00
      000338 00                    3275 	.db 0x00
      000339 00                    3276 	.db 0x00
      00033A 00                    3277 	.db 0x00
      00033B 00                    3278 	.db 0x00
      00033C 00                    3279 	.db 0x00
      00033D 00                    3280 	.db 0x00
      00033E 00                    3281 	.db 0x00
      00033F 00                    3282 	.db 0x00
      000340 00                    3283 	.db 0x00
      000341 00                    3284 	.db 0x00
      000342 00                    3285 	.db 0x00
      000343 00                    3286 	.db 0x00
      000344 00                    3287 	.db 0x00
      000345 00                    3288 	.db 0x00
      000346 00                    3289 	.db 0x00
      000347 00                    3290 	.db 0x00
      000348 00                    3291 	.db 0x00
      000349 00                    3292 	.db 0x00
      00034A 00                    3293 	.db 0x00
      00034B 00                    3294 	.db 0x00
      00034C 00                    3295 	.db 0x00
      00034D 00                    3296 	.db 0x00
      00034E 00                    3297 	.db 0x00
      00034F 00                    3298 	.db 0x00
      000350 00                    3299 	.db 0x00
      000351 00                    3300 	.db 0x00
      000352 00                    3301 	.db 0x00
      000353 00                    3302 	.db 0x00
      000354 00                    3303 	.db 0x00
      000355 00                    3304 	.db 0x00
      000356 00                    3305 	.db 0x00
      000357 00                    3306 	.db 0x00
      000358 00                    3307 	.db 0x00
      000359 00                    3308 	.db 0x00
      00035A 00                    3309 	.db 0x00
      00035B 00                    3310 	.db 0x00
      00035C 00                    3311 	.db 0x00
      00035D 00                    3312 	.db 0x00
      00035E 00                    3313 	.db 0x00
      00035F 00                    3314 	.db 0x00
      000360 00                    3315 	.db 0x00
      000361 00                    3316 	.db 0x00
      000362 00                    3317 	.db 0x00
      000363 00                    3318 	.db 0x00
      000364 00                    3319 	.db 0x00
      000365 00                    3320 	.db 0x00
      000366 00                    3321 	.db 0x00
      000367 00                    3322 	.db 0x00
      000368 00                    3323 	.db 0x00
      000369 00                    3324 	.db 0x00
      00036A 00                    3325 	.db 0x00
      00036B 00                    3326 	.db 0x00
      00036C 00                    3327 	.db 0x00
      00036D 00                    3328 	.db 0x00
      00036E 00                    3329 	.db 0x00
      00036F 00                    3330 	.db 0x00
      000370 00                    3331 	.db 0x00
      000371 00                    3332 	.db 0x00
      000372 00                    3333 	.db 0x00
      000373 00                    3334 	.db 0x00
      000374 00                    3335 	.db 0x00
      000375 00                    3336 	.db 0x00
      000376 00                    3337 	.db 0x00
      000377 00                    3338 	.db 0x00
      000378 00                    3339 	.db 0x00
      000379 00                    3340 	.db 0x00
      00037A 00                    3341 	.db 0x00
      00037B 00                    3342 	.db 0x00
      00037C 00                    3343 	.db 0x00
      00037D 00                    3344 	.db 0x00
      00037E 00                    3345 	.db 0x00
      00037F 00                    3346 	.db 0x00
      000380 00                    3347 	.db 0x00
      000381 00                    3348 	.db 0x00
      000382 00                    3349 	.db 0x00
      000383 00                    3350 	.db 0x00
      000384 00                    3351 	.db 0x00
      000385 00                    3352 	.db 0x00
      000386 00                    3353 	.db 0x00
      000387 00                    3354 	.db 0x00
      000388 00                    3355 	.db 0x00
      000389 00                    3356 	.db 0x00
      00038A 00                    3357 	.db 0x00
      00038B 00                    3358 	.db 0x00
      00038C 00                    3359 	.db 0x00
      00038D 00                    3360 	.db 0x00
      00038E 00                    3361 	.db 0x00
      00038F 00                    3362 	.db 0x00
      000390 00                    3363 	.db 0x00
      000391 00                    3364 	.db 0x00
      000392 00                    3365 	.db 0x00
      000393 00                    3366 	.db 0x00
      000394 00                    3367 	.db 0x00
      000395 00                    3368 	.db 0x00
      000396 00                    3369 	.db 0x00
      000397 00                    3370 	.db 0x00
      000398 00                    3371 	.db 0x00
      000399 00                    3372 	.db 0x00
      00039A 00                    3373 	.db 0x00
      00039B 00                    3374 	.db 0x00
      00039C 00                    3375 	.db 0x00
      00039D 00                    3376 	.db 0x00
      00039E 00                    3377 	.db 0x00
      00039F 00                    3378 	.db 0x00
      0003A0 00                    3379 	.db 0x00
      0003A1 00                    3380 	.db 0x00
      0003A2 00                    3381 	.db 0x00
      0003A3 00                    3382 	.db 0x00
      0003A4 00                    3383 	.db 0x00
      0003A5 00                    3384 	.db 0x00
      0003A6 00                    3385 	.db 0x00
      0003A7 00                    3386 	.db 0x00
      0003A8 00                    3387 	.db 0x00
      0003A9 00                    3388 	.db 0x00
      0003AA 00                    3389 	.db 0x00
      0003AB 00                    3390 	.db 0x00
      0003AC 00                    3391 	.db 0x00
      0003AD 00                    3392 	.db 0x00
      0003AE 00                    3393 	.db 0x00
      0003AF 00                    3394 	.db 0x00
      0003B0 00                    3395 	.db 0x00
      0003B1 00                    3396 	.db 0x00
      0003B2 00                    3397 	.db 0x00
      0003B3 00                    3398 	.db 0x00
      0003B4 00                    3399 	.db 0x00
      0003B5 00                    3400 	.db 0x00
      0003B6 00                    3401 	.db 0x00
      0003B7 00                    3402 	.db 0x00
      0003B8 00                    3403 	.db 0x00
      0003B9 00                    3404 	.db 0x00
      0003BA 00                    3405 	.db 0x00
      0003BB 00                    3406 	.db 0x00
      0003BC 00                    3407 	.db 0x00
      0003BD 00                    3408 	.db 0x00
      0003BE 00                    3409 	.db 0x00
      0003BF 00                    3410 	.db 0x00
      0003C0 00                    3411 	.db 0x00
      0003C1 00                    3412 	.db 0x00
      0003C2 00                    3413 	.db 0x00
      0003C3 00                    3414 	.db 0x00
      0003C4 00                    3415 	.db 0x00
      0003C5 00                    3416 	.db 0x00
      0003C6 00                    3417 	.db 0x00
      0003C7 00                    3418 	.db 0x00
      0003C8 00                    3419 	.db 0x00
      0003C9 00                    3420 	.db 0x00
      0003CA 00                    3421 	.db 0x00
      0003CB 00                    3422 	.db 0x00
      0003CC 00                    3423 	.db 0x00
      0003CD 00                    3424 	.db 0x00
      0003CE 00                    3425 	.db 0x00
      0003CF 00                    3426 	.db 0x00
      0003D0 00                    3427 	.db 0x00
      0003D1 00                    3428 	.db 0x00
      0003D2 00                    3429 	.db 0x00
      0003D3 00                    3430 	.db 0x00
      0003D4 00                    3431 	.db 0x00
      0003D5 00                    3432 	.db 0x00
      0003D6 00                    3433 	.db 0x00
      0003D7 00                    3434 	.db 0x00
      0003D8 00                    3435 	.db 0x00
      0003D9 00                    3436 	.db 0x00
      0003DA 00                    3437 	.db 0x00
      0003DB 00                    3438 	.db 0x00
      0003DC 00                    3439 	.db 0x00
      0003DD 00                    3440 	.db 0x00
      0003DE 00                    3441 	.db 0x00
      0003DF 00                    3442 	.db 0x00
      0003E0 00                    3443 	.db 0x00
      0003E1 00                    3444 	.db 0x00
      0003E2 00                    3445 	.db 0x00
      0003E3 00                    3446 	.db 0x00
      0003E4 00                    3447 	.db 0x00
      0003E5 00                    3448 	.db 0x00
      0003E6 00                    3449 	.db 0x00
      0003E7 00                    3450 	.db 0x00
      0003E8 00                    3451 	.db 0x00
      0003E9 00                    3452 	.db 0x00
      0003EA 00                    3453 	.db 0x00
      0003EB 00                    3454 	.db 0x00
      0003EC 00                    3455 	.db 0x00
      0003ED 00                    3456 	.db 0x00
      0003EE 00                    3457 	.db 0x00
      0003EF 00                    3458 	.db 0x00
      0003F0 00                    3459 	.db 0x00
      0003F1 00                    3460 	.db 0x00
      0003F2 00                    3461 	.db 0x00
      0003F3 00                    3462 	.db 0x00
      0003F4 00                    3463 	.db 0x00
      0003F5 00                    3464 	.db 0x00
      0003F6 00                    3465 	.db 0x00
      0003F7 00                    3466 	.db 0x00
      0003F8 00                    3467 	.db 0x00
      0003F9 00                    3468 	.db 0x00
      0003FA 00                    3469 	.db 0x00
      0003FB 00                    3470 	.db 0x00
      0003FC 00                    3471 	.db 0x00
      0003FD 00                    3472 	.db 0x00
      0003FE 00                    3473 	.db 0x00
      0003FF 00                    3474 	.db 0x00
      000400 00                    3475 	.db 0x00
      000401 00                    3476 	.db 0x00
      000402 00                    3477 	.db 0x00
      000403 00                    3478 	.db 0x00
      000404 00                    3479 	.db 0x00
      000405 00                    3480 	.db 0x00
      000406 00                    3481 	.db 0x00
      000407 00                    3482 	.db 0x00
      000408 00                    3483 	.db 0x00
      000409 00                    3484 	.db 0x00
      00040A 00                    3485 	.db 0x00
      00040B 00                    3486 	.db 0x00
      00040C 00                    3487 	.db 0x00
      00040D 00                    3488 	.db 0x00
      00040E 00                    3489 	.db 0x00
      00040F 00                    3490 	.db 0x00
      000410 00                    3491 	.db 0x00
      000411 00                    3492 	.db 0x00
      000412 00                    3493 	.db 0x00
      000413 00                    3494 	.db 0x00
      000414 00                    3495 	.db 0x00
      000415 00                    3496 	.db 0x00
      000416 00                    3497 	.db 0x00
      000417 00                    3498 	.db 0x00
      000418 00                    3499 	.db 0x00
      000419 00                    3500 	.db 0x00
      00041A 00                    3501 	.db 0x00
      00041B 00                    3502 	.db 0x00
      00041C 00                    3503 	.db 0x00
      00041D 00                    3504 	.db 0x00
      00041E 00                    3505 	.db 0x00
      00041F 00                    3506 	.db 0x00
      000420 00                    3507 	.db 0x00
      000421 00                    3508 	.db 0x00
      000422 00                    3509 	.db 0x00
      000423 00                    3510 	.db 0x00
      000424 00                    3511 	.db 0x00
      000425 00                    3512 	.db 0x00
      000426 00                    3513 	.db 0x00
      000427 00                    3514 	.db 0x00
      000428 00                    3515 	.db 0x00
      000429 00                    3516 	.db 0x00
      00042A 00                    3517 	.db 0x00
      00042B 00                    3518 	.db 0x00
      00042C 00                    3519 	.db 0x00
      00042D 00                    3520 	.db 0x00
      00042E 00                    3521 	.db 0x00
      00042F 00                    3522 	.db 0x00
      000430 00                    3523 	.db 0x00
      000431 00                    3524 	.db 0x00
      000432 00                    3525 	.db 0x00
      000433 00                    3526 	.db 0x00
      000434 00                    3527 	.db 0x00
      000435 00                    3528 	.db 0x00
      000436 00                    3529 	.db 0x00
      000437 00                    3530 	.db 0x00
      000438 00                    3531 	.db 0x00
      000439 00                    3532 	.db 0x00
      00043A 00                    3533 	.db 0x00
      00043B 00                    3534 	.db 0x00
      00043C 00                    3535 	.db 0x00
      00043D 00                    3536 	.db 0x00
      00043E 00                    3537 	.db 0x00
      00043F 00                    3538 	.db 0x00
      000440 00                    3539 	.db 0x00
      000441 00                    3540 	.db 0x00
      000442 00                    3541 	.db 0x00
      000443 00                    3542 	.db 0x00
      000444 00                    3543 	.db 0x00
      000445 00                    3544 	.db 0x00
      000446 00                    3545 	.db 0x00
      000447 00                    3546 	.db 0x00
      000448 00                    3547 	.db 0x00
      000449 00                    3548 	.db 0x00
      00044A 00                    3549 	.db 0x00
      00044B 00                    3550 	.db 0x00
      00044C 00                    3551 	.db 0x00
      00044D 00                    3552 	.db 0x00
      00044E 00                    3553 	.db 0x00
      00044F 00                    3554 	.db 0x00
      000450 00                    3555 	.db 0x00
      000451 00                    3556 	.db 0x00
      000452 00                    3557 	.db 0x00
      000453 00                    3558 	.db 0x00
      000454 00                    3559 	.db 0x00
      000455 00                    3560 	.db 0x00
      000456 00                    3561 	.db 0x00
      000457 00                    3562 	.db 0x00
      000458 00                    3563 	.db 0x00
      000459 00                    3564 	.db 0x00
      00045A 00                    3565 	.db 0x00
      00045B 00                    3566 	.db 0x00
      00045C 00                    3567 	.db 0x00
      00045D 00                    3568 	.db 0x00
      00045E 00                    3569 	.db 0x00
      00045F 00                    3570 	.db 0x00
      000460 00                    3571 	.db 0x00
      000461 00                    3572 	.db 0x00
      000462 00                    3573 	.db 0x00
      000463 00                    3574 	.db 0x00
      000464 00                    3575 	.db 0x00
      000465 00                    3576 	.db 0x00
      000466 00                    3577 	.db 0x00
      000467 00                    3578 	.db 0x00
      000468 00                    3579 	.db 0x00
      000469 00                    3580 	.db 0x00
      00046A 00                    3581 	.db 0x00
      00046B 00                    3582 	.db 0x00
      00046C 00                    3583 	.db 0x00
      00046D 00                    3584 	.db 0x00
      00046E 00                    3585 	.db 0x00
      00046F 00                    3586 	.db 0x00
      000470 00                    3587 	.db 0x00
      000471 00                    3588 	.db 0x00
      000472 00                    3589 	.db 0x00
      000473 00                    3590 	.db 0x00
      000474 00                    3591 	.db 0x00
      000475 00                    3592 	.db 0x00
      000476 00                    3593 	.db 0x00
      000477 00                    3594 	.db 0x00
      000478 00                    3595 	.db 0x00
      000479 00                    3596 	.db 0x00
      00047A 00                    3597 	.db 0x00
      00047B 00                    3598 	.db 0x00
      00047C 00                    3599 	.db 0x00
      00047D 00                    3600 	.db 0x00
      00047E 00                    3601 	.db 0x00
      00047F 00                    3602 	.db 0x00
      000480 00                    3603 	.db 0x00
      000481 00                    3604 	.db 0x00
      000482 00                    3605 	.db 0x00
      000483 00                    3606 	.db 0x00
      000484 00                    3607 	.db 0x00
      000485 00                    3608 	.db 0x00
      000486 00                    3609 	.db 0x00
      000487 00                    3610 	.db 0x00
      000488 00                    3611 	.db 0x00
      000489 00                    3612 	.db 0x00
      00048A 00                    3613 	.db 0x00
      00048B 00                    3614 	.db 0x00
      00048C 00                    3615 	.db 0x00
      00048D 00                    3616 	.db 0x00
      00048E 00                    3617 	.db 0x00
      00048F 00                    3618 	.db 0x00
      000490 00                    3619 	.db 0x00
      000491 00                    3620 	.db 0x00
      000492 00                    3621 	.db 0x00
      000493 00                    3622 	.db 0x00
      000494 00                    3623 	.db 0x00
      000495 00                    3624 	.db 0x00
      000496 00                    3625 	.db 0x00
      000497 00                    3626 	.db 0x00
      000498 00                    3627 	.db 0x00
      000499 00                    3628 	.db 0x00
      00049A 00                    3629 	.db 0x00
      00049B 00                    3630 	.db 0x00
      00049C 00                    3631 	.db 0x00
      00049D 00                    3632 	.db 0x00
      00049E 00                    3633 	.db 0x00
      00049F 00                    3634 	.db 0x00
      0004A0 00                    3635 	.db 0x00
      0004A1 00                    3636 	.db 0x00
      0004A2 00                    3637 	.db 0x00
      0004A3 00                    3638 	.db 0x00
      0004A4 00                    3639 	.db 0x00
      0004A5 00                    3640 	.db 0x00
      0004A6 00                    3641 	.db 0x00
      0004A7 00                    3642 	.db 0x00
      0004A8 00                    3643 	.db 0x00
      0004A9 00                    3644 	.db 0x00
      0004AA 00                    3645 	.db 0x00
      0004AB 00                    3646 	.db 0x00
      0004AC 00                    3647 	.db 0x00
      0004AD 00                    3648 	.db 0x00
      0004AE 00                    3649 	.db 0x00
      0004AF 00                    3650 	.db 0x00
      0004B0 00                    3651 	.db 0x00
      0004B1 00                    3652 	.db 0x00
      0004B2 00                    3653 	.db 0x00
      0004B3 00                    3654 	.db 0x00
      0004B4 00                    3655 	.db 0x00
      0004B5 00                    3656 	.db 0x00
      0004B6 00                    3657 	.db 0x00
      0004B7 00                    3658 	.db 0x00
      0004B8 00                    3659 	.db 0x00
      0004B9 00                    3660 	.db 0x00
      0004BA 00                    3661 	.db 0x00
      0004BB 00                    3662 	.db 0x00
      0004BC 00                    3663 	.db 0x00
      0004BD 00                    3664 	.db 0x00
      0004BE 00                    3665 	.db 0x00
      0004BF 00                    3666 	.db 0x00
      0004C0 00                    3667 	.db 0x00
      0004C1 00                    3668 	.db 0x00
      0004C2 00                    3669 	.db 0x00
      0004C3 00                    3670 	.db 0x00
      0004C4 00                    3671 	.db 0x00
      0004C5 00                    3672 	.db 0x00
      0004C6 00                    3673 	.db 0x00
      0004C7 00                    3674 	.db 0x00
      0004C8 00                    3675 	.db 0x00
      0004C9 00                    3676 	.db 0x00
      0004CA 00                    3677 	.db 0x00
      0004CB 00                    3678 	.db 0x00
      0004CC 00                    3679 	.db 0x00
      0004CD 00                    3680 	.db 0x00
      0004CE 00                    3681 	.db 0x00
      0004CF 00                    3682 	.db 0x00
      0004D0 00                    3683 	.db 0x00
      0004D1 00                    3684 	.db 0x00
      0004D2 00                    3685 	.db 0x00
      0004D3 00                    3686 	.db 0x00
      0004D4 00                    3687 	.db 0x00
      0004D5 00                    3688 	.db 0x00
      0004D6 00                    3689 	.db 0x00
      0004D7 00                    3690 	.db 0x00
      0004D8 00                    3691 	.db 0x00
      0004D9 00                    3692 	.db 0x00
      0004DA 00                    3693 	.db 0x00
      0004DB 00                    3694 	.db 0x00
      0004DC 00                    3695 	.db 0x00
      0004DD 00                    3696 	.db 0x00
      0004DE 00                    3697 	.db 0x00
      0004DF 00                    3698 	.db 0x00
      0004E0 00                    3699 	.db 0x00
      0004E1 00                    3700 	.db 0x00
      0004E2 00                    3701 	.db 0x00
      0004E3 00                    3702 	.db 0x00
      0004E4 00                    3703 	.db 0x00
      0004E5 00                    3704 	.db 0x00
      0004E6 00                    3705 	.db 0x00
      0004E7 00                    3706 	.db 0x00
      0004E8 00                    3707 	.db 0x00
      0004E9 00                    3708 	.db 0x00
      0004EA 00                    3709 	.db 0x00
      0004EB 00                    3710 	.db 0x00
      0004EC 00                    3711 	.db 0x00
      0004ED 00                    3712 	.db 0x00
      0004EE 00                    3713 	.db 0x00
      0004EF 00                    3714 	.db 0x00
      0004F0 00                    3715 	.db 0x00
      0004F1 00                    3716 	.db 0x00
      0004F2 00                    3717 	.db 0x00
      0004F3 00                    3718 	.db 0x00
      0004F4 00                    3719 	.db 0x00
      0004F5 00                    3720 	.db 0x00
      0004F6 00                    3721 	.db 0x00
      0004F7 00                    3722 	.db 0x00
      0004F8 00                    3723 	.db 0x00
      0004F9 00                    3724 	.db 0x00
      0004FA 00                    3725 	.db 0x00
      0004FB 00                    3726 	.db 0x00
      0004FC 00                    3727 	.db 0x00
      0004FD 00                    3728 	.db 0x00
      0004FE 00                    3729 	.db 0x00
      0004FF 00                    3730 	.db 0x00
      000500 00                    3731 	.db 0x00
      000501 00                    3732 	.db 0x00
      000502 00                    3733 	.db 0x00
      000503 00                    3734 	.db 0x00
      000504 00                    3735 	.db 0x00
      000505 00                    3736 	.db 0x00
      000506 00                    3737 	.db 0x00
      000507 00                    3738 	.db 0x00
      000508 00                    3739 	.db 0x00
      000509 00                    3740 	.db 0x00
      00050A 00                    3741 	.db 0x00
      00050B 00                    3742 	.db 0x00
      00050C 00                    3743 	.db 0x00
      00050D 00                    3744 	.db 0x00
      00050E 00                    3745 	.db 0x00
      00050F 00                    3746 	.db 0x00
      000510 00                    3747 	.db 0x00
      000511 00                    3748 	.db 0x00
      000512 00                    3749 	.db 0x00
      000513 00                    3750 	.db 0x00
      000514 00                    3751 	.db 0x00
      000515 00                    3752 	.db 0x00
      000516 00                    3753 	.db 0x00
      000517 00                    3754 	.db 0x00
      000518 00                    3755 	.db 0x00
      000519 00                    3756 	.db 0x00
      00051A 00                    3757 	.db 0x00
      00051B 00                    3758 	.db 0x00
      00051C 00                    3759 	.db 0x00
      00051D 00                    3760 	.db 0x00
      00051E 00                    3761 	.db 0x00
      00051F 00                    3762 	.db 0x00
      000520 00                    3763 	.db 0x00
      000521 00                    3764 	.db 0x00
      000522 00                    3765 	.db 0x00
      000523 00                    3766 	.db 0x00
      000524 00                    3767 	.db 0x00
      000525 00                    3768 	.db 0x00
      000526 00                    3769 	.db 0x00
      000527 00                    3770 	.db 0x00
      000528 00                    3771 	.db 0x00
      000529 00                    3772 	.db 0x00
      00052A 00                    3773 	.db 0x00
      00052B 00                    3774 	.db 0x00
      00052C 00                    3775 	.db 0x00
      00052D 00                    3776 	.db 0x00
      00052E 00                    3777 	.db 0x00
      00052F 00                    3778 	.db 0x00
      000530 00                    3779 	.db 0x00
      000531 00                    3780 	.db 0x00
      000532 00                    3781 	.db 0x00
      000533 00                    3782 	.db 0x00
      000534 00                    3783 	.db 0x00
      000535 00                    3784 	.db 0x00
      000536 00                    3785 	.db 0x00
      000537 00                    3786 	.db 0x00
      000538 00                    3787 	.db 0x00
      000539 00                    3788 	.db 0x00
      00053A 00                    3789 	.db 0x00
      00053B 00                    3790 	.db 0x00
      00053C 00                    3791 	.db 0x00
      00053D 00                    3792 	.db 0x00
      00053E 00                    3793 	.db 0x00
      00053F 00                    3794 	.db 0x00
      000540 00                    3795 	.db 0x00
      000541 00                    3796 	.db 0x00
      000542 00                    3797 	.db 0x00
      000543 00                    3798 	.db 0x00
      000544 00                    3799 	.db 0x00
      000545 00                    3800 	.db 0x00
      000546 00                    3801 	.db 0x00
      000547 00                    3802 	.db 0x00
      000548 00                    3803 	.db 0x00
      000549 00                    3804 	.db 0x00
      00054A 00                    3805 	.db 0x00
      00054B 00                    3806 	.db 0x00
      00054C 00                    3807 	.db 0x00
      00054D 00                    3808 	.db 0x00
      00054E 00                    3809 	.db 0x00
      00054F 00                    3810 	.db 0x00
      000550 00                    3811 	.db 0x00
      000551 00                    3812 	.db 0x00
      000552 00                    3813 	.db 0x00
      000553 00                    3814 	.db 0x00
      000554 00                    3815 	.db 0x00
      000555 00                    3816 	.db 0x00
      000556 00                    3817 	.db 0x00
      000557 00                    3818 	.db 0x00
      000558 00                    3819 	.db 0x00
      000559 00                    3820 	.db 0x00
      00055A 00                    3821 	.db 0x00
      00055B 00                    3822 	.db 0x00
      00055C 00                    3823 	.db 0x00
      00055D 00                    3824 	.db 0x00
      00055E 00                    3825 	.db 0x00
      00055F 00                    3826 	.db 0x00
      000560 00                    3827 	.db 0x00
      000561 00                    3828 	.db 0x00
      000562 00                    3829 	.db 0x00
      000563 00                    3830 	.db 0x00
      000564 00                    3831 	.db 0x00
      000565 00                    3832 	.db 0x00
      000566 00                    3833 	.db 0x00
      000567 00                    3834 	.db 0x00
      000568 00                    3835 	.db 0x00
      000569 00                    3836 	.db 0x00
      00056A 00                    3837 	.db 0x00
      00056B 00                    3838 	.db 0x00
      00056C 00                    3839 	.db 0x00
      00056D 00                    3840 	.db 0x00
      00056E 00                    3841 	.db 0x00
      00056F 00                    3842 	.db 0x00
      000570 00                    3843 	.db 0x00
      000571 00                    3844 	.db 0x00
      000572 00                    3845 	.db 0x00
      000573 00                    3846 	.db 0x00
      000574 00                    3847 	.db 0x00
      000575 00                    3848 	.db 0x00
      000576 00                    3849 	.db 0x00
      000577 00                    3850 	.db 0x00
      000578 00                    3851 	.db 0x00
      000579 00                    3852 	.db 0x00
      00057A 00                    3853 	.db 0x00
      00057B 00                    3854 	.db 0x00
      00057C 00                    3855 	.db 0x00
      00057D 00                    3856 	.db 0x00
      00057E 00                    3857 	.db 0x00
      00057F 00                    3858 	.db 0x00
      000580 00                    3859 	.db 0x00
      000581 00                    3860 	.db 0x00
      000582 00                    3861 	.db 0x00
      000583 00                    3862 	.db 0x00
      000584 00                    3863 	.db 0x00
      000585 00                    3864 	.db 0x00
      000586 00                    3865 	.db 0x00
      000587 00                    3866 	.db 0x00
      000588 00                    3867 	.db 0x00
      000589 00                    3868 	.db 0x00
      00058A 00                    3869 	.db 0x00
      00058B 00                    3870 	.db 0x00
      00058C 00                    3871 	.db 0x00
      00058D 00                    3872 	.db 0x00
      00058E 00                    3873 	.db 0x00
      00058F 00                    3874 	.db 0x00
      000590 00                    3875 	.db 0x00
      000591 00                    3876 	.db 0x00
      000592 00                    3877 	.db 0x00
      000593 00                    3878 	.db 0x00
      000594 00                    3879 	.db 0x00
      000595 00                    3880 	.db 0x00
      000596 00                    3881 	.db 0x00
      000597 00                    3882 	.db 0x00
      000598 00                    3883 	.db 0x00
      000599 00                    3884 	.db 0x00
      00059A 00                    3885 	.db 0x00
      00059B 00                    3886 	.db 0x00
      00059C 00                    3887 	.db 0x00
      00059D 00                    3888 	.db 0x00
      00059E 00                    3889 	.db 0x00
      00059F 00                    3890 	.db 0x00
      0005A0 00                    3891 	.db 0x00
      0005A1 00                    3892 	.db 0x00
      0005A2 00                    3893 	.db 0x00
      0005A3 00                    3894 	.db 0x00
      0005A4 00                    3895 	.db 0x00
      0005A5 00                    3896 	.db 0x00
      0005A6 00                    3897 	.db 0x00
      0005A7 00                    3898 	.db 0x00
      0005A8 00                    3899 	.db 0x00
      0005A9 00                    3900 	.db 0x00
      0005AA 00                    3901 	.db 0x00
      0005AB 00                    3902 	.db 0x00
      0005AC 00                    3903 	.db 0x00
      0005AD 00                    3904 	.db 0x00
      0005AE 00                    3905 	.db 0x00
      0005AF 00                    3906 	.db 0x00
      0005B0 00                    3907 	.db 0x00
      0005B1 00                    3908 	.db 0x00
      0005B2 00                    3909 	.db 0x00
      0005B3 00                    3910 	.db 0x00
      0005B4 00                    3911 	.db 0x00
      0005B5 00                    3912 	.db 0x00
      0005B6 00                    3913 	.db 0x00
      0005B7 00                    3914 	.db 0x00
      0005B8 00                    3915 	.db 0x00
      0005B9 00                    3916 	.db 0x00
      0005BA 00                    3917 	.db 0x00
      0005BB 00                    3918 	.db 0x00
      0005BC 00                    3919 	.db 0x00
      0005BD 00                    3920 	.db 0x00
      0005BE 00                    3921 	.db 0x00
      0005BF 00                    3922 	.db 0x00
      0005C0 00                    3923 	.db 0x00
      0005C1 00                    3924 	.db 0x00
      0005C2 00                    3925 	.db 0x00
      0005C3 00                    3926 	.db 0x00
      0005C4 00                    3927 	.db 0x00
      0005C5 00                    3928 	.db 0x00
      0005C6 00                    3929 	.db 0x00
      0005C7 00                    3930 	.db 0x00
      0005C8 00                    3931 	.db 0x00
      0005C9 00                    3932 	.db 0x00
      0005CA 00                    3933 	.db 0x00
      0005CB 00                    3934 	.db 0x00
      0005CC 00                    3935 	.db 0x00
      0005CD 00                    3936 	.db 0x00
      0005CE 00                    3937 	.db 0x00
      0005CF 00                    3938 	.db 0x00
      0005D0 00                    3939 	.db 0x00
      0005D1 00                    3940 	.db 0x00
      0005D2 00                    3941 	.db 0x00
      0005D3 00                    3942 	.db 0x00
      0005D4 00                    3943 	.db 0x00
      0005D5 00                    3944 	.db 0x00
      0005D6 00                    3945 	.db 0x00
      0005D7 00                    3946 	.db 0x00
      0005D8 00                    3947 	.db 0x00
      0005D9 00                    3948 	.db 0x00
      0005DA 00                    3949 	.db 0x00
      0005DB 00                    3950 	.db 0x00
      0005DC 00                    3951 	.db 0x00
      0005DD 00                    3952 	.db 0x00
      0005DE 00                    3953 	.db 0x00
      0005DF 00                    3954 	.db 0x00
      0005E0 00                    3955 	.db 0x00
      0005E1 00                    3956 	.db 0x00
      0005E2 00                    3957 	.db 0x00
      0005E3 00                    3958 	.db 0x00
      0005E4 00                    3959 	.db 0x00
      0005E5 00                    3960 	.db 0x00
      0005E6 00                    3961 	.db 0x00
      0005E7 00                    3962 	.db 0x00
      0005E8 00                    3963 	.db 0x00
      0005E9 00                    3964 	.db 0x00
      0005EA 00                    3965 	.db 0x00
      0005EB 00                    3966 	.db 0x00
      0005EC 00                    3967 	.db 0x00
      0005ED 00                    3968 	.db 0x00
      0005EE 00                    3969 	.db 0x00
      0005EF 00                    3970 	.db 0x00
      0005F0 00                    3971 	.db 0x00
      0005F1 00                    3972 	.db 0x00
      0005F2 00                    3973 	.db 0x00
      0005F3 00                    3974 	.db 0x00
      0005F4 00                    3975 	.db 0x00
      0005F5 00                    3976 	.db 0x00
      0005F6 00                    3977 	.db 0x00
      0005F7 00                    3978 	.db 0x00
      0005F8 00                    3979 	.db 0x00
      0005F9 00                    3980 	.db 0x00
      0005FA 00                    3981 	.db 0x00
      0005FB 00                    3982 	.db 0x00
      0005FC 00                    3983 	.db 0x00
      0005FD 00                    3984 	.db 0x00
      0005FE 00                    3985 	.db 0x00
      0005FF 00                    3986 	.db 0x00
      000600 00                    3987 	.db 0x00
      000601 00                    3988 	.db 0x00
      000602 00                    3989 	.db 0x00
      000603 00                    3990 	.db 0x00
      000604 00                    3991 	.db 0x00
      000605 00                    3992 	.db 0x00
      000606 00                    3993 	.db 0x00
      000607 00                    3994 	.db 0x00
      000608 00                    3995 	.db 0x00
      000609 00                    3996 	.db 0x00
      00060A 00                    3997 	.db 0x00
      00060B 00                    3998 	.db 0x00
      00060C 00                    3999 	.db 0x00
      00060D 00                    4000 	.db 0x00
      00060E 00                    4001 	.db 0x00
      00060F 00                    4002 	.db 0x00
      000610 00                    4003 	.db 0x00
      000611 00                    4004 	.db 0x00
      000612 00                    4005 	.db 0x00
      000613 00                    4006 	.db 0x00
      000614 00                    4007 	.db 0x00
      000615 00                    4008 	.db 0x00
      000616 00                    4009 	.db 0x00
      000617 00                    4010 	.db 0x00
      000618 00                    4011 	.db 0x00
      000619 00                    4012 	.db 0x00
      00061A 00                    4013 	.db 0x00
      00061B 00                    4014 	.db 0x00
      00061C 00                    4015 	.db 0x00
      00061D 00                    4016 	.db 0x00
      00061E 00                    4017 	.db 0x00
      00061F 00                    4018 	.db 0x00
      000620 00                    4019 	.db 0x00
      000621 00                    4020 	.db 0x00
      000622 00                    4021 	.db 0x00
      000623 00                    4022 	.db 0x00
      000624 00                    4023 	.db 0x00
      000625 00                    4024 	.db 0x00
      000626 00                    4025 	.db 0x00
      000627 00                    4026 	.db 0x00
      000628 00                    4027 	.db 0x00
      000629 00                    4028 	.db 0x00
      00062A 00                    4029 	.db 0x00
      00062B 00                    4030 	.db 0x00
      00062C 00                    4031 	.db 0x00
      00062D 00                    4032 	.db 0x00
      00062E 00                    4033 	.db 0x00
      00062F 00                    4034 	.db 0x00
      000630 00                    4035 	.db 0x00
      000631 00                    4036 	.db 0x00
      000632 00                    4037 	.db 0x00
      000633 00                    4038 	.db 0x00
      000634 00                    4039 	.db 0x00
      000635 00                    4040 	.db 0x00
      000636 00                    4041 	.db 0x00
      000637 00                    4042 	.db 0x00
      000638 00                    4043 	.db 0x00
      000639 00                    4044 	.db 0x00
      00063A 00                    4045 	.db 0x00
      00063B 00                    4046 	.db 0x00
      00063C 00                    4047 	.db 0x00
      00063D 00                    4048 	.db 0x00
      00063E 00                    4049 	.db 0x00
      00063F 00                    4050 	.db 0x00
      000640 00                    4051 	.db 0x00
      000641 00                    4052 	.db 0x00
      000642 00                    4053 	.db 0x00
      000643 00                    4054 	.db 0x00
      000644 00                    4055 	.db 0x00
      000645 00                    4056 	.db 0x00
      000646 00                    4057 	.db 0x00
      000647 00                    4058 	.db 0x00
      000648 00                    4059 	.db 0x00
      000649 00                    4060 	.db 0x00
      00064A 00                    4061 	.db 0x00
      00064B 00                    4062 	.db 0x00
      00064C 00                    4063 	.db 0x00
      00064D 00                    4064 	.db 0x00
      00064E 00                    4065 	.db 0x00
      00064F 00                    4066 	.db 0x00
      000650 00                    4067 	.db 0x00
      000651 00                    4068 	.db 0x00
      000652 00                    4069 	.db 0x00
      000653 00                    4070 	.db 0x00
      000654 00                    4071 	.db 0x00
      000655 00                    4072 	.db 0x00
      000656 00                    4073 	.db 0x00
      000657 00                    4074 	.db 0x00
      000658 00                    4075 	.db 0x00
      000659 00                    4076 	.db 0x00
      00065A 00                    4077 	.db 0x00
      00065B 00                    4078 	.db 0x00
      00065C 00                    4079 	.db 0x00
      00065D 00                    4080 	.db 0x00
      00065E 00                    4081 	.db 0x00
      00065F 00                    4082 	.db 0x00
      000660 00                    4083 	.db 0x00
      000661 00                    4084 	.db 0x00
      000662 00                    4085 	.db 0x00
      000663 00                    4086 	.db 0x00
      000664 00                    4087 	.db 0x00
      000665 00                    4088 	.db 0x00
      000666 00                    4089 	.db 0x00
      000667 00                    4090 	.db 0x00
      000668 00                    4091 	.db 0x00
      000669 00                    4092 	.db 0x00
      00066A 00                    4093 	.db 0x00
      00066B 00                    4094 	.db 0x00
      00066C 00                    4095 	.db 0x00
      00066D 00                    4096 	.db 0x00
      00066E 00                    4097 	.db 0x00
      00066F 00                    4098 	.db 0x00
      000670 00                    4099 	.db 0x00
      000671 00                    4100 	.db 0x00
      000672 00                    4101 	.db 0x00
      000673 00                    4102 	.db 0x00
      000674 00                    4103 	.db 0x00
      000675 00                    4104 	.db 0x00
      000676 00                    4105 	.db 0x00
      000677 00                    4106 	.db 0x00
      000678 00                    4107 	.db 0x00
      000679 00                    4108 	.db 0x00
      00067A 00                    4109 	.db 0x00
      00067B 00                    4110 	.db 0x00
      00067C 00                    4111 	.db 0x00
      00067D 00                    4112 	.db 0x00
      00067E 00                    4113 	.db 0x00
      00067F 00                    4114 	.db 0x00
      000680 00                    4115 	.db 0x00
      000681 00                    4116 	.db 0x00
      000682 00                    4117 	.db 0x00
      000683 00                    4118 	.db 0x00
      000684 00                    4119 	.db 0x00
      000685 00                    4120 	.db 0x00
      000686 00                    4121 	.db 0x00
      000687 00                    4122 	.db 0x00
      000688 00                    4123 	.db 0x00
      000689 00                    4124 	.db 0x00
      00068A 00                    4125 	.db 0x00
      00068B 00                    4126 	.db 0x00
      00068C 00                    4127 	.db 0x00
      00068D 00                    4128 	.db 0x00
      00068E 00                    4129 	.db 0x00
      00068F 00                    4130 	.db 0x00
      000690 00                    4131 	.db 0x00
      000691 00                    4132 	.db 0x00
      000692 00                    4133 	.db 0x00
      000693 00                    4134 	.db 0x00
      000694 00                    4135 	.db 0x00
      000695 00                    4136 	.db 0x00
      000696 00                    4137 	.db 0x00
      000697 00                    4138 	.db 0x00
      000698 00                    4139 	.db 0x00
      000699 00                    4140 	.db 0x00
      00069A 00                    4141 	.db 0x00
      00069B 00                    4142 	.db 0x00
      00069C 00                    4143 	.db 0x00
      00069D 00                    4144 	.db 0x00
      00069E 00                    4145 	.db 0x00
      00069F 00                    4146 	.db 0x00
      0006A0 00                    4147 	.db 0x00
      0006A1 00                    4148 	.db 0x00
      0006A2 00                    4149 	.db 0x00
      0006A3 00                    4150 	.db 0x00
      0006A4 00                    4151 	.db 0x00
      0006A5 00                    4152 	.db 0x00
      0006A6 00                    4153 	.db 0x00
      0006A7 00                    4154 	.db 0x00
      0006A8 00                    4155 	.db 0x00
      0006A9 00                    4156 	.db 0x00
      0006AA 00                    4157 	.db 0x00
      0006AB 00                    4158 	.db 0x00
      0006AC 00                    4159 	.db 0x00
      0006AD 00                    4160 	.db 0x00
      0006AE 00                    4161 	.db 0x00
      0006AF 00                    4162 	.db 0x00
      0006B0 00                    4163 	.db 0x00
      0006B1 00                    4164 	.db 0x00
      0006B2 00                    4165 	.db 0x00
      0006B3 00                    4166 	.db 0x00
      0006B4 00                    4167 	.db 0x00
      0006B5 00                    4168 	.db 0x00
      0006B6 00                    4169 	.db 0x00
      0006B7 00                    4170 	.db 0x00
      0006B8 00                    4171 	.db 0x00
      0006B9 00                    4172 	.db 0x00
      0006BA 00                    4173 	.db 0x00
      0006BB 00                    4174 	.db 0x00
      0006BC 00                    4175 	.db 0x00
      0006BD 00                    4176 	.db 0x00
      0006BE 00                    4177 	.db 0x00
      0006BF 00                    4178 	.db 0x00
      0006C0 00                    4179 	.db 0x00
      0006C1 00                    4180 	.db 0x00
      0006C2 00                    4181 	.db 0x00
      0006C3 00                    4182 	.db 0x00
      0006C4 00                    4183 	.db 0x00
      0006C5 00                    4184 	.db 0x00
      0006C6 00                    4185 	.db 0x00
      0006C7 00                    4186 	.db 0x00
      0006C8 00                    4187 	.db 0x00
      0006C9 00                    4188 	.db 0x00
      0006CA 00                    4189 	.db 0x00
      0006CB 00                    4190 	.db 0x00
      0006CC 00                    4191 	.db 0x00
      0006CD 00                    4192 	.db 0x00
      0006CE 00                    4193 	.db 0x00
      0006CF 00                    4194 	.db 0x00
      0006D0 00                    4195 	.db 0x00
      0006D1 00                    4196 	.db 0x00
      0006D2 00                    4197 	.db 0x00
      0006D3 00                    4198 	.db 0x00
      0006D4 00                    4199 	.db 0x00
      0006D5 00                    4200 	.db 0x00
      0006D6 00                    4201 	.db 0x00
      0006D7 00                    4202 	.db 0x00
      0006D8 00                    4203 	.db 0x00
      0006D9 00                    4204 	.db 0x00
      0006DA 00                    4205 	.db 0x00
      0006DB 00                    4206 	.db 0x00
      0006DC 00                    4207 	.db 0x00
      0006DD 00                    4208 	.db 0x00
      0006DE 00                    4209 	.db 0x00
      0006DF 00                    4210 	.db 0x00
      0006E0 00                    4211 	.db 0x00
      0006E1 00                    4212 	.db 0x00
      0006E2 00                    4213 	.db 0x00
      0006E3 00                    4214 	.db 0x00
      0006E4 00                    4215 	.db 0x00
      0006E5 00                    4216 	.db 0x00
      0006E6 00                    4217 	.db 0x00
      0006E7 00                    4218 	.db 0x00
      0006E8 00                    4219 	.db 0x00
      0006E9 00                    4220 	.db 0x00
      0006EA 00                    4221 	.db 0x00
      0006EB 00                    4222 	.db 0x00
      0006EC 00                    4223 	.db 0x00
      0006ED 00                    4224 	.db 0x00
      0006EE 00                    4225 	.db 0x00
      0006EF 00                    4226 	.db 0x00
      0006F0 00                    4227 	.db 0x00
      0006F1 00                    4228 	.db 0x00
      0006F2 00                    4229 	.db 0x00
      0006F3 00                    4230 	.db 0x00
      0006F4 00                    4231 	.db 0x00
      0006F5 00                    4232 	.db 0x00
      0006F6 00                    4233 	.db 0x00
      0006F7 00                    4234 	.db 0x00
      0006F8 00                    4235 	.db 0x00
      0006F9 00                    4236 	.db 0x00
      0006FA 00                    4237 	.db 0x00
      0006FB 00                    4238 	.db 0x00
      0006FC 00                    4239 	.db 0x00
      0006FD 00                    4240 	.db 0x00
      0006FE 00                    4241 	.db 0x00
      0006FF 00                    4242 	.db 0x00
      000700 00                    4243 	.db 0x00
      000701 00                    4244 	.db 0x00
      000702 00                    4245 	.db 0x00
      000703 00                    4246 	.db 0x00
      000704 00                    4247 	.db 0x00
      000705 00                    4248 	.db 0x00
      000706 00                    4249 	.db 0x00
      000707 00                    4250 	.db 0x00
      000708 00                    4251 	.db 0x00
      000709 00                    4252 	.db 0x00
      00070A 00                    4253 	.db 0x00
      00070B 00                    4254 	.db 0x00
      00070C 00                    4255 	.db 0x00
      00070D 00                    4256 	.db 0x00
      00070E 00                    4257 	.db 0x00
      00070F 00                    4258 	.db 0x00
      000710 00                    4259 	.db 0x00
      000711 00                    4260 	.db 0x00
      000712 00                    4261 	.db 0x00
      000713 00                    4262 	.db 0x00
      000714 00                    4263 	.db 0x00
      000715 00                    4264 	.db 0x00
      000716 00                    4265 	.db 0x00
      000717 00                    4266 	.db 0x00
      000718 00                    4267 	.db 0x00
      000719 00                    4268 	.db 0x00
      00071A 00                    4269 	.db 0x00
      00071B 00                    4270 	.db 0x00
      00071C 00                    4271 	.db 0x00
      00071D 00                    4272 	.db 0x00
      00071E 00                    4273 	.db 0x00
      00071F 00                    4274 	.db 0x00
      000720 00                    4275 	.db 0x00
      000721 00                    4276 	.db 0x00
      000722 00                    4277 	.db 0x00
      000723 00                    4278 	.db 0x00
      000724 00                    4279 	.db 0x00
      000725 00                    4280 	.db 0x00
      000726 00                    4281 	.db 0x00
      000727 00                    4282 	.db 0x00
      000728 00                    4283 	.db 0x00
      000729 00                    4284 	.db 0x00
      00072A 00                    4285 	.db 0x00
      00072B 00                    4286 	.db 0x00
      00072C 00                    4287 	.db 0x00
      00072D 00                    4288 	.db 0x00
      00072E 00                    4289 	.db 0x00
      00072F 00                    4290 	.db 0x00
      000730 00                    4291 	.db 0x00
      000731 00                    4292 	.db 0x00
      000732 00                    4293 	.db 0x00
      000733 00                    4294 	.db 0x00
      000734 00                    4295 	.db 0x00
      000735 00                    4296 	.db 0x00
      000736 00                    4297 	.db 0x00
      000737 00                    4298 	.db 0x00
      000738 00                    4299 	.db 0x00
      000739 00                    4300 	.db 0x00
      00073A                       4301 __xinit__tx_buf:
      00073A 00                    4302 	.db #0x00	; 0
      00073B 00                    4303 	.db 0x00
      00073C 00                    4304 	.db 0x00
      00073D 00                    4305 	.db 0x00
      00073E 00                    4306 	.db 0x00
      00073F 00                    4307 	.db 0x00
      000740 00                    4308 	.db 0x00
      000741 00                    4309 	.db 0x00
      000742 00                    4310 	.db 0x00
      000743 00                    4311 	.db 0x00
      000744 00                    4312 	.db 0x00
      000745 00                    4313 	.db 0x00
      000746 00                    4314 	.db 0x00
      000747 00                    4315 	.db 0x00
      000748 00                    4316 	.db 0x00
      000749 00                    4317 	.db 0x00
      00074A 00                    4318 	.db 0x00
      00074B 00                    4319 	.db 0x00
      00074C 00                    4320 	.db 0x00
      00074D 00                    4321 	.db 0x00
      00074E 00                    4322 	.db 0x00
      00074F 00                    4323 	.db 0x00
      000750 00                    4324 	.db 0x00
      000751 00                    4325 	.db 0x00
      000752 00                    4326 	.db 0x00
      000753 00                    4327 	.db 0x00
      000754 00                    4328 	.db 0x00
      000755 00                    4329 	.db 0x00
      000756 00                    4330 	.db 0x00
      000757 00                    4331 	.db 0x00
      000758 00                    4332 	.db 0x00
      000759 00                    4333 	.db 0x00
      00075A 00                    4334 	.db 0x00
      00075B 00                    4335 	.db 0x00
      00075C 00                    4336 	.db 0x00
      00075D 00                    4337 	.db 0x00
      00075E 00                    4338 	.db 0x00
      00075F 00                    4339 	.db 0x00
      000760 00                    4340 	.db 0x00
      000761 00                    4341 	.db 0x00
      000762 00                    4342 	.db 0x00
      000763 00                    4343 	.db 0x00
      000764 00                    4344 	.db 0x00
      000765 00                    4345 	.db 0x00
      000766 00                    4346 	.db 0x00
      000767 00                    4347 	.db 0x00
      000768 00                    4348 	.db 0x00
      000769 00                    4349 	.db 0x00
      00076A 00                    4350 	.db 0x00
      00076B 00                    4351 	.db 0x00
      00076C 00                    4352 	.db 0x00
      00076D 00                    4353 	.db 0x00
      00076E 00                    4354 	.db 0x00
      00076F 00                    4355 	.db 0x00
      000770 00                    4356 	.db 0x00
      000771 00                    4357 	.db 0x00
      000772 00                    4358 	.db 0x00
      000773 00                    4359 	.db 0x00
      000774 00                    4360 	.db 0x00
      000775 00                    4361 	.db 0x00
      000776 00                    4362 	.db 0x00
      000777 00                    4363 	.db 0x00
      000778 00                    4364 	.db 0x00
      000779 00                    4365 	.db 0x00
      00077A 00                    4366 	.db 0x00
      00077B 00                    4367 	.db 0x00
      00077C 00                    4368 	.db 0x00
      00077D 00                    4369 	.db 0x00
      00077E 00                    4370 	.db 0x00
      00077F 00                    4371 	.db 0x00
      000780 00                    4372 	.db 0x00
      000781 00                    4373 	.db 0x00
      000782 00                    4374 	.db 0x00
      000783 00                    4375 	.db 0x00
      000784 00                    4376 	.db 0x00
      000785 00                    4377 	.db 0x00
      000786 00                    4378 	.db 0x00
      000787 00                    4379 	.db 0x00
      000788 00                    4380 	.db 0x00
      000789 00                    4381 	.db 0x00
      00078A 00                    4382 	.db 0x00
      00078B 00                    4383 	.db 0x00
      00078C 00                    4384 	.db 0x00
      00078D 00                    4385 	.db 0x00
      00078E 00                    4386 	.db 0x00
      00078F 00                    4387 	.db 0x00
      000790 00                    4388 	.db 0x00
      000791 00                    4389 	.db 0x00
      000792 00                    4390 	.db 0x00
      000793 00                    4391 	.db 0x00
      000794 00                    4392 	.db 0x00
      000795 00                    4393 	.db 0x00
      000796 00                    4394 	.db 0x00
      000797 00                    4395 	.db 0x00
      000798 00                    4396 	.db 0x00
      000799 00                    4397 	.db 0x00
      00079A 00                    4398 	.db 0x00
      00079B 00                    4399 	.db 0x00
      00079C 00                    4400 	.db 0x00
      00079D 00                    4401 	.db 0x00
      00079E 00                    4402 	.db 0x00
      00079F 00                    4403 	.db 0x00
      0007A0 00                    4404 	.db 0x00
      0007A1 00                    4405 	.db 0x00
      0007A2 00                    4406 	.db 0x00
      0007A3 00                    4407 	.db 0x00
      0007A4 00                    4408 	.db 0x00
      0007A5 00                    4409 	.db 0x00
      0007A6 00                    4410 	.db 0x00
      0007A7 00                    4411 	.db 0x00
      0007A8 00                    4412 	.db 0x00
      0007A9 00                    4413 	.db 0x00
      0007AA 00                    4414 	.db 0x00
      0007AB 00                    4415 	.db 0x00
      0007AC 00                    4416 	.db 0x00
      0007AD 00                    4417 	.db 0x00
      0007AE 00                    4418 	.db 0x00
      0007AF 00                    4419 	.db 0x00
      0007B0 00                    4420 	.db 0x00
      0007B1 00                    4421 	.db 0x00
      0007B2 00                    4422 	.db 0x00
      0007B3 00                    4423 	.db 0x00
      0007B4 00                    4424 	.db 0x00
      0007B5 00                    4425 	.db 0x00
      0007B6 00                    4426 	.db 0x00
      0007B7 00                    4427 	.db 0x00
      0007B8 00                    4428 	.db 0x00
      0007B9 00                    4429 	.db 0x00
      0007BA 00                    4430 	.db 0x00
      0007BB 00                    4431 	.db 0x00
      0007BC 00                    4432 	.db 0x00
      0007BD 00                    4433 	.db 0x00
      0007BE 00                    4434 	.db 0x00
      0007BF 00                    4435 	.db 0x00
      0007C0 00                    4436 	.db 0x00
      0007C1 00                    4437 	.db 0x00
      0007C2 00                    4438 	.db 0x00
      0007C3 00                    4439 	.db 0x00
      0007C4 00                    4440 	.db 0x00
      0007C5 00                    4441 	.db 0x00
      0007C6 00                    4442 	.db 0x00
      0007C7 00                    4443 	.db 0x00
      0007C8 00                    4444 	.db 0x00
      0007C9 00                    4445 	.db 0x00
      0007CA 00                    4446 	.db 0x00
      0007CB 00                    4447 	.db 0x00
      0007CC 00                    4448 	.db 0x00
      0007CD 00                    4449 	.db 0x00
      0007CE 00                    4450 	.db 0x00
      0007CF 00                    4451 	.db 0x00
      0007D0 00                    4452 	.db 0x00
      0007D1 00                    4453 	.db 0x00
      0007D2 00                    4454 	.db 0x00
      0007D3 00                    4455 	.db 0x00
      0007D4 00                    4456 	.db 0x00
      0007D5 00                    4457 	.db 0x00
      0007D6 00                    4458 	.db 0x00
      0007D7 00                    4459 	.db 0x00
      0007D8 00                    4460 	.db 0x00
      0007D9 00                    4461 	.db 0x00
      0007DA 00                    4462 	.db 0x00
      0007DB 00                    4463 	.db 0x00
      0007DC 00                    4464 	.db 0x00
      0007DD 00                    4465 	.db 0x00
      0007DE 00                    4466 	.db 0x00
      0007DF 00                    4467 	.db 0x00
      0007E0 00                    4468 	.db 0x00
      0007E1 00                    4469 	.db 0x00
      0007E2 00                    4470 	.db 0x00
      0007E3 00                    4471 	.db 0x00
      0007E4 00                    4472 	.db 0x00
      0007E5 00                    4473 	.db 0x00
      0007E6 00                    4474 	.db 0x00
      0007E7 00                    4475 	.db 0x00
      0007E8 00                    4476 	.db 0x00
      0007E9 00                    4477 	.db 0x00
      0007EA 00                    4478 	.db 0x00
      0007EB 00                    4479 	.db 0x00
      0007EC 00                    4480 	.db 0x00
      0007ED 00                    4481 	.db 0x00
      0007EE 00                    4482 	.db 0x00
      0007EF 00                    4483 	.db 0x00
      0007F0 00                    4484 	.db 0x00
      0007F1 00                    4485 	.db 0x00
      0007F2 00                    4486 	.db 0x00
      0007F3 00                    4487 	.db 0x00
      0007F4 00                    4488 	.db 0x00
      0007F5 00                    4489 	.db 0x00
      0007F6 00                    4490 	.db 0x00
      0007F7 00                    4491 	.db 0x00
      0007F8 00                    4492 	.db 0x00
      0007F9 00                    4493 	.db 0x00
      0007FA 00                    4494 	.db 0x00
      0007FB 00                    4495 	.db 0x00
      0007FC 00                    4496 	.db 0x00
      0007FD 00                    4497 	.db 0x00
      0007FE 00                    4498 	.db 0x00
      0007FF 00                    4499 	.db 0x00
      000800 00                    4500 	.db 0x00
      000801 00                    4501 	.db 0x00
      000802 00                    4502 	.db 0x00
      000803 00                    4503 	.db 0x00
      000804 00                    4504 	.db 0x00
      000805 00                    4505 	.db 0x00
      000806 00                    4506 	.db 0x00
      000807 00                    4507 	.db 0x00
      000808 00                    4508 	.db 0x00
      000809 00                    4509 	.db 0x00
      00080A 00                    4510 	.db 0x00
      00080B 00                    4511 	.db 0x00
      00080C 00                    4512 	.db 0x00
      00080D 00                    4513 	.db 0x00
      00080E 00                    4514 	.db 0x00
      00080F 00                    4515 	.db 0x00
      000810 00                    4516 	.db 0x00
      000811 00                    4517 	.db 0x00
      000812 00                    4518 	.db 0x00
      000813 00                    4519 	.db 0x00
      000814 00                    4520 	.db 0x00
      000815 00                    4521 	.db 0x00
      000816 00                    4522 	.db 0x00
      000817 00                    4523 	.db 0x00
      000818 00                    4524 	.db 0x00
      000819 00                    4525 	.db 0x00
      00081A 00                    4526 	.db 0x00
      00081B 00                    4527 	.db 0x00
      00081C 00                    4528 	.db 0x00
      00081D 00                    4529 	.db 0x00
      00081E 00                    4530 	.db 0x00
      00081F 00                    4531 	.db 0x00
      000820 00                    4532 	.db 0x00
      000821 00                    4533 	.db 0x00
      000822 00                    4534 	.db 0x00
      000823 00                    4535 	.db 0x00
      000824 00                    4536 	.db 0x00
      000825 00                    4537 	.db 0x00
      000826 00                    4538 	.db 0x00
      000827 00                    4539 	.db 0x00
      000828 00                    4540 	.db 0x00
      000829 00                    4541 	.db 0x00
      00082A 00                    4542 	.db 0x00
      00082B 00                    4543 	.db 0x00
      00082C 00                    4544 	.db 0x00
      00082D 00                    4545 	.db 0x00
      00082E 00                    4546 	.db 0x00
      00082F 00                    4547 	.db 0x00
      000830 00                    4548 	.db 0x00
      000831 00                    4549 	.db 0x00
      000832 00                    4550 	.db 0x00
      000833 00                    4551 	.db 0x00
      000834 00                    4552 	.db 0x00
      000835 00                    4553 	.db 0x00
      000836 00                    4554 	.db 0x00
      000837 00                    4555 	.db 0x00
      000838 00                    4556 	.db 0x00
      000839 00                    4557 	.db 0x00
      00083A 00                    4558 	.db 0x00
      00083B 00                    4559 	.db 0x00
      00083C 00                    4560 	.db 0x00
      00083D 00                    4561 	.db 0x00
      00083E 00                    4562 	.db 0x00
      00083F 00                    4563 	.db 0x00
      000840 00                    4564 	.db 0x00
      000841 00                    4565 	.db 0x00
      000842 00                    4566 	.db 0x00
      000843 00                    4567 	.db 0x00
      000844 00                    4568 	.db 0x00
      000845 00                    4569 	.db 0x00
      000846 00                    4570 	.db 0x00
      000847 00                    4571 	.db 0x00
      000848 00                    4572 	.db 0x00
      000849 00                    4573 	.db 0x00
      00084A 00                    4574 	.db 0x00
      00084B 00                    4575 	.db 0x00
      00084C 00                    4576 	.db 0x00
      00084D 00                    4577 	.db 0x00
      00084E 00                    4578 	.db 0x00
      00084F 00                    4579 	.db 0x00
      000850 00                    4580 	.db 0x00
      000851 00                    4581 	.db 0x00
      000852 00                    4582 	.db 0x00
      000853 00                    4583 	.db 0x00
      000854 00                    4584 	.db 0x00
      000855 00                    4585 	.db 0x00
      000856 00                    4586 	.db 0x00
      000857 00                    4587 	.db 0x00
      000858 00                    4588 	.db 0x00
      000859 00                    4589 	.db 0x00
      00085A 00                    4590 	.db 0x00
      00085B 00                    4591 	.db 0x00
      00085C 00                    4592 	.db 0x00
      00085D 00                    4593 	.db 0x00
      00085E 00                    4594 	.db 0x00
      00085F 00                    4595 	.db 0x00
      000860 00                    4596 	.db 0x00
      000861 00                    4597 	.db 0x00
      000862 00                    4598 	.db 0x00
      000863 00                    4599 	.db 0x00
      000864 00                    4600 	.db 0x00
      000865 00                    4601 	.db 0x00
      000866 00                    4602 	.db 0x00
      000867 00                    4603 	.db 0x00
      000868 00                    4604 	.db 0x00
      000869 00                    4605 	.db 0x00
      00086A 00                    4606 	.db 0x00
      00086B 00                    4607 	.db 0x00
      00086C 00                    4608 	.db 0x00
      00086D 00                    4609 	.db 0x00
      00086E 00                    4610 	.db 0x00
      00086F 00                    4611 	.db 0x00
      000870 00                    4612 	.db 0x00
      000871 00                    4613 	.db 0x00
      000872 00                    4614 	.db 0x00
      000873 00                    4615 	.db 0x00
      000874 00                    4616 	.db 0x00
      000875 00                    4617 	.db 0x00
      000876 00                    4618 	.db 0x00
      000877 00                    4619 	.db 0x00
      000878 00                    4620 	.db 0x00
      000879 00                    4621 	.db 0x00
      00087A 00                    4622 	.db 0x00
      00087B 00                    4623 	.db 0x00
      00087C 00                    4624 	.db 0x00
      00087D 00                    4625 	.db 0x00
      00087E 00                    4626 	.db 0x00
      00087F 00                    4627 	.db 0x00
      000880 00                    4628 	.db 0x00
      000881 00                    4629 	.db 0x00
      000882 00                    4630 	.db 0x00
      000883 00                    4631 	.db 0x00
      000884 00                    4632 	.db 0x00
      000885 00                    4633 	.db 0x00
      000886 00                    4634 	.db 0x00
      000887 00                    4635 	.db 0x00
      000888 00                    4636 	.db 0x00
      000889 00                    4637 	.db 0x00
      00088A 00                    4638 	.db 0x00
      00088B 00                    4639 	.db 0x00
      00088C 00                    4640 	.db 0x00
      00088D 00                    4641 	.db 0x00
      00088E 00                    4642 	.db 0x00
      00088F 00                    4643 	.db 0x00
      000890 00                    4644 	.db 0x00
      000891 00                    4645 	.db 0x00
      000892 00                    4646 	.db 0x00
      000893 00                    4647 	.db 0x00
      000894 00                    4648 	.db 0x00
      000895 00                    4649 	.db 0x00
      000896 00                    4650 	.db 0x00
      000897 00                    4651 	.db 0x00
      000898 00                    4652 	.db 0x00
      000899 00                    4653 	.db 0x00
      00089A 00                    4654 	.db 0x00
      00089B 00                    4655 	.db 0x00
      00089C 00                    4656 	.db 0x00
      00089D 00                    4657 	.db 0x00
      00089E 00                    4658 	.db 0x00
      00089F 00                    4659 	.db 0x00
      0008A0 00                    4660 	.db 0x00
      0008A1 00                    4661 	.db 0x00
      0008A2 00                    4662 	.db 0x00
      0008A3 00                    4663 	.db 0x00
      0008A4 00                    4664 	.db 0x00
      0008A5 00                    4665 	.db 0x00
      0008A6 00                    4666 	.db 0x00
      0008A7 00                    4667 	.db 0x00
      0008A8 00                    4668 	.db 0x00
      0008A9 00                    4669 	.db 0x00
      0008AA 00                    4670 	.db 0x00
      0008AB 00                    4671 	.db 0x00
      0008AC 00                    4672 	.db 0x00
      0008AD 00                    4673 	.db 0x00
      0008AE 00                    4674 	.db 0x00
      0008AF 00                    4675 	.db 0x00
      0008B0 00                    4676 	.db 0x00
      0008B1 00                    4677 	.db 0x00
      0008B2 00                    4678 	.db 0x00
      0008B3 00                    4679 	.db 0x00
      0008B4 00                    4680 	.db 0x00
      0008B5 00                    4681 	.db 0x00
      0008B6 00                    4682 	.db 0x00
      0008B7 00                    4683 	.db 0x00
      0008B8 00                    4684 	.db 0x00
      0008B9 00                    4685 	.db 0x00
      0008BA 00                    4686 	.db 0x00
      0008BB 00                    4687 	.db 0x00
      0008BC 00                    4688 	.db 0x00
      0008BD 00                    4689 	.db 0x00
      0008BE 00                    4690 	.db 0x00
      0008BF 00                    4691 	.db 0x00
      0008C0 00                    4692 	.db 0x00
      0008C1 00                    4693 	.db 0x00
      0008C2 00                    4694 	.db 0x00
      0008C3 00                    4695 	.db 0x00
      0008C4 00                    4696 	.db 0x00
      0008C5 00                    4697 	.db 0x00
      0008C6 00                    4698 	.db 0x00
      0008C7 00                    4699 	.db 0x00
      0008C8 00                    4700 	.db 0x00
      0008C9 00                    4701 	.db 0x00
      0008CA 00                    4702 	.db 0x00
      0008CB 00                    4703 	.db 0x00
      0008CC 00                    4704 	.db 0x00
      0008CD 00                    4705 	.db 0x00
      0008CE 00                    4706 	.db 0x00
      0008CF 00                    4707 	.db 0x00
      0008D0 00                    4708 	.db 0x00
      0008D1 00                    4709 	.db 0x00
      0008D2 00                    4710 	.db 0x00
      0008D3 00                    4711 	.db 0x00
      0008D4 00                    4712 	.db 0x00
      0008D5 00                    4713 	.db 0x00
      0008D6 00                    4714 	.db 0x00
      0008D7 00                    4715 	.db 0x00
      0008D8 00                    4716 	.db 0x00
      0008D9 00                    4717 	.db 0x00
      0008DA 00                    4718 	.db 0x00
      0008DB 00                    4719 	.db 0x00
      0008DC 00                    4720 	.db 0x00
      0008DD 00                    4721 	.db 0x00
      0008DE 00                    4722 	.db 0x00
      0008DF 00                    4723 	.db 0x00
      0008E0 00                    4724 	.db 0x00
      0008E1 00                    4725 	.db 0x00
      0008E2 00                    4726 	.db 0x00
      0008E3 00                    4727 	.db 0x00
      0008E4 00                    4728 	.db 0x00
      0008E5 00                    4729 	.db 0x00
      0008E6 00                    4730 	.db 0x00
      0008E7 00                    4731 	.db 0x00
      0008E8 00                    4732 	.db 0x00
      0008E9 00                    4733 	.db 0x00
      0008EA 00                    4734 	.db 0x00
      0008EB 00                    4735 	.db 0x00
      0008EC 00                    4736 	.db 0x00
      0008ED 00                    4737 	.db 0x00
      0008EE 00                    4738 	.db 0x00
      0008EF 00                    4739 	.db 0x00
      0008F0 00                    4740 	.db 0x00
      0008F1 00                    4741 	.db 0x00
      0008F2 00                    4742 	.db 0x00
      0008F3 00                    4743 	.db 0x00
      0008F4 00                    4744 	.db 0x00
      0008F5 00                    4745 	.db 0x00
      0008F6 00                    4746 	.db 0x00
      0008F7 00                    4747 	.db 0x00
      0008F8 00                    4748 	.db 0x00
      0008F9 00                    4749 	.db 0x00
      0008FA 00                    4750 	.db 0x00
      0008FB 00                    4751 	.db 0x00
      0008FC 00                    4752 	.db 0x00
      0008FD 00                    4753 	.db 0x00
      0008FE 00                    4754 	.db 0x00
      0008FF 00                    4755 	.db 0x00
      000900 00                    4756 	.db 0x00
      000901 00                    4757 	.db 0x00
      000902 00                    4758 	.db 0x00
      000903 00                    4759 	.db 0x00
      000904 00                    4760 	.db 0x00
      000905 00                    4761 	.db 0x00
      000906 00                    4762 	.db 0x00
      000907 00                    4763 	.db 0x00
      000908 00                    4764 	.db 0x00
      000909 00                    4765 	.db 0x00
      00090A 00                    4766 	.db 0x00
      00090B 00                    4767 	.db 0x00
      00090C 00                    4768 	.db 0x00
      00090D 00                    4769 	.db 0x00
      00090E 00                    4770 	.db 0x00
      00090F 00                    4771 	.db 0x00
      000910 00                    4772 	.db 0x00
      000911 00                    4773 	.db 0x00
      000912 00                    4774 	.db 0x00
      000913 00                    4775 	.db 0x00
      000914 00                    4776 	.db 0x00
      000915 00                    4777 	.db 0x00
      000916 00                    4778 	.db 0x00
      000917 00                    4779 	.db 0x00
      000918 00                    4780 	.db 0x00
      000919 00                    4781 	.db 0x00
      00091A 00                    4782 	.db 0x00
      00091B 00                    4783 	.db 0x00
      00091C 00                    4784 	.db 0x00
      00091D 00                    4785 	.db 0x00
      00091E 00                    4786 	.db 0x00
      00091F 00                    4787 	.db 0x00
      000920 00                    4788 	.db 0x00
      000921 00                    4789 	.db 0x00
      000922 00                    4790 	.db 0x00
      000923 00                    4791 	.db 0x00
      000924 00                    4792 	.db 0x00
      000925 00                    4793 	.db 0x00
      000926 00                    4794 	.db 0x00
      000927 00                    4795 	.db 0x00
      000928 00                    4796 	.db 0x00
      000929 00                    4797 	.db 0x00
      00092A 00                    4798 	.db 0x00
      00092B 00                    4799 	.db 0x00
      00092C 00                    4800 	.db 0x00
      00092D 00                    4801 	.db 0x00
      00092E 00                    4802 	.db 0x00
      00092F 00                    4803 	.db 0x00
      000930 00                    4804 	.db 0x00
      000931 00                    4805 	.db 0x00
      000932 00                    4806 	.db 0x00
      000933 00                    4807 	.db 0x00
      000934 00                    4808 	.db 0x00
      000935 00                    4809 	.db 0x00
      000936 00                    4810 	.db 0x00
      000937 00                    4811 	.db 0x00
      000938 00                    4812 	.db 0x00
      000939 00                    4813 	.db 0x00
      00093A 00                    4814 	.db 0x00
      00093B 00                    4815 	.db 0x00
      00093C 00                    4816 	.db 0x00
      00093D 00                    4817 	.db 0x00
      00093E 00                    4818 	.db 0x00
      00093F 00                    4819 	.db 0x00
      000940 00                    4820 	.db 0x00
      000941 00                    4821 	.db 0x00
      000942 00                    4822 	.db 0x00
      000943 00                    4823 	.db 0x00
      000944 00                    4824 	.db 0x00
      000945 00                    4825 	.db 0x00
      000946 00                    4826 	.db 0x00
      000947 00                    4827 	.db 0x00
      000948 00                    4828 	.db 0x00
      000949 00                    4829 	.db 0x00
      00094A 00                    4830 	.db 0x00
      00094B 00                    4831 	.db 0x00
      00094C 00                    4832 	.db 0x00
      00094D 00                    4833 	.db 0x00
      00094E 00                    4834 	.db 0x00
      00094F 00                    4835 	.db 0x00
      000950 00                    4836 	.db 0x00
      000951 00                    4837 	.db 0x00
      000952 00                    4838 	.db 0x00
      000953 00                    4839 	.db 0x00
      000954 00                    4840 	.db 0x00
      000955 00                    4841 	.db 0x00
      000956 00                    4842 	.db 0x00
      000957 00                    4843 	.db 0x00
      000958 00                    4844 	.db 0x00
      000959 00                    4845 	.db 0x00
      00095A 00                    4846 	.db 0x00
      00095B 00                    4847 	.db 0x00
      00095C 00                    4848 	.db 0x00
      00095D 00                    4849 	.db 0x00
      00095E 00                    4850 	.db 0x00
      00095F 00                    4851 	.db 0x00
      000960 00                    4852 	.db 0x00
      000961 00                    4853 	.db 0x00
      000962 00                    4854 	.db 0x00
      000963 00                    4855 	.db 0x00
      000964 00                    4856 	.db 0x00
      000965 00                    4857 	.db 0x00
      000966 00                    4858 	.db 0x00
      000967 00                    4859 	.db 0x00
      000968 00                    4860 	.db 0x00
      000969 00                    4861 	.db 0x00
      00096A 00                    4862 	.db 0x00
      00096B 00                    4863 	.db 0x00
      00096C 00                    4864 	.db 0x00
      00096D 00                    4865 	.db 0x00
      00096E 00                    4866 	.db 0x00
      00096F 00                    4867 	.db 0x00
      000970 00                    4868 	.db 0x00
      000971 00                    4869 	.db 0x00
      000972 00                    4870 	.db 0x00
      000973 00                    4871 	.db 0x00
      000974 00                    4872 	.db 0x00
      000975 00                    4873 	.db 0x00
      000976 00                    4874 	.db 0x00
      000977 00                    4875 	.db 0x00
      000978 00                    4876 	.db 0x00
      000979 00                    4877 	.db 0x00
      00097A 00                    4878 	.db 0x00
      00097B 00                    4879 	.db 0x00
      00097C 00                    4880 	.db 0x00
      00097D 00                    4881 	.db 0x00
      00097E 00                    4882 	.db 0x00
      00097F 00                    4883 	.db 0x00
      000980 00                    4884 	.db 0x00
      000981 00                    4885 	.db 0x00
      000982 00                    4886 	.db 0x00
      000983 00                    4887 	.db 0x00
      000984 00                    4888 	.db 0x00
      000985 00                    4889 	.db 0x00
      000986 00                    4890 	.db 0x00
      000987 00                    4891 	.db 0x00
      000988 00                    4892 	.db 0x00
      000989 00                    4893 	.db 0x00
      00098A 00                    4894 	.db 0x00
      00098B 00                    4895 	.db 0x00
      00098C 00                    4896 	.db 0x00
      00098D 00                    4897 	.db 0x00
      00098E 00                    4898 	.db 0x00
      00098F 00                    4899 	.db 0x00
      000990 00                    4900 	.db 0x00
      000991 00                    4901 	.db 0x00
      000992 00                    4902 	.db 0x00
      000993 00                    4903 	.db 0x00
      000994 00                    4904 	.db 0x00
      000995 00                    4905 	.db 0x00
      000996 00                    4906 	.db 0x00
      000997 00                    4907 	.db 0x00
      000998 00                    4908 	.db 0x00
      000999 00                    4909 	.db 0x00
      00099A 00                    4910 	.db 0x00
      00099B 00                    4911 	.db 0x00
      00099C 00                    4912 	.db 0x00
      00099D 00                    4913 	.db 0x00
      00099E 00                    4914 	.db 0x00
      00099F 00                    4915 	.db 0x00
      0009A0 00                    4916 	.db 0x00
      0009A1 00                    4917 	.db 0x00
      0009A2 00                    4918 	.db 0x00
      0009A3 00                    4919 	.db 0x00
      0009A4 00                    4920 	.db 0x00
      0009A5 00                    4921 	.db 0x00
      0009A6 00                    4922 	.db 0x00
      0009A7 00                    4923 	.db 0x00
      0009A8 00                    4924 	.db 0x00
      0009A9 00                    4925 	.db 0x00
      0009AA 00                    4926 	.db 0x00
      0009AB 00                    4927 	.db 0x00
      0009AC 00                    4928 	.db 0x00
      0009AD 00                    4929 	.db 0x00
      0009AE 00                    4930 	.db 0x00
      0009AF 00                    4931 	.db 0x00
      0009B0 00                    4932 	.db 0x00
      0009B1 00                    4933 	.db 0x00
      0009B2 00                    4934 	.db 0x00
      0009B3 00                    4935 	.db 0x00
      0009B4 00                    4936 	.db 0x00
      0009B5 00                    4937 	.db 0x00
      0009B6 00                    4938 	.db 0x00
      0009B7 00                    4939 	.db 0x00
      0009B8 00                    4940 	.db 0x00
      0009B9 00                    4941 	.db 0x00
      0009BA 00                    4942 	.db 0x00
      0009BB 00                    4943 	.db 0x00
      0009BC 00                    4944 	.db 0x00
      0009BD 00                    4945 	.db 0x00
      0009BE 00                    4946 	.db 0x00
                                   4947 	.area CABS    (ABS,CODE)
