                                      1 ;--------------------------------------------------------
                                      2 ; File Created by SDCC : free open source ANSI-C Compiler
                                      3 ; Version 3.5.0 #9253 (Sep  7 2022) (Linux)
                                      4 ; This file was generated Wed Sep  7 10:05:07 2022
                                      5 ;--------------------------------------------------------
                                      6 	.module serial
                                      7 	.optsdcc -mmcs51 --model-large
                                      8 	
                                      9 ;--------------------------------------------------------
                                     10 ; Public variables in this module
                                     11 ;--------------------------------------------------------
                                     12 	.globl _serial_interrupt
                                     13 	.globl _aes_get_encryption_level
                                     14 	.globl _aes_decrypt
                                     15 	.globl _packet_set_serial_speed
                                     16 	.globl _panic
                                     17 	.globl _at_input
                                     18 	.globl _at_plus_detector
                                     19 	.globl _memcpy
                                     20 	.globl _NSS1
                                     21 	.globl _IRQ
                                     22 	.globl _PIN_ENABLE
                                     23 	.globl _PIN_CONFIG
                                     24 	.globl _LED_GREEN
                                     25 	.globl _LED_RED
                                     26 	.globl _SPI1EN
                                     27 	.globl _TXBMT1
                                     28 	.globl _NSS1MD0
                                     29 	.globl _NSS1MD1
                                     30 	.globl _RXOVRN1
                                     31 	.globl _MODF1
                                     32 	.globl _WCOL1
                                     33 	.globl _SPIF1
                                     34 	.globl _SPI0EN
                                     35 	.globl _TXBMT0
                                     36 	.globl _NSS0MD0
                                     37 	.globl _NSS0MD1
                                     38 	.globl _RXOVRN0
                                     39 	.globl _MODF0
                                     40 	.globl _WCOL0
                                     41 	.globl _SPIF0
                                     42 	.globl _AD0CM0
                                     43 	.globl _AD0CM1
                                     44 	.globl _AD0CM2
                                     45 	.globl _AD0WINT
                                     46 	.globl _AD0BUSY
                                     47 	.globl _AD0INT
                                     48 	.globl _BURSTEN
                                     49 	.globl _AD0EN
                                     50 	.globl _CCF0
                                     51 	.globl _CCF1
                                     52 	.globl _CCF2
                                     53 	.globl _CCF3
                                     54 	.globl _CCF4
                                     55 	.globl _CCF5
                                     56 	.globl _CR
                                     57 	.globl _CF
                                     58 	.globl _P
                                     59 	.globl _F1
                                     60 	.globl _OV
                                     61 	.globl _RS0
                                     62 	.globl _RS1
                                     63 	.globl _F0
                                     64 	.globl _AC
                                     65 	.globl _CY
                                     66 	.globl _T2XCLK
                                     67 	.globl _T2RCLK
                                     68 	.globl _TR2
                                     69 	.globl _T2SPLIT
                                     70 	.globl _TF2CEN
                                     71 	.globl _TF2LEN
                                     72 	.globl _TF2L
                                     73 	.globl _TF2H
                                     74 	.globl _SI
                                     75 	.globl _ACK
                                     76 	.globl _ARBLOST
                                     77 	.globl _ACKRQ
                                     78 	.globl _STO
                                     79 	.globl _STA
                                     80 	.globl _TXMODE
                                     81 	.globl _MASTER
                                     82 	.globl _PX0
                                     83 	.globl _PT0
                                     84 	.globl _PX1
                                     85 	.globl _PT1
                                     86 	.globl _PS0
                                     87 	.globl _PT2
                                     88 	.globl _PSPI0
                                     89 	.globl _EX0
                                     90 	.globl _ET0
                                     91 	.globl _EX1
                                     92 	.globl _ET1
                                     93 	.globl _ES0
                                     94 	.globl _ET2
                                     95 	.globl _ESPI0
                                     96 	.globl _EA
                                     97 	.globl _RI0
                                     98 	.globl _TI0
                                     99 	.globl _RB80
                                    100 	.globl _TB80
                                    101 	.globl _REN0
                                    102 	.globl _MCE0
                                    103 	.globl _S0MODE
                                    104 	.globl _IT0
                                    105 	.globl _IE0
                                    106 	.globl _IT1
                                    107 	.globl _IE1
                                    108 	.globl _TR0
                                    109 	.globl _TF0
                                    110 	.globl _TR1
                                    111 	.globl _TF1
                                    112 	.globl __XPAGE
                                    113 	.globl _PCA0CP4
                                    114 	.globl _PCA0CP0
                                    115 	.globl _PCA0
                                    116 	.globl _PCA0CP3
                                    117 	.globl _PCA0CP2
                                    118 	.globl _PCA0CP1
                                    119 	.globl _PCA0CP5
                                    120 	.globl _TMR2
                                    121 	.globl _TMR2RL
                                    122 	.globl _ADC0LT
                                    123 	.globl _ADC0GT
                                    124 	.globl _ADC0
                                    125 	.globl _TMR3
                                    126 	.globl _TMR3RL
                                    127 	.globl _TOFF
                                    128 	.globl _DP
                                    129 	.globl _PCLKEN
                                    130 	.globl _CLKMODE
                                    131 	.globl _P7MDOUT
                                    132 	.globl _P6MDOUT
                                    133 	.globl _P5MDOUT
                                    134 	.globl _P4MDOUT
                                    135 	.globl _PCLKACT
                                    136 	.globl _P6MDIN
                                    137 	.globl _P5MDIN
                                    138 	.globl _P4MDIN
                                    139 	.globl _P3MDIN
                                    140 	.globl _DEVICEID
                                    141 	.globl _REVID
                                    142 	.globl _HWID
                                    143 	.globl _P7
                                    144 	.globl _P6
                                    145 	.globl _P5
                                    146 	.globl _P4
                                    147 	.globl _TOFFH
                                    148 	.globl _TOFFL
                                    149 	.globl _ADC0TK
                                    150 	.globl _ADC0PWR
                                    151 	.globl _IREF0CF
                                    152 	.globl _FLSCL
                                    153 	.globl _OSCICL
                                    154 	.globl _OSCIFL
                                    155 	.globl _P3MDOUT
                                    156 	.globl _LCD0BUFCF
                                    157 	.globl _P7DRV
                                    158 	.globl _P6DRV
                                    159 	.globl _P2DRV
                                    160 	.globl _P1DRV
                                    161 	.globl _P0DRV
                                    162 	.globl _P5DRV
                                    163 	.globl _P4DRV
                                    164 	.globl _P3DRV
                                    165 	.globl _LCD0BUFCN
                                    166 	.globl _CRC0CNT
                                    167 	.globl _CRC0AUTO
                                    168 	.globl _CRC0FLIP
                                    169 	.globl _CRC0IN
                                    170 	.globl _CRC0CN
                                    171 	.globl _CRC0DAT
                                    172 	.globl _SFRPGCN
                                    173 	.globl _DC0RDY
                                    174 	.globl _PC0INT1
                                    175 	.globl _PC0INT0
                                    176 	.globl _PC0DCH
                                    177 	.globl _PC0DCL
                                    178 	.globl _SPI1CN
                                    179 	.globl _AES0YOUT
                                    180 	.globl _PC0HIST
                                    181 	.globl _PC0CMP1H
                                    182 	.globl _PC0CMP1M
                                    183 	.globl _PC0CMP1L
                                    184 	.globl _AES0KBA
                                    185 	.globl _AES0DBA
                                    186 	.globl _AES0KIN
                                    187 	.globl _AES0XIN
                                    188 	.globl _AES0BIN
                                    189 	.globl _AES0DCFG
                                    190 	.globl _AES0BCFG
                                    191 	.globl _PC0TH
                                    192 	.globl _PC0CMP0H
                                    193 	.globl _PC0CMP0M
                                    194 	.globl _PC0CMP0L
                                    195 	.globl _PC0CTR1H
                                    196 	.globl _PC0CTR1M
                                    197 	.globl _PC0CTR1L
                                    198 	.globl _PC0CTR0H
                                    199 	.globl _PC0CTR0M
                                    200 	.globl _PC0CTR0L
                                    201 	.globl _PC0MD
                                    202 	.globl _PC0PCF
                                    203 	.globl _DMA0NMD
                                    204 	.globl _DMA0BUSY
                                    205 	.globl _DMA0MINT
                                    206 	.globl _DMA0INT
                                    207 	.globl _DMA0EN
                                    208 	.globl _DMA0SEL
                                    209 	.globl _DMA0NSZH
                                    210 	.globl _DMA0NSZL
                                    211 	.globl _DMA0NAOH
                                    212 	.globl _DMA0NAOL
                                    213 	.globl _DMA0NBAH
                                    214 	.globl _DMA0NBAL
                                    215 	.globl _DMA0NCF
                                    216 	.globl _VREGINSDH
                                    217 	.globl _VREGINSDL
                                    218 	.globl _ENC0CN
                                    219 	.globl _ENC0H
                                    220 	.globl _ENC0M
                                    221 	.globl _ENC0L
                                    222 	.globl _PC0STAT
                                    223 	.globl _CRC1CN
                                    224 	.globl _CRC1POLH
                                    225 	.globl _CRC1POLL
                                    226 	.globl _CRC1OUTH
                                    227 	.globl _CRC1OUTL
                                    228 	.globl _CRC1IN
                                    229 	.globl _LCD0BUFMD
                                    230 	.globl _LCD0CHPCN
                                    231 	.globl _DC0MD
                                    232 	.globl _DC0CF
                                    233 	.globl _DC0CN
                                    234 	.globl _LCD0VBMCF
                                    235 	.globl _LCD0CHPMD
                                    236 	.globl _LCD0CHPCF
                                    237 	.globl _LCD0MSCF
                                    238 	.globl _LCD0MSCN
                                    239 	.globl _LCD0CLKDIVH
                                    240 	.globl _LCD0CLKDIVL
                                    241 	.globl _LCD0VBMCN
                                    242 	.globl _LCD0CF
                                    243 	.globl _LCD0PWR
                                    244 	.globl _SPI1DAT
                                    245 	.globl _SPI1CKR
                                    246 	.globl _SPI1CFG
                                    247 	.globl _LCD0TOGR
                                    248 	.globl _LCD0BLINK
                                    249 	.globl _LCD0CN
                                    250 	.globl _LCD0CNTRST
                                    251 	.globl _LCD0DF
                                    252 	.globl _LCD0DE
                                    253 	.globl _LCD0DD
                                    254 	.globl _LCD0DC
                                    255 	.globl _LCD0DB
                                    256 	.globl _LCD0DA
                                    257 	.globl _LCD0D9
                                    258 	.globl _LCD0D8
                                    259 	.globl _LCD0D7
                                    260 	.globl _LCD0D6
                                    261 	.globl _LCD0D5
                                    262 	.globl _LCD0D4
                                    263 	.globl _LCD0D3
                                    264 	.globl _LCD0D2
                                    265 	.globl _LCD0D1
                                    266 	.globl _LCD0D0
                                    267 	.globl _VDM0CN
                                    268 	.globl _PCA0CPH4
                                    269 	.globl _PCA0CPL4
                                    270 	.globl _PCA0CPH0
                                    271 	.globl _PCA0CPL0
                                    272 	.globl _PCA0H
                                    273 	.globl _PCA0L
                                    274 	.globl _SPI0CN
                                    275 	.globl _EIP2
                                    276 	.globl _EIP1
                                    277 	.globl _SMB0ADM
                                    278 	.globl _SMB0ADR
                                    279 	.globl _P2MDIN
                                    280 	.globl _P1MDIN
                                    281 	.globl _P0MDIN
                                    282 	.globl _B
                                    283 	.globl _RSTSRC
                                    284 	.globl _PCA0CPH3
                                    285 	.globl _PCA0CPL3
                                    286 	.globl _PCA0CPH2
                                    287 	.globl _PCA0CPL2
                                    288 	.globl _PCA0CPH1
                                    289 	.globl _PCA0CPL1
                                    290 	.globl _ADC0CN
                                    291 	.globl _EIE2
                                    292 	.globl _EIE1
                                    293 	.globl _FLWR
                                    294 	.globl _IT01CF
                                    295 	.globl _XBR2
                                    296 	.globl _XBR1
                                    297 	.globl _XBR0
                                    298 	.globl _ACC
                                    299 	.globl _PCA0PWM
                                    300 	.globl _PCA0CPM4
                                    301 	.globl _PCA0CPM3
                                    302 	.globl _PCA0CPM2
                                    303 	.globl _PCA0CPM1
                                    304 	.globl _PCA0CPM0
                                    305 	.globl _PCA0MD
                                    306 	.globl _PCA0CN
                                    307 	.globl _P0MAT
                                    308 	.globl _P2SKIP
                                    309 	.globl _P1SKIP
                                    310 	.globl _P0SKIP
                                    311 	.globl _PCA0CPH5
                                    312 	.globl _PCA0CPL5
                                    313 	.globl _REF0CN
                                    314 	.globl _PSW
                                    315 	.globl _P1MAT
                                    316 	.globl _PCA0CPM5
                                    317 	.globl _TMR2H
                                    318 	.globl _TMR2L
                                    319 	.globl _TMR2RLH
                                    320 	.globl _TMR2RLL
                                    321 	.globl _REG0CN
                                    322 	.globl _TMR2CN
                                    323 	.globl _P0MASK
                                    324 	.globl _ADC0LTH
                                    325 	.globl _ADC0LTL
                                    326 	.globl _ADC0GTH
                                    327 	.globl _ADC0GTL
                                    328 	.globl _SMB0DAT
                                    329 	.globl _SMB0CF
                                    330 	.globl _SMB0CN
                                    331 	.globl _P1MASK
                                    332 	.globl _ADC0H
                                    333 	.globl _ADC0L
                                    334 	.globl _ADC0CF
                                    335 	.globl _ADC0MX
                                    336 	.globl _ADC0AC
                                    337 	.globl _IREF0CN
                                    338 	.globl _IP
                                    339 	.globl _FLKEY
                                    340 	.globl _PMU0FL
                                    341 	.globl _PMU0CF
                                    342 	.globl _PMU0MD
                                    343 	.globl _OSCICN
                                    344 	.globl _OSCXCN
                                    345 	.globl _P3
                                    346 	.globl _EMI0TC
                                    347 	.globl _RTC0KEY
                                    348 	.globl _RTC0DAT
                                    349 	.globl _RTC0ADR
                                    350 	.globl _EMI0CF
                                    351 	.globl _EMI0CN
                                    352 	.globl _CLKSEL
                                    353 	.globl _IE
                                    354 	.globl _SFRPAGE
                                    355 	.globl _P2MDOUT
                                    356 	.globl _P1MDOUT
                                    357 	.globl _P0MDOUT
                                    358 	.globl _SPI0DAT
                                    359 	.globl _SPI0CKR
                                    360 	.globl _SPI0CFG
                                    361 	.globl _P2
                                    362 	.globl _CPT0MX
                                    363 	.globl _CPT1MX
                                    364 	.globl _CPT0MD
                                    365 	.globl _CPT1MD
                                    366 	.globl _CPT0CN
                                    367 	.globl _CPT1CN
                                    368 	.globl _SBUF0
                                    369 	.globl _SCON0
                                    370 	.globl _TMR3H
                                    371 	.globl _TMR3L
                                    372 	.globl _TMR3RLH
                                    373 	.globl _TMR3RLL
                                    374 	.globl _TMR3CN
                                    375 	.globl _P1
                                    376 	.globl _PSCTL
                                    377 	.globl _CKCON
                                    378 	.globl _TH1
                                    379 	.globl _TH0
                                    380 	.globl _TL1
                                    381 	.globl _TL0
                                    382 	.globl _TMOD
                                    383 	.globl _TCON
                                    384 	.globl _PCON
                                    385 	.globl _SFRLAST
                                    386 	.globl _SFRNEXT
                                    387 	.globl _PSBANK
                                    388 	.globl _DPH
                                    389 	.globl _DPL
                                    390 	.globl _SP
                                    391 	.globl _P0
                                    392 	.globl _encrypt_buf
                                    393 	.globl _tx_buf
                                    394 	.globl _rx_buf
                                    395 	.globl _serial_read_buf_PARM_2
                                    396 	.globl _serial_write_buf_PARM_2
                                    397 	.globl _serial_decrypt_buf_PARM_2
                                    398 	.globl _serial_check_rts
                                    399 	.globl _serial_init
                                    400 	.globl _serial_write
                                    401 	.globl _decryptPackets
                                    402 	.globl _serial_decrypt_buf
                                    403 	.globl _serial_write_buf
                                    404 	.globl _serial_write_space
                                    405 	.globl _serial_read
                                    406 	.globl _serial_peek
                                    407 	.globl _serial_peekx
                                    408 	.globl _serial_read_buf
                                    409 	.globl _serial_read_available
                                    410 	.globl _serial_read_space
                                    411 	.globl _putchar
                                    412 	.globl _serial_device_valid_speed
                                    413 	.globl _encrypt_buffer_getting_full
                                    414 	.globl _encrypt_buffer_getting_empty
                                    415 	.globl _encrypt_buffer_write_space
                                    416 ;--------------------------------------------------------
                                    417 ; special function registers
                                    418 ;--------------------------------------------------------
                                    419 	.area RSEG    (ABS,DATA)
      000000                        420 	.org 0x0000
                           000080   421 _P0	=	0x0080
                           000081   422 _SP	=	0x0081
                           000082   423 _DPL	=	0x0082
                           000083   424 _DPH	=	0x0083
                           000084   425 _PSBANK	=	0x0084
                           000085   426 _SFRNEXT	=	0x0085
                           000086   427 _SFRLAST	=	0x0086
                           000087   428 _PCON	=	0x0087
                           000088   429 _TCON	=	0x0088
                           000089   430 _TMOD	=	0x0089
                           00008A   431 _TL0	=	0x008a
                           00008B   432 _TL1	=	0x008b
                           00008C   433 _TH0	=	0x008c
                           00008D   434 _TH1	=	0x008d
                           00008E   435 _CKCON	=	0x008e
                           00008F   436 _PSCTL	=	0x008f
                           000090   437 _P1	=	0x0090
                           000091   438 _TMR3CN	=	0x0091
                           000092   439 _TMR3RLL	=	0x0092
                           000093   440 _TMR3RLH	=	0x0093
                           000094   441 _TMR3L	=	0x0094
                           000095   442 _TMR3H	=	0x0095
                           000098   443 _SCON0	=	0x0098
                           000099   444 _SBUF0	=	0x0099
                           00009A   445 _CPT1CN	=	0x009a
                           00009B   446 _CPT0CN	=	0x009b
                           00009C   447 _CPT1MD	=	0x009c
                           00009D   448 _CPT0MD	=	0x009d
                           00009E   449 _CPT1MX	=	0x009e
                           00009F   450 _CPT0MX	=	0x009f
                           0000A0   451 _P2	=	0x00a0
                           0000A1   452 _SPI0CFG	=	0x00a1
                           0000A2   453 _SPI0CKR	=	0x00a2
                           0000A3   454 _SPI0DAT	=	0x00a3
                           0000A4   455 _P0MDOUT	=	0x00a4
                           0000A5   456 _P1MDOUT	=	0x00a5
                           0000A6   457 _P2MDOUT	=	0x00a6
                           0000A7   458 _SFRPAGE	=	0x00a7
                           0000A8   459 _IE	=	0x00a8
                           0000A9   460 _CLKSEL	=	0x00a9
                           0000AA   461 _EMI0CN	=	0x00aa
                           0000AB   462 _EMI0CF	=	0x00ab
                           0000AC   463 _RTC0ADR	=	0x00ac
                           0000AD   464 _RTC0DAT	=	0x00ad
                           0000AE   465 _RTC0KEY	=	0x00ae
                           0000AF   466 _EMI0TC	=	0x00af
                           0000B0   467 _P3	=	0x00b0
                           0000B1   468 _OSCXCN	=	0x00b1
                           0000B2   469 _OSCICN	=	0x00b2
                           0000B3   470 _PMU0MD	=	0x00b3
                           0000B5   471 _PMU0CF	=	0x00b5
                           0000B6   472 _PMU0FL	=	0x00b6
                           0000B7   473 _FLKEY	=	0x00b7
                           0000B8   474 _IP	=	0x00b8
                           0000B9   475 _IREF0CN	=	0x00b9
                           0000BA   476 _ADC0AC	=	0x00ba
                           0000BB   477 _ADC0MX	=	0x00bb
                           0000BC   478 _ADC0CF	=	0x00bc
                           0000BD   479 _ADC0L	=	0x00bd
                           0000BE   480 _ADC0H	=	0x00be
                           0000BF   481 _P1MASK	=	0x00bf
                           0000C0   482 _SMB0CN	=	0x00c0
                           0000C1   483 _SMB0CF	=	0x00c1
                           0000C2   484 _SMB0DAT	=	0x00c2
                           0000C3   485 _ADC0GTL	=	0x00c3
                           0000C4   486 _ADC0GTH	=	0x00c4
                           0000C5   487 _ADC0LTL	=	0x00c5
                           0000C6   488 _ADC0LTH	=	0x00c6
                           0000C7   489 _P0MASK	=	0x00c7
                           0000C8   490 _TMR2CN	=	0x00c8
                           0000C9   491 _REG0CN	=	0x00c9
                           0000CA   492 _TMR2RLL	=	0x00ca
                           0000CB   493 _TMR2RLH	=	0x00cb
                           0000CC   494 _TMR2L	=	0x00cc
                           0000CD   495 _TMR2H	=	0x00cd
                           0000CE   496 _PCA0CPM5	=	0x00ce
                           0000CF   497 _P1MAT	=	0x00cf
                           0000D0   498 _PSW	=	0x00d0
                           0000D1   499 _REF0CN	=	0x00d1
                           0000D2   500 _PCA0CPL5	=	0x00d2
                           0000D3   501 _PCA0CPH5	=	0x00d3
                           0000D4   502 _P0SKIP	=	0x00d4
                           0000D5   503 _P1SKIP	=	0x00d5
                           0000D6   504 _P2SKIP	=	0x00d6
                           0000D7   505 _P0MAT	=	0x00d7
                           0000D8   506 _PCA0CN	=	0x00d8
                           0000D9   507 _PCA0MD	=	0x00d9
                           0000DA   508 _PCA0CPM0	=	0x00da
                           0000DB   509 _PCA0CPM1	=	0x00db
                           0000DC   510 _PCA0CPM2	=	0x00dc
                           0000DD   511 _PCA0CPM3	=	0x00dd
                           0000DE   512 _PCA0CPM4	=	0x00de
                           0000DF   513 _PCA0PWM	=	0x00df
                           0000E0   514 _ACC	=	0x00e0
                           0000E1   515 _XBR0	=	0x00e1
                           0000E2   516 _XBR1	=	0x00e2
                           0000E3   517 _XBR2	=	0x00e3
                           0000E4   518 _IT01CF	=	0x00e4
                           0000E5   519 _FLWR	=	0x00e5
                           0000E6   520 _EIE1	=	0x00e6
                           0000E7   521 _EIE2	=	0x00e7
                           0000E8   522 _ADC0CN	=	0x00e8
                           0000E9   523 _PCA0CPL1	=	0x00e9
                           0000EA   524 _PCA0CPH1	=	0x00ea
                           0000EB   525 _PCA0CPL2	=	0x00eb
                           0000EC   526 _PCA0CPH2	=	0x00ec
                           0000ED   527 _PCA0CPL3	=	0x00ed
                           0000EE   528 _PCA0CPH3	=	0x00ee
                           0000EF   529 _RSTSRC	=	0x00ef
                           0000F0   530 _B	=	0x00f0
                           0000F1   531 _P0MDIN	=	0x00f1
                           0000F2   532 _P1MDIN	=	0x00f2
                           0000F3   533 _P2MDIN	=	0x00f3
                           0000F4   534 _SMB0ADR	=	0x00f4
                           0000F5   535 _SMB0ADM	=	0x00f5
                           0000F6   536 _EIP1	=	0x00f6
                           0000F7   537 _EIP2	=	0x00f7
                           0000F8   538 _SPI0CN	=	0x00f8
                           0000F9   539 _PCA0L	=	0x00f9
                           0000FA   540 _PCA0H	=	0x00fa
                           0000FB   541 _PCA0CPL0	=	0x00fb
                           0000FC   542 _PCA0CPH0	=	0x00fc
                           0000FD   543 _PCA0CPL4	=	0x00fd
                           0000FE   544 _PCA0CPH4	=	0x00fe
                           0000FF   545 _VDM0CN	=	0x00ff
                           000089   546 _LCD0D0	=	0x0089
                           00008A   547 _LCD0D1	=	0x008a
                           00008B   548 _LCD0D2	=	0x008b
                           00008C   549 _LCD0D3	=	0x008c
                           00008D   550 _LCD0D4	=	0x008d
                           00008E   551 _LCD0D5	=	0x008e
                           000091   552 _LCD0D6	=	0x0091
                           000092   553 _LCD0D7	=	0x0092
                           000093   554 _LCD0D8	=	0x0093
                           000094   555 _LCD0D9	=	0x0094
                           000095   556 _LCD0DA	=	0x0095
                           000096   557 _LCD0DB	=	0x0096
                           000097   558 _LCD0DC	=	0x0097
                           000099   559 _LCD0DD	=	0x0099
                           00009A   560 _LCD0DE	=	0x009a
                           00009B   561 _LCD0DF	=	0x009b
                           00009C   562 _LCD0CNTRST	=	0x009c
                           00009D   563 _LCD0CN	=	0x009d
                           00009E   564 _LCD0BLINK	=	0x009e
                           00009F   565 _LCD0TOGR	=	0x009f
                           0000A1   566 _SPI1CFG	=	0x00a1
                           0000A2   567 _SPI1CKR	=	0x00a2
                           0000A3   568 _SPI1DAT	=	0x00a3
                           0000A4   569 _LCD0PWR	=	0x00a4
                           0000A5   570 _LCD0CF	=	0x00a5
                           0000A6   571 _LCD0VBMCN	=	0x00a6
                           0000A9   572 _LCD0CLKDIVL	=	0x00a9
                           0000AA   573 _LCD0CLKDIVH	=	0x00aa
                           0000AB   574 _LCD0MSCN	=	0x00ab
                           0000AC   575 _LCD0MSCF	=	0x00ac
                           0000AD   576 _LCD0CHPCF	=	0x00ad
                           0000AE   577 _LCD0CHPMD	=	0x00ae
                           0000AF   578 _LCD0VBMCF	=	0x00af
                           0000B1   579 _DC0CN	=	0x00b1
                           0000B2   580 _DC0CF	=	0x00b2
                           0000B3   581 _DC0MD	=	0x00b3
                           0000B5   582 _LCD0CHPCN	=	0x00b5
                           0000B6   583 _LCD0BUFMD	=	0x00b6
                           0000B9   584 _CRC1IN	=	0x00b9
                           0000BA   585 _CRC1OUTL	=	0x00ba
                           0000BB   586 _CRC1OUTH	=	0x00bb
                           0000BC   587 _CRC1POLL	=	0x00bc
                           0000BD   588 _CRC1POLH	=	0x00bd
                           0000BE   589 _CRC1CN	=	0x00be
                           0000C1   590 _PC0STAT	=	0x00c1
                           0000C2   591 _ENC0L	=	0x00c2
                           0000C3   592 _ENC0M	=	0x00c3
                           0000C4   593 _ENC0H	=	0x00c4
                           0000C5   594 _ENC0CN	=	0x00c5
                           0000C6   595 _VREGINSDL	=	0x00c6
                           0000C7   596 _VREGINSDH	=	0x00c7
                           0000C9   597 _DMA0NCF	=	0x00c9
                           0000CA   598 _DMA0NBAL	=	0x00ca
                           0000CB   599 _DMA0NBAH	=	0x00cb
                           0000CC   600 _DMA0NAOL	=	0x00cc
                           0000CD   601 _DMA0NAOH	=	0x00cd
                           0000CE   602 _DMA0NSZL	=	0x00ce
                           0000CF   603 _DMA0NSZH	=	0x00cf
                           0000D1   604 _DMA0SEL	=	0x00d1
                           0000D2   605 _DMA0EN	=	0x00d2
                           0000D3   606 _DMA0INT	=	0x00d3
                           0000D4   607 _DMA0MINT	=	0x00d4
                           0000D5   608 _DMA0BUSY	=	0x00d5
                           0000D6   609 _DMA0NMD	=	0x00d6
                           0000D7   610 _PC0PCF	=	0x00d7
                           0000D9   611 _PC0MD	=	0x00d9
                           0000DA   612 _PC0CTR0L	=	0x00da
                           0000DB   613 _PC0CTR0M	=	0x00db
                           0000DC   614 _PC0CTR0H	=	0x00dc
                           0000DD   615 _PC0CTR1L	=	0x00dd
                           0000DE   616 _PC0CTR1M	=	0x00de
                           0000DF   617 _PC0CTR1H	=	0x00df
                           0000E1   618 _PC0CMP0L	=	0x00e1
                           0000E2   619 _PC0CMP0M	=	0x00e2
                           0000E3   620 _PC0CMP0H	=	0x00e3
                           0000E4   621 _PC0TH	=	0x00e4
                           0000E9   622 _AES0BCFG	=	0x00e9
                           0000EA   623 _AES0DCFG	=	0x00ea
                           0000EB   624 _AES0BIN	=	0x00eb
                           0000EC   625 _AES0XIN	=	0x00ec
                           0000ED   626 _AES0KIN	=	0x00ed
                           0000EE   627 _AES0DBA	=	0x00ee
                           0000EF   628 _AES0KBA	=	0x00ef
                           0000F1   629 _PC0CMP1L	=	0x00f1
                           0000F2   630 _PC0CMP1M	=	0x00f2
                           0000F3   631 _PC0CMP1H	=	0x00f3
                           0000F4   632 _PC0HIST	=	0x00f4
                           0000F5   633 _AES0YOUT	=	0x00f5
                           0000F8   634 _SPI1CN	=	0x00f8
                           0000F9   635 _PC0DCL	=	0x00f9
                           0000FA   636 _PC0DCH	=	0x00fa
                           0000FB   637 _PC0INT0	=	0x00fb
                           0000FC   638 _PC0INT1	=	0x00fc
                           0000FD   639 _DC0RDY	=	0x00fd
                           00008E   640 _SFRPGCN	=	0x008e
                           000091   641 _CRC0DAT	=	0x0091
                           000092   642 _CRC0CN	=	0x0092
                           000093   643 _CRC0IN	=	0x0093
                           000094   644 _CRC0FLIP	=	0x0094
                           000096   645 _CRC0AUTO	=	0x0096
                           000097   646 _CRC0CNT	=	0x0097
                           00009C   647 _LCD0BUFCN	=	0x009c
                           0000A1   648 _P3DRV	=	0x00a1
                           0000A2   649 _P4DRV	=	0x00a2
                           0000A3   650 _P5DRV	=	0x00a3
                           0000A4   651 _P0DRV	=	0x00a4
                           0000A5   652 _P1DRV	=	0x00a5
                           0000A6   653 _P2DRV	=	0x00a6
                           0000AA   654 _P6DRV	=	0x00aa
                           0000AB   655 _P7DRV	=	0x00ab
                           0000AC   656 _LCD0BUFCF	=	0x00ac
                           0000B1   657 _P3MDOUT	=	0x00b1
                           0000B2   658 _OSCIFL	=	0x00b2
                           0000B3   659 _OSCICL	=	0x00b3
                           0000B6   660 _FLSCL	=	0x00b6
                           0000B9   661 _IREF0CF	=	0x00b9
                           0000BB   662 _ADC0PWR	=	0x00bb
                           0000BC   663 _ADC0TK	=	0x00bc
                           0000BD   664 _TOFFL	=	0x00bd
                           0000BE   665 _TOFFH	=	0x00be
                           0000D9   666 _P4	=	0x00d9
                           0000DA   667 _P5	=	0x00da
                           0000DB   668 _P6	=	0x00db
                           0000DC   669 _P7	=	0x00dc
                           0000E9   670 _HWID	=	0x00e9
                           0000EA   671 _REVID	=	0x00ea
                           0000EB   672 _DEVICEID	=	0x00eb
                           0000F1   673 _P3MDIN	=	0x00f1
                           0000F2   674 _P4MDIN	=	0x00f2
                           0000F3   675 _P5MDIN	=	0x00f3
                           0000F4   676 _P6MDIN	=	0x00f4
                           0000F5   677 _PCLKACT	=	0x00f5
                           0000F9   678 _P4MDOUT	=	0x00f9
                           0000FA   679 _P5MDOUT	=	0x00fa
                           0000FB   680 _P6MDOUT	=	0x00fb
                           0000FC   681 _P7MDOUT	=	0x00fc
                           0000FD   682 _CLKMODE	=	0x00fd
                           0000FE   683 _PCLKEN	=	0x00fe
                           008382   684 _DP	=	0x8382
                           008685   685 _TOFF	=	0x8685
                           009392   686 _TMR3RL	=	0x9392
                           009594   687 _TMR3	=	0x9594
                           00BEBD   688 _ADC0	=	0xbebd
                           00C4C3   689 _ADC0GT	=	0xc4c3
                           00C6C5   690 _ADC0LT	=	0xc6c5
                           00CBCA   691 _TMR2RL	=	0xcbca
                           00CDCC   692 _TMR2	=	0xcdcc
                           00D3D2   693 _PCA0CP5	=	0xd3d2
                           00EAE9   694 _PCA0CP1	=	0xeae9
                           00ECEB   695 _PCA0CP2	=	0xeceb
                           00EEED   696 _PCA0CP3	=	0xeeed
                           00FAF9   697 _PCA0	=	0xfaf9
                           00FCFB   698 _PCA0CP0	=	0xfcfb
                           00FEFD   699 _PCA0CP4	=	0xfefd
                           0000AA   700 __XPAGE	=	0x00aa
                                    701 ;--------------------------------------------------------
                                    702 ; special function bits
                                    703 ;--------------------------------------------------------
                                    704 	.area RSEG    (ABS,DATA)
      000000                        705 	.org 0x0000
                           00008F   706 _TF1	=	0x008f
                           00008E   707 _TR1	=	0x008e
                           00008D   708 _TF0	=	0x008d
                           00008C   709 _TR0	=	0x008c
                           00008B   710 _IE1	=	0x008b
                           00008A   711 _IT1	=	0x008a
                           000089   712 _IE0	=	0x0089
                           000088   713 _IT0	=	0x0088
                           00009F   714 _S0MODE	=	0x009f
                           00009D   715 _MCE0	=	0x009d
                           00009C   716 _REN0	=	0x009c
                           00009B   717 _TB80	=	0x009b
                           00009A   718 _RB80	=	0x009a
                           000099   719 _TI0	=	0x0099
                           000098   720 _RI0	=	0x0098
                           0000AF   721 _EA	=	0x00af
                           0000AE   722 _ESPI0	=	0x00ae
                           0000AD   723 _ET2	=	0x00ad
                           0000AC   724 _ES0	=	0x00ac
                           0000AB   725 _ET1	=	0x00ab
                           0000AA   726 _EX1	=	0x00aa
                           0000A9   727 _ET0	=	0x00a9
                           0000A8   728 _EX0	=	0x00a8
                           0000BE   729 _PSPI0	=	0x00be
                           0000BD   730 _PT2	=	0x00bd
                           0000BC   731 _PS0	=	0x00bc
                           0000BB   732 _PT1	=	0x00bb
                           0000BA   733 _PX1	=	0x00ba
                           0000B9   734 _PT0	=	0x00b9
                           0000B8   735 _PX0	=	0x00b8
                           0000C7   736 _MASTER	=	0x00c7
                           0000C6   737 _TXMODE	=	0x00c6
                           0000C5   738 _STA	=	0x00c5
                           0000C4   739 _STO	=	0x00c4
                           0000C3   740 _ACKRQ	=	0x00c3
                           0000C2   741 _ARBLOST	=	0x00c2
                           0000C1   742 _ACK	=	0x00c1
                           0000C0   743 _SI	=	0x00c0
                           0000CF   744 _TF2H	=	0x00cf
                           0000CE   745 _TF2L	=	0x00ce
                           0000CD   746 _TF2LEN	=	0x00cd
                           0000CC   747 _TF2CEN	=	0x00cc
                           0000CB   748 _T2SPLIT	=	0x00cb
                           0000CA   749 _TR2	=	0x00ca
                           0000C9   750 _T2RCLK	=	0x00c9
                           0000C8   751 _T2XCLK	=	0x00c8
                           0000D7   752 _CY	=	0x00d7
                           0000D6   753 _AC	=	0x00d6
                           0000D5   754 _F0	=	0x00d5
                           0000D4   755 _RS1	=	0x00d4
                           0000D3   756 _RS0	=	0x00d3
                           0000D2   757 _OV	=	0x00d2
                           0000D1   758 _F1	=	0x00d1
                           0000D0   759 _P	=	0x00d0
                           0000DF   760 _CF	=	0x00df
                           0000DE   761 _CR	=	0x00de
                           0000DD   762 _CCF5	=	0x00dd
                           0000DC   763 _CCF4	=	0x00dc
                           0000DB   764 _CCF3	=	0x00db
                           0000DA   765 _CCF2	=	0x00da
                           0000D9   766 _CCF1	=	0x00d9
                           0000D8   767 _CCF0	=	0x00d8
                           0000EF   768 _AD0EN	=	0x00ef
                           0000EE   769 _BURSTEN	=	0x00ee
                           0000ED   770 _AD0INT	=	0x00ed
                           0000EC   771 _AD0BUSY	=	0x00ec
                           0000EB   772 _AD0WINT	=	0x00eb
                           0000EA   773 _AD0CM2	=	0x00ea
                           0000E9   774 _AD0CM1	=	0x00e9
                           0000E8   775 _AD0CM0	=	0x00e8
                           0000FF   776 _SPIF0	=	0x00ff
                           0000FE   777 _WCOL0	=	0x00fe
                           0000FD   778 _MODF0	=	0x00fd
                           0000FC   779 _RXOVRN0	=	0x00fc
                           0000FB   780 _NSS0MD1	=	0x00fb
                           0000FA   781 _NSS0MD0	=	0x00fa
                           0000F9   782 _TXBMT0	=	0x00f9
                           0000F8   783 _SPI0EN	=	0x00f8
                           0000FF   784 _SPIF1	=	0x00ff
                           0000FE   785 _WCOL1	=	0x00fe
                           0000FD   786 _MODF1	=	0x00fd
                           0000FC   787 _RXOVRN1	=	0x00fc
                           0000FB   788 _NSS1MD1	=	0x00fb
                           0000FA   789 _NSS1MD0	=	0x00fa
                           0000F9   790 _TXBMT1	=	0x00f9
                           0000F8   791 _SPI1EN	=	0x00f8
                           0000B6   792 _LED_RED	=	0x00b6
                           0000B7   793 _LED_GREEN	=	0x00b7
                           000082   794 _PIN_CONFIG	=	0x0082
                           000083   795 _PIN_ENABLE	=	0x0083
                           000081   796 _IRQ	=	0x0081
                           0000A3   797 _NSS1	=	0x00a3
                                    798 ;--------------------------------------------------------
                                    799 ; overlayable register banks
                                    800 ;--------------------------------------------------------
                                    801 	.area REG_BANK_0	(REL,OVR,DATA)
      000000                        802 	.ds 8
                                    803 ;--------------------------------------------------------
                                    804 ; overlayable bit register bank
                                    805 ;--------------------------------------------------------
                                    806 	.area BIT_BANK	(REL,OVR,DATA)
      000027                        807 bits:
      000027                        808 	.ds 1
                           008000   809 	b0 = bits[0]
                           008100   810 	b1 = bits[1]
                           008200   811 	b2 = bits[2]
                           008300   812 	b3 = bits[3]
                           008400   813 	b4 = bits[4]
                           008500   814 	b5 = bits[5]
                           008600   815 	b6 = bits[6]
                           008700   816 	b7 = bits[7]
                                    817 ;--------------------------------------------------------
                                    818 ; internal ram data
                                    819 ;--------------------------------------------------------
                                    820 	.area DSEG    (DATA)
      000060                        821 _serial_decrypt_buf_sloc0_1_0:
      000060                        822 	.ds 3
      000063                        823 _serial_read_buf_sloc0_1_0:
      000063                        824 	.ds 3
                                    825 ;--------------------------------------------------------
                                    826 ; overlayable items in internal ram 
                                    827 ;--------------------------------------------------------
                                    828 	.area	OSEG    (OVR,DATA)
                                    829 	.area	OSEG    (OVR,DATA)
                                    830 	.area	OSEG    (OVR,DATA)
                                    831 	.area	OSEG    (OVR,DATA)
                                    832 	.area	OSEG    (OVR,DATA)
                                    833 	.area	OSEG    (OVR,DATA)
                                    834 	.area	OSEG    (OVR,DATA)
                                    835 ;--------------------------------------------------------
                                    836 ; indirectly addressable internal ram data
                                    837 ;--------------------------------------------------------
                                    838 	.area ISEG    (DATA)
                                    839 ;--------------------------------------------------------
                                    840 ; absolute internal ram data
                                    841 ;--------------------------------------------------------
                                    842 	.area IABS    (ABS,DATA)
                                    843 	.area IABS    (ABS,DATA)
                                    844 ;--------------------------------------------------------
                                    845 ; bit data
                                    846 ;--------------------------------------------------------
                                    847 	.area BSEG    (BIT)
      000024                        848 _tx_idle:
      000024                        849 	.ds 1
      000025                        850 _decryptPackets_sloc0_1_0:
      000025                        851 	.ds 1
      000026                        852 _serial_decrypt_buf_sloc1_1_0:
      000026                        853 	.ds 1
      000027                        854 _serial_write_buf_sloc0_1_0:
      000027                        855 	.ds 1
      000028                        856 _serial_write_space_ES_saved_1_202:
      000028                        857 	.ds 1
      000029                        858 _serial_read_ES_saved_1_207:
      000029                        859 	.ds 1
      00002A                        860 _serial_peek_ES_saved_1_213:
      00002A                        861 	.ds 1
      00002B                        862 _serial_peekx_ES_saved_1_215:
      00002B                        863 	.ds 1
      00002C                        864 _serial_read_buf_sloc1_1_0:
      00002C                        865 	.ds 1
      00002D                        866 _serial_read_available_ES_saved_1_227:
      00002D                        867 	.ds 1
                                    868 ;--------------------------------------------------------
                                    869 ; paged external ram data
                                    870 ;--------------------------------------------------------
                                    871 	.area PSEG    (PAG,XDATA)
      0000DB                        872 _encrypt_buff_start:
      0000DB                        873 	.ds 2
      0000DD                        874 _encrypt_buff_end:
      0000DD                        875 	.ds 2
      0000DF                        876 _rx_insert:
      0000DF                        877 	.ds 2
      0000E1                        878 _rx_remove:
      0000E1                        879 	.ds 2
      0000E3                        880 _tx_insert:
      0000E3                        881 	.ds 2
      0000E5                        882 _tx_remove:
      0000E5                        883 	.ds 2
      0000E7                        884 _encrypt_insert:
      0000E7                        885 	.ds 2
      0000E9                        886 _encrypt_remove:
      0000E9                        887 	.ds 2
      0000EB                        888 _decryptPackets_len_decrypted_1_173:
      0000EB                        889 	.ds 1
      0000EC                        890 _serial_decrypt_buf_PARM_2:
      0000EC                        891 	.ds 1
      0000ED                        892 _serial_write_buf_PARM_2:
      0000ED                        893 	.ds 1
      0000EE                        894 _serial_read_buf_PARM_2:
      0000EE                        895 	.ds 1
                                    896 ;--------------------------------------------------------
                                    897 ; external ram data
                                    898 ;--------------------------------------------------------
                                    899 	.area XSEG    (XDATA)
      000614                        900 _rts_count:
      000614                        901 	.ds 1
      000615                        902 _decryptPackets_decrypt_buf_1_173:
      000615                        903 	.ds 32
      000635                        904 _serial_decrypt_buf_buf_1_180:
      000635                        905 	.ds 2
      000637                        906 _serial_write_buf_buf_1_189:
      000637                        907 	.ds 2
      000639                        908 _serial_peekx_offset_1_214:
      000639                        909 	.ds 2
      00063B                        910 _serial_read_buf_buf_1_216:
      00063B                        911 	.ds 2
      00063D                        912 _serial_device_set_speed_i_1_237:
      00063D                        913 	.ds 1
                                    914 ;--------------------------------------------------------
                                    915 ; absolute external ram data
                                    916 ;--------------------------------------------------------
                                    917 	.area XABS    (ABS,XDATA)
                                    918 ;--------------------------------------------------------
                                    919 ; external initialized ram data
                                    920 ;--------------------------------------------------------
                                    921 	.area XISEG   (XDATA)
      000777                        922 _rx_buf::
      000777                        923 	.ds 1024
      000B77                        924 _tx_buf::
      000B77                        925 	.ds 1024
      000F77                        926 _encrypt_buf::
      000F77                        927 	.ds 1020
                                    928 	.area HOME    (CODE)
                                    929 	.area GSINIT0 (CODE)
                                    930 	.area GSINIT1 (CODE)
                                    931 	.area GSINIT2 (CODE)
                                    932 	.area GSINIT3 (CODE)
                                    933 	.area GSINIT4 (CODE)
                                    934 	.area GSINIT5 (CODE)
                                    935 	.area GSINIT  (CODE)
                                    936 	.area GSFINAL (CODE)
                                    937 	.area CSEG    (CODE)
                                    938 ;--------------------------------------------------------
                                    939 ; global & static initialisations
                                    940 ;--------------------------------------------------------
                                    941 	.area HOME    (CODE)
                                    942 	.area GSINIT  (CODE)
                                    943 	.area GSFINAL (CODE)
                                    944 	.area GSINIT  (CODE)
                                    945 ;	radio/serial.c:56: static __pdata uint16_t encrypt_buff_start = 400; // Start decrypting more to clear buffer
      00051A 78 DB            [12]  946 	mov	r0,#_encrypt_buff_start
      00051C 74 90            [12]  947 	mov	a,#0x90
      00051E F2               [24]  948 	movx	@r0,a
      00051F 08               [12]  949 	inc	r0
      000520 74 01            [12]  950 	mov	a,#0x01
      000522 F2               [24]  951 	movx	@r0,a
                                    952 ;	radio/serial.c:57: static __pdata uint16_t encrypt_buff_end = 500; // End our quick buffer clear
      000523 78 DD            [12]  953 	mov	r0,#_encrypt_buff_end
      000525 74 F4            [12]  954 	mov	a,#0xF4
      000527 F2               [24]  955 	movx	@r0,a
      000528 08               [12]  956 	inc	r0
      000529 74 01            [12]  957 	mov	a,#0x01
      00052B F2               [24]  958 	movx	@r0,a
                                    959 ;--------------------------------------------------------
                                    960 ; Home
                                    961 ;--------------------------------------------------------
                                    962 	.area HOME    (CODE)
                                    963 	.area HOME    (CODE)
                                    964 ;--------------------------------------------------------
                                    965 ; code
                                    966 ;--------------------------------------------------------
                                    967 	.area CSEG    (CODE)
                                    968 ;------------------------------------------------------------
                                    969 ;Allocation info for local variables in function 'serial_interrupt'
                                    970 ;------------------------------------------------------------
                                    971 ;c                         Allocated to registers r7 
                                    972 ;------------------------------------------------------------
                                    973 ;	radio/serial.c:121: serial_interrupt(void) __interrupt(INTERRUPT_UART0)
                                    974 ;	-----------------------------------------
                                    975 ;	 function serial_interrupt
                                    976 ;	-----------------------------------------
      004E3D                        977 _serial_interrupt:
                           000007   978 	ar7 = 0x07
                           000006   979 	ar6 = 0x06
                           000005   980 	ar5 = 0x05
                           000004   981 	ar4 = 0x04
                           000003   982 	ar3 = 0x03
                           000002   983 	ar2 = 0x02
                           000001   984 	ar1 = 0x01
                           000000   985 	ar0 = 0x00
      004E3D C0 27            [24]  986 	push	bits
      004E3F C0 E0            [24]  987 	push	acc
      004E41 C0 F0            [24]  988 	push	b
      004E43 C0 82            [24]  989 	push	dpl
      004E45 C0 83            [24]  990 	push	dph
      004E47 C0 07            [24]  991 	push	(0+7)
      004E49 C0 06            [24]  992 	push	(0+6)
      004E4B C0 05            [24]  993 	push	(0+5)
      004E4D C0 04            [24]  994 	push	(0+4)
      004E4F C0 03            [24]  995 	push	(0+3)
      004E51 C0 02            [24]  996 	push	(0+2)
      004E53 C0 01            [24]  997 	push	(0+1)
      004E55 C0 00            [24]  998 	push	(0+0)
      004E57 C0 D0            [24]  999 	push	psw
      004E59 75 D0 00         [24] 1000 	mov	psw,#0x00
                                   1001 ;	radio/serial.c:126: if (RI0) {
                                   1002 ;	radio/serial.c:128: RI0 = 0;
      004E5C 10 98 03         [24] 1003 	jbc	_RI0,00192$
      004E5F 02 4F 52         [24] 1004 	ljmp	00117$
      004E62                       1005 00192$:
                                   1006 ;	radio/serial.c:129: c = SBUF0;
      004E62 AF 99            [24] 1007 	mov	r7,_SBUF0
                                   1008 ;	radio/serial.c:132: if (at_mode_active) {
      004E64 30 18 0E         [24] 1009 	jnb	_at_mode_active,00114$
                                   1010 ;	radio/serial.c:134: if (!at_cmd_ready) {
      004E67 30 19 03         [24] 1011 	jnb	_at_cmd_ready,00194$
      004E6A 02 4F 52         [24] 1012 	ljmp	00117$
      004E6D                       1013 00194$:
                                   1014 ;	radio/serial.c:135: at_input(c);
      004E6D 8F 82            [24] 1015 	mov	dpl,r7
      004E6F 12 26 C4         [24] 1016 	lcall	_at_input
      004E72 02 4F 52         [24] 1017 	ljmp	00117$
      004E75                       1018 00114$:
                                   1019 ;	radio/serial.c:139: at_plus_detector(c);
      004E75 8F 82            [24] 1020 	mov	dpl,r7
      004E77 C0 07            [24] 1021 	push	ar7
      004E79 12 27 5A         [24] 1022 	lcall	_at_plus_detector
      004E7C D0 07            [24] 1023 	pop	ar7
                                   1024 ;	radio/serial.c:142: if (BUF_NOT_FULL(rx)) {
      004E7E 78 DF            [12] 1025 	mov	r0,#_rx_insert
      004E80 E2               [24] 1026 	movx	a,@r0
      004E81 24 01            [12] 1027 	add	a,#0x01
      004E83 FD               [12] 1028 	mov	r5,a
      004E84 08               [12] 1029 	inc	r0
      004E85 E2               [24] 1030 	movx	a,@r0
      004E86 34 00            [12] 1031 	addc	a,#0x00
      004E88 FE               [12] 1032 	mov	r6,a
      004E89 BD 00 09         [24] 1033 	cjne	r5,#0x00,00136$
      004E8C BE 04 06         [24] 1034 	cjne	r6,#0x04,00136$
      004E8F 7D 00            [12] 1035 	mov	r5,#0x00
      004E91 7E 00            [12] 1036 	mov	r6,#0x00
      004E93 80 0B            [24] 1037 	sjmp	00137$
      004E95                       1038 00136$:
      004E95 78 DF            [12] 1039 	mov	r0,#_rx_insert
      004E97 E2               [24] 1040 	movx	a,@r0
      004E98 24 01            [12] 1041 	add	a,#0x01
      004E9A FD               [12] 1042 	mov	r5,a
      004E9B 08               [12] 1043 	inc	r0
      004E9C E2               [24] 1044 	movx	a,@r0
      004E9D 34 00            [12] 1045 	addc	a,#0x00
      004E9F FE               [12] 1046 	mov	r6,a
      004EA0                       1047 00137$:
      004EA0 78 E1            [12] 1048 	mov	r0,#_rx_remove
      004EA2 E2               [24] 1049 	movx	a,@r0
      004EA3 B5 05 07         [24] 1050 	cjne	a,ar5,00197$
      004EA6 08               [12] 1051 	inc	r0
      004EA7 E2               [24] 1052 	movx	a,@r0
      004EA8 B5 06 02         [24] 1053 	cjne	a,ar6,00197$
      004EAB 80 3A            [24] 1054 	sjmp	00109$
      004EAD                       1055 00197$:
                                   1056 ;	radio/serial.c:143: BUF_INSERT(rx, c);
      004EAD 78 DF            [12] 1057 	mov	r0,#_rx_insert
      004EAF E2               [24] 1058 	movx	a,@r0
      004EB0 24 77            [12] 1059 	add	a,#_rx_buf
      004EB2 F5 82            [12] 1060 	mov	dpl,a
      004EB4 08               [12] 1061 	inc	r0
      004EB5 E2               [24] 1062 	movx	a,@r0
      004EB6 34 07            [12] 1063 	addc	a,#(_rx_buf >> 8)
      004EB8 F5 83            [12] 1064 	mov	dph,a
      004EBA EF               [12] 1065 	mov	a,r7
      004EBB F0               [24] 1066 	movx	@dptr,a
      004EBC 78 DF            [12] 1067 	mov	r0,#_rx_insert
      004EBE E2               [24] 1068 	movx	a,@r0
      004EBF 24 01            [12] 1069 	add	a,#0x01
      004EC1 FD               [12] 1070 	mov	r5,a
      004EC2 08               [12] 1071 	inc	r0
      004EC3 E2               [24] 1072 	movx	a,@r0
      004EC4 34 00            [12] 1073 	addc	a,#0x00
      004EC6 FE               [12] 1074 	mov	r6,a
      004EC7 BD 00 09         [24] 1075 	cjne	r5,#0x00,00138$
      004ECA BE 04 06         [24] 1076 	cjne	r6,#0x04,00138$
      004ECD 7D 00            [12] 1077 	mov	r5,#0x00
      004ECF 7E 00            [12] 1078 	mov	r6,#0x00
      004ED1 80 0B            [24] 1079 	sjmp	00139$
      004ED3                       1080 00138$:
      004ED3 78 DF            [12] 1081 	mov	r0,#_rx_insert
      004ED5 E2               [24] 1082 	movx	a,@r0
      004ED6 24 01            [12] 1083 	add	a,#0x01
      004ED8 FD               [12] 1084 	mov	r5,a
      004ED9 08               [12] 1085 	inc	r0
      004EDA E2               [24] 1086 	movx	a,@r0
      004EDB 34 00            [12] 1087 	addc	a,#0x00
      004EDD FE               [12] 1088 	mov	r6,a
      004EDE                       1089 00139$:
      004EDE 78 DF            [12] 1090 	mov	r0,#_rx_insert
      004EE0 ED               [12] 1091 	mov	a,r5
      004EE1 F2               [24] 1092 	movx	@r0,a
      004EE2 08               [12] 1093 	inc	r0
      004EE3 EE               [12] 1094 	mov	a,r6
      004EE4 F2               [24] 1095 	movx	@r0,a
      004EE5 80 1B            [24] 1096 	sjmp	00110$
      004EE7                       1097 00109$:
                                   1098 ;	radio/serial.c:145: if (errors.serial_rx_overflow != 0xFFFF) {
      004EE7 78 CB            [12] 1099 	mov	r0,#(_errors + 0x0006)
      004EE9 E2               [24] 1100 	movx	a,@r0
      004EEA FD               [12] 1101 	mov	r5,a
      004EEB 08               [12] 1102 	inc	r0
      004EEC E2               [24] 1103 	movx	a,@r0
      004EED FE               [12] 1104 	mov	r6,a
      004EEE BD FF 05         [24] 1105 	cjne	r5,#0xFF,00200$
      004EF1 BE FF 02         [24] 1106 	cjne	r6,#0xFF,00200$
      004EF4 80 0C            [24] 1107 	sjmp	00110$
      004EF6                       1108 00200$:
                                   1109 ;	radio/serial.c:146: errors.serial_rx_overflow++;
      004EF6 0D               [12] 1110 	inc	r5
      004EF7 BD 00 01         [24] 1111 	cjne	r5,#0x00,00201$
      004EFA 0E               [12] 1112 	inc	r6
      004EFB                       1113 00201$:
      004EFB 78 CB            [12] 1114 	mov	r0,#(_errors + 0x0006)
      004EFD ED               [12] 1115 	mov	a,r5
      004EFE F2               [24] 1116 	movx	@r0,a
      004EFF 08               [12] 1117 	inc	r0
      004F00 EE               [12] 1118 	mov	a,r6
      004F01 F2               [24] 1119 	movx	@r0,a
      004F02                       1120 00110$:
                                   1121 ;	radio/serial.c:150: if (BUF_FREE(rx) < SERIAL_CTS_THRESHOLD_LOW) {
      004F02 78 DF            [12] 1122 	mov	r0,#_rx_insert
      004F04 79 E1            [12] 1123 	mov	r1,#_rx_remove
      004F06 C3               [12] 1124 	clr	c
      004F07 E3               [24] 1125 	movx	a,@r1
      004F08 F5 F0            [12] 1126 	mov	b,a
      004F0A E2               [24] 1127 	movx	a,@r0
      004F0B 95 F0            [12] 1128 	subb	a,b
      004F0D 09               [12] 1129 	inc	r1
      004F0E E3               [24] 1130 	movx	a,@r1
      004F0F F5 F0            [12] 1131 	mov	b,a
      004F11 08               [12] 1132 	inc	r0
      004F12 E2               [24] 1133 	movx	a,@r0
      004F13 95 F0            [12] 1134 	subb	a,b
      004F15 40 1B            [24] 1135 	jc	00140$
      004F17 78 E1            [12] 1136 	mov	r0,#_rx_remove
      004F19 E2               [24] 1137 	movx	a,@r0
      004F1A 24 00            [12] 1138 	add	a,#0x00
      004F1C FD               [12] 1139 	mov	r5,a
      004F1D 08               [12] 1140 	inc	r0
      004F1E E2               [24] 1141 	movx	a,@r0
      004F1F 34 04            [12] 1142 	addc	a,#0x04
      004F21 FE               [12] 1143 	mov	r6,a
      004F22 78 DF            [12] 1144 	mov	r0,#_rx_insert
      004F24 D3               [12] 1145 	setb	c
      004F25 E2               [24] 1146 	movx	a,@r0
      004F26 9D               [12] 1147 	subb	a,r5
      004F27 F4               [12] 1148 	cpl	a
      004F28 B3               [12] 1149 	cpl	c
      004F29 FD               [12] 1150 	mov	r5,a
      004F2A B3               [12] 1151 	cpl	c
      004F2B 08               [12] 1152 	inc	r0
      004F2C E2               [24] 1153 	movx	a,@r0
      004F2D 9E               [12] 1154 	subb	a,r6
      004F2E F4               [12] 1155 	cpl	a
      004F2F FE               [12] 1156 	mov	r6,a
      004F30 80 15            [24] 1157 	sjmp	00141$
      004F32                       1158 00140$:
      004F32 78 E1            [12] 1159 	mov	r0,#_rx_remove
      004F34 79 DF            [12] 1160 	mov	r1,#_rx_insert
      004F36 E3               [24] 1161 	movx	a,@r1
      004F37 F5 F0            [12] 1162 	mov	b,a
      004F39 C3               [12] 1163 	clr	c
      004F3A E2               [24] 1164 	movx	a,@r0
      004F3B 95 F0            [12] 1165 	subb	a,b
      004F3D FD               [12] 1166 	mov	r5,a
      004F3E 09               [12] 1167 	inc	r1
      004F3F E3               [24] 1168 	movx	a,@r1
      004F40 F5 F0            [12] 1169 	mov	b,a
      004F42 08               [12] 1170 	inc	r0
      004F43 E2               [24] 1171 	movx	a,@r0
      004F44 95 F0            [12] 1172 	subb	a,b
      004F46 FE               [12] 1173 	mov	r6,a
      004F47                       1174 00141$:
      004F47 C3               [12] 1175 	clr	c
      004F48 ED               [12] 1176 	mov	a,r5
      004F49 94 11            [12] 1177 	subb	a,#0x11
      004F4B EE               [12] 1178 	mov	a,r6
      004F4C 94 00            [12] 1179 	subb	a,#0x00
      004F4E 50 02            [24] 1180 	jnc	00117$
                                   1181 ;	radio/serial.c:151: SERIAL_CTS = true;
      004F50 D2 82            [12] 1182 	setb	_PIN_CONFIG
      004F52                       1183 00117$:
                                   1184 ;	radio/serial.c:158: if (TI0) {
                                   1185 ;	radio/serial.c:160: TI0 = 0;
      004F52 10 99 03         [24] 1186 	jbc	_TI0,00204$
      004F55 02 4F CF         [24] 1187 	ljmp	00134$
      004F58                       1188 00204$:
                                   1189 ;	radio/serial.c:163: if (BUF_NOT_EMPTY(tx)) {
      004F58 78 E3            [12] 1190 	mov	r0,#_tx_insert
      004F5A 79 E5            [12] 1191 	mov	r1,#_tx_remove
      004F5C E2               [24] 1192 	movx	a,@r0
      004F5D F5 F0            [12] 1193 	mov	b,a
      004F5F E3               [24] 1194 	movx	a,@r1
      004F60 B5 F0 0B         [24] 1195 	cjne	a,b,00205$
      004F63 08               [12] 1196 	inc	r0
      004F64 E2               [24] 1197 	movx	a,@r0
      004F65 F5 F0            [12] 1198 	mov	b,a
      004F67 09               [12] 1199 	inc	r1
      004F68 E3               [24] 1200 	movx	a,@r1
      004F69 B5 F0 02         [24] 1201 	cjne	a,b,00205$
      004F6C 80 5F            [24] 1202 	sjmp	00130$
      004F6E                       1203 00205$:
                                   1204 ;	radio/serial.c:165: if (feature_rtscts) {
      004F6E 30 23 20         [24] 1205 	jnb	_feature_rtscts,00126$
                                   1206 ;	radio/serial.c:166: if (SERIAL_RTS && !at_mode_active) {
      004F71 30 83 17         [24] 1207 	jnb	_PIN_ENABLE,00121$
      004F74 20 18 14         [24] 1208 	jb	_at_mode_active,00121$
                                   1209 ;	radio/serial.c:167: if (rts_count == 0) {
      004F77 90 06 14         [24] 1210 	mov	dptr,#_rts_count
      004F7A E0               [24] 1211 	movx	a,@dptr
      004F7B FE               [12] 1212 	mov	r6,a
      004F7C E0               [24] 1213 	movx	a,@dptr
      004F7D 70 04            [24] 1214 	jnz	00119$
                                   1215 ;	radio/serial.c:170: tx_idle = true;
      004F7F D2 24            [12] 1216 	setb	_tx_idle
                                   1217 ;	radio/serial.c:171: return;
      004F81 80 4C            [24] 1218 	sjmp	00134$
      004F83                       1219 00119$:
                                   1220 ;	radio/serial.c:173: rts_count--;
      004F83 EE               [12] 1221 	mov	a,r6
      004F84 14               [12] 1222 	dec	a
      004F85 90 06 14         [24] 1223 	mov	dptr,#_rts_count
      004F88 F0               [24] 1224 	movx	@dptr,a
      004F89 80 06            [24] 1225 	sjmp	00126$
      004F8B                       1226 00121$:
                                   1227 ;	radio/serial.c:175: rts_count = 8;
      004F8B 90 06 14         [24] 1228 	mov	dptr,#_rts_count
      004F8E 74 08            [12] 1229 	mov	a,#0x08
      004F90 F0               [24] 1230 	movx	@dptr,a
                                   1231 ;	radio/serial.c:180: BUF_REMOVE(tx, c);
      004F91                       1232 00126$:
      004F91 78 E5            [12] 1233 	mov	r0,#_tx_remove
      004F93 E2               [24] 1234 	movx	a,@r0
      004F94 24 77            [12] 1235 	add	a,#_tx_buf
      004F96 F5 82            [12] 1236 	mov	dpl,a
      004F98 08               [12] 1237 	inc	r0
      004F99 E2               [24] 1238 	movx	a,@r0
      004F9A 34 0B            [12] 1239 	addc	a,#(_tx_buf >> 8)
      004F9C F5 83            [12] 1240 	mov	dph,a
      004F9E E0               [24] 1241 	movx	a,@dptr
      004F9F FF               [12] 1242 	mov	r7,a
      004FA0 78 E5            [12] 1243 	mov	r0,#_tx_remove
      004FA2 E2               [24] 1244 	movx	a,@r0
      004FA3 24 01            [12] 1245 	add	a,#0x01
      004FA5 FD               [12] 1246 	mov	r5,a
      004FA6 08               [12] 1247 	inc	r0
      004FA7 E2               [24] 1248 	movx	a,@r0
      004FA8 34 00            [12] 1249 	addc	a,#0x00
      004FAA FE               [12] 1250 	mov	r6,a
      004FAB BD 00 09         [24] 1251 	cjne	r5,#0x00,00142$
      004FAE BE 04 06         [24] 1252 	cjne	r6,#0x04,00142$
      004FB1 7D 00            [12] 1253 	mov	r5,#0x00
      004FB3 7E 00            [12] 1254 	mov	r6,#0x00
      004FB5 80 0B            [24] 1255 	sjmp	00143$
      004FB7                       1256 00142$:
      004FB7 78 E5            [12] 1257 	mov	r0,#_tx_remove
      004FB9 E2               [24] 1258 	movx	a,@r0
      004FBA 24 01            [12] 1259 	add	a,#0x01
      004FBC FD               [12] 1260 	mov	r5,a
      004FBD 08               [12] 1261 	inc	r0
      004FBE E2               [24] 1262 	movx	a,@r0
      004FBF 34 00            [12] 1263 	addc	a,#0x00
      004FC1 FE               [12] 1264 	mov	r6,a
      004FC2                       1265 00143$:
      004FC2 78 E5            [12] 1266 	mov	r0,#_tx_remove
      004FC4 ED               [12] 1267 	mov	a,r5
      004FC5 F2               [24] 1268 	movx	@r0,a
      004FC6 08               [12] 1269 	inc	r0
      004FC7 EE               [12] 1270 	mov	a,r6
      004FC8 F2               [24] 1271 	movx	@r0,a
                                   1272 ;	radio/serial.c:181: SBUF0 = c;
      004FC9 8F 99            [24] 1273 	mov	_SBUF0,r7
      004FCB 80 02            [24] 1274 	sjmp	00134$
      004FCD                       1275 00130$:
                                   1276 ;	radio/serial.c:184: tx_idle = true;
      004FCD D2 24            [12] 1277 	setb	_tx_idle
      004FCF                       1278 00134$:
      004FCF D0 D0            [24] 1279 	pop	psw
      004FD1 D0 00            [24] 1280 	pop	(0+0)
      004FD3 D0 01            [24] 1281 	pop	(0+1)
      004FD5 D0 02            [24] 1282 	pop	(0+2)
      004FD7 D0 03            [24] 1283 	pop	(0+3)
      004FD9 D0 04            [24] 1284 	pop	(0+4)
      004FDB D0 05            [24] 1285 	pop	(0+5)
      004FDD D0 06            [24] 1286 	pop	(0+6)
      004FDF D0 07            [24] 1287 	pop	(0+7)
      004FE1 D0 83            [24] 1288 	pop	dph
      004FE3 D0 82            [24] 1289 	pop	dpl
      004FE5 D0 F0            [24] 1290 	pop	b
      004FE7 D0 E0            [24] 1291 	pop	acc
      004FE9 D0 27            [24] 1292 	pop	bits
      004FEB 32               [24] 1293 	reti
                                   1294 ;------------------------------------------------------------
                                   1295 ;Allocation info for local variables in function 'serial_check_rts'
                                   1296 ;------------------------------------------------------------
                                   1297 ;	radio/serial.c:193: serial_check_rts(void)
                                   1298 ;	-----------------------------------------
                                   1299 ;	 function serial_check_rts
                                   1300 ;	-----------------------------------------
      004FEC                       1301 _serial_check_rts:
                                   1302 ;	radio/serial.c:195: if (BUF_NOT_EMPTY(tx) && tx_idle) {
      004FEC 78 E3            [12] 1303 	mov	r0,#_tx_insert
      004FEE 79 E5            [12] 1304 	mov	r1,#_tx_remove
      004FF0 E2               [24] 1305 	movx	a,@r0
      004FF1 F5 F0            [12] 1306 	mov	b,a
      004FF3 E3               [24] 1307 	movx	a,@r1
      004FF4 B5 F0 0A         [24] 1308 	cjne	a,b,00112$
      004FF7 08               [12] 1309 	inc	r0
      004FF8 E2               [24] 1310 	movx	a,@r0
      004FF9 F5 F0            [12] 1311 	mov	b,a
      004FFB 09               [12] 1312 	inc	r1
      004FFC E3               [24] 1313 	movx	a,@r1
      004FFD B5 F0 01         [24] 1314 	cjne	a,b,00112$
      005000 22               [24] 1315 	ret
      005001                       1316 00112$:
      005001 30 24 03         [24] 1317 	jnb	_tx_idle,00104$
                                   1318 ;	radio/serial.c:196: serial_restart();
      005004 02 54 A6         [24] 1319 	ljmp	_serial_restart
      005007                       1320 00104$:
      005007 22               [24] 1321 	ret
                                   1322 ;------------------------------------------------------------
                                   1323 ;Allocation info for local variables in function 'serial_init'
                                   1324 ;------------------------------------------------------------
                                   1325 ;speed                     Allocated to registers r7 
                                   1326 ;------------------------------------------------------------
                                   1327 ;	radio/serial.c:201: serial_init(register uint8_t speed)
                                   1328 ;	-----------------------------------------
                                   1329 ;	 function serial_init
                                   1330 ;	-----------------------------------------
      005008                       1331 _serial_init:
      005008 AF 82            [24] 1332 	mov	r7,dpl
                                   1333 ;	radio/serial.c:204: ES0 = 0;
      00500A C2 AC            [12] 1334 	clr	_ES0
                                   1335 ;	radio/serial.c:207: rx_insert = 0;
      00500C 78 DF            [12] 1336 	mov	r0,#_rx_insert
      00500E E4               [12] 1337 	clr	a
      00500F F2               [24] 1338 	movx	@r0,a
      005010 08               [12] 1339 	inc	r0
      005011 F2               [24] 1340 	movx	@r0,a
                                   1341 ;	radio/serial.c:208: rx_remove = 0;
      005012 78 E1            [12] 1342 	mov	r0,#_rx_remove
      005014 F2               [24] 1343 	movx	@r0,a
      005015 08               [12] 1344 	inc	r0
      005016 F2               [24] 1345 	movx	@r0,a
                                   1346 ;	radio/serial.c:209: tx_insert = 0;
      005017 78 E3            [12] 1347 	mov	r0,#_tx_insert
      005019 F2               [24] 1348 	movx	@r0,a
      00501A 08               [12] 1349 	inc	r0
      00501B F2               [24] 1350 	movx	@r0,a
                                   1351 ;	radio/serial.c:210: tx_remove = 0;
      00501C 78 E5            [12] 1352 	mov	r0,#_tx_remove
      00501E F2               [24] 1353 	movx	@r0,a
      00501F 08               [12] 1354 	inc	r0
      005020 F2               [24] 1355 	movx	@r0,a
                                   1356 ;	radio/serial.c:212: encrypt_insert = 0;
      005021 78 E7            [12] 1357 	mov	r0,#_encrypt_insert
      005023 F2               [24] 1358 	movx	@r0,a
      005024 08               [12] 1359 	inc	r0
      005025 F2               [24] 1360 	movx	@r0,a
                                   1361 ;	radio/serial.c:213: encrypt_remove = 0;
      005026 78 E9            [12] 1362 	mov	r0,#_encrypt_remove
      005028 F2               [24] 1363 	movx	@r0,a
      005029 08               [12] 1364 	inc	r0
      00502A F2               [24] 1365 	movx	@r0,a
                                   1366 ;	radio/serial.c:215: tx_idle = true;
      00502B D2 24            [12] 1367 	setb	_tx_idle
                                   1368 ;	radio/serial.c:218: TR1 	= 0;				// timer off
      00502D C2 8E            [12] 1369 	clr	_TR1
                                   1370 ;	radio/serial.c:219: TMOD	= (TMOD & ~0xf0) | 0x20;	// 8-bit free-running auto-reload mode
      00502F AE 89            [24] 1371 	mov	r6,_TMOD
      005031 74 0F            [12] 1372 	mov	a,#0x0F
      005033 5E               [12] 1373 	anl	a,r6
      005034 44 20            [12] 1374 	orl	a,#0x20
      005036 F5 89            [12] 1375 	mov	_TMOD,a
                                   1376 ;	radio/serial.c:220: serial_device_set_speed(speed);		// device-specific clocking setup
      005038 8F 82            [24] 1377 	mov	dpl,r7
      00503A 12 57 F3         [24] 1378 	lcall	_serial_device_set_speed
                                   1379 ;	radio/serial.c:221: TR1	= 1;				// timer on
      00503D D2 8E            [12] 1380 	setb	_TR1
                                   1381 ;	radio/serial.c:224: SCON0	= 0x10;				// enable receiver, clear interrupts
      00503F 75 98 10         [24] 1382 	mov	_SCON0,#0x10
                                   1383 ;	radio/serial.c:229: SERIAL_CTS = false;
      005042 C2 82            [12] 1384 	clr	_PIN_CONFIG
                                   1385 ;	radio/serial.c:233: ES0 = 1;
      005044 D2 AC            [12] 1386 	setb	_ES0
      005046 22               [24] 1387 	ret
                                   1388 ;------------------------------------------------------------
                                   1389 ;Allocation info for local variables in function 'serial_write'
                                   1390 ;------------------------------------------------------------
                                   1391 ;c                         Allocated to registers r7 
                                   1392 ;------------------------------------------------------------
                                   1393 ;	radio/serial.c:237: serial_write(register uint8_t c)
                                   1394 ;	-----------------------------------------
                                   1395 ;	 function serial_write
                                   1396 ;	-----------------------------------------
      005047                       1397 _serial_write:
      005047 AF 82            [24] 1398 	mov	r7,dpl
                                   1399 ;	radio/serial.c:239: if (serial_write_space() < 1)
      005049 C0 07            [24] 1400 	push	ar7
      00504B 12 54 52         [24] 1401 	lcall	_serial_write_space
      00504E AD 82            [24] 1402 	mov	r5,dpl
      005050 AE 83            [24] 1403 	mov	r6,dph
      005052 D0 07            [24] 1404 	pop	ar7
      005054 C3               [12] 1405 	clr	c
      005055 ED               [12] 1406 	mov	a,r5
      005056 94 01            [12] 1407 	subb	a,#0x01
      005058 EE               [12] 1408 	mov	a,r6
      005059 94 00            [12] 1409 	subb	a,#0x00
      00505B 50 02            [24] 1410 	jnc	00102$
                                   1411 ;	radio/serial.c:240: return false;
      00505D C3               [12] 1412 	clr	c
      00505E 22               [24] 1413 	ret
      00505F                       1414 00102$:
                                   1415 ;	radio/serial.c:242: _serial_write(c);
      00505F 8F 82            [24] 1416 	mov	dpl,r7
      005061 12 50 66         [24] 1417 	lcall	__serial_write
                                   1418 ;	radio/serial.c:243: return true;
      005064 D3               [12] 1419 	setb	c
      005065 22               [24] 1420 	ret
                                   1421 ;------------------------------------------------------------
                                   1422 ;Allocation info for local variables in function '_serial_write'
                                   1423 ;------------------------------------------------------------
                                   1424 ;c                         Allocated to registers r7 
                                   1425 ;ES_saved                  Allocated to registers b0 
                                   1426 ;------------------------------------------------------------
                                   1427 ;	radio/serial.c:247: _serial_write(register uint8_t c) __reentrant
                                   1428 ;	-----------------------------------------
                                   1429 ;	 function _serial_write
                                   1430 ;	-----------------------------------------
      005066                       1431 __serial_write:
      005066 AF 82            [24] 1432 	mov	r7,dpl
                                   1433 ;	radio/serial.c:249: ES0_SAVE_DISABLE;
      005068 A2 AC            [12] 1434 	mov	c,_ES0
      00506A 92 38            [24] 1435 	mov	b0,c
      00506C C2 AC            [12] 1436 	clr	_ES0
                                   1437 ;	radio/serial.c:252: if (BUF_NOT_FULL(tx)) {
      00506E 78 E3            [12] 1438 	mov	r0,#_tx_insert
      005070 E2               [24] 1439 	movx	a,@r0
      005071 24 01            [12] 1440 	add	a,#0x01
      005073 FD               [12] 1441 	mov	r5,a
      005074 08               [12] 1442 	inc	r0
      005075 E2               [24] 1443 	movx	a,@r0
      005076 34 00            [12] 1444 	addc	a,#0x00
      005078 FE               [12] 1445 	mov	r6,a
      005079 BD 00 09         [24] 1446 	cjne	r5,#0x00,00113$
      00507C BE 04 06         [24] 1447 	cjne	r6,#0x04,00113$
      00507F 7D 00            [12] 1448 	mov	r5,#0x00
      005081 7E 00            [12] 1449 	mov	r6,#0x00
      005083 80 0B            [24] 1450 	sjmp	00114$
      005085                       1451 00113$:
      005085 78 E3            [12] 1452 	mov	r0,#_tx_insert
      005087 E2               [24] 1453 	movx	a,@r0
      005088 24 01            [12] 1454 	add	a,#0x01
      00508A FD               [12] 1455 	mov	r5,a
      00508B 08               [12] 1456 	inc	r0
      00508C E2               [24] 1457 	movx	a,@r0
      00508D 34 00            [12] 1458 	addc	a,#0x00
      00508F FE               [12] 1459 	mov	r6,a
      005090                       1460 00114$:
      005090 78 E5            [12] 1461 	mov	r0,#_tx_remove
      005092 E2               [24] 1462 	movx	a,@r0
      005093 B5 05 07         [24] 1463 	cjne	a,ar5,00134$
      005096 08               [12] 1464 	inc	r0
      005097 E2               [24] 1465 	movx	a,@r0
      005098 B5 06 02         [24] 1466 	cjne	a,ar6,00134$
      00509B 80 44            [24] 1467 	sjmp	00109$
      00509D                       1468 00134$:
                                   1469 ;	radio/serial.c:255: BUF_INSERT(tx, c);
      00509D 78 E3            [12] 1470 	mov	r0,#_tx_insert
      00509F E2               [24] 1471 	movx	a,@r0
      0050A0 24 77            [12] 1472 	add	a,#_tx_buf
      0050A2 F5 82            [12] 1473 	mov	dpl,a
      0050A4 08               [12] 1474 	inc	r0
      0050A5 E2               [24] 1475 	movx	a,@r0
      0050A6 34 0B            [12] 1476 	addc	a,#(_tx_buf >> 8)
      0050A8 F5 83            [12] 1477 	mov	dph,a
      0050AA EF               [12] 1478 	mov	a,r7
      0050AB F0               [24] 1479 	movx	@dptr,a
      0050AC 78 E3            [12] 1480 	mov	r0,#_tx_insert
      0050AE E2               [24] 1481 	movx	a,@r0
      0050AF 24 01            [12] 1482 	add	a,#0x01
      0050B1 FE               [12] 1483 	mov	r6,a
      0050B2 08               [12] 1484 	inc	r0
      0050B3 E2               [24] 1485 	movx	a,@r0
      0050B4 34 00            [12] 1486 	addc	a,#0x00
      0050B6 FF               [12] 1487 	mov	r7,a
      0050B7 BE 00 09         [24] 1488 	cjne	r6,#0x00,00115$
      0050BA BF 04 06         [24] 1489 	cjne	r7,#0x04,00115$
      0050BD 7E 00            [12] 1490 	mov	r6,#0x00
      0050BF 7F 00            [12] 1491 	mov	r7,#0x00
      0050C1 80 0B            [24] 1492 	sjmp	00116$
      0050C3                       1493 00115$:
      0050C3 78 E3            [12] 1494 	mov	r0,#_tx_insert
      0050C5 E2               [24] 1495 	movx	a,@r0
      0050C6 24 01            [12] 1496 	add	a,#0x01
      0050C8 FE               [12] 1497 	mov	r6,a
      0050C9 08               [12] 1498 	inc	r0
      0050CA E2               [24] 1499 	movx	a,@r0
      0050CB 34 00            [12] 1500 	addc	a,#0x00
      0050CD FF               [12] 1501 	mov	r7,a
      0050CE                       1502 00116$:
      0050CE 78 E3            [12] 1503 	mov	r0,#_tx_insert
      0050D0 EE               [12] 1504 	mov	a,r6
      0050D1 F2               [24] 1505 	movx	@r0,a
      0050D2 08               [12] 1506 	inc	r0
      0050D3 EF               [12] 1507 	mov	a,r7
      0050D4 F2               [24] 1508 	movx	@r0,a
                                   1509 ;	radio/serial.c:258: if (tx_idle)
      0050D5 30 24 24         [24] 1510 	jnb	_tx_idle,00110$
                                   1511 ;	radio/serial.c:259: serial_restart();
      0050D8 C0 27            [24] 1512 	push	bits
      0050DA 12 54 A6         [24] 1513 	lcall	_serial_restart
      0050DD D0 27            [24] 1514 	pop	bits
      0050DF 80 1B            [24] 1515 	sjmp	00110$
      0050E1                       1516 00109$:
                                   1517 ;	radio/serial.c:260: } else if (errors.serial_tx_overflow != 0xFFFF) {
      0050E1 78 C9            [12] 1518 	mov	r0,#(_errors + 0x0004)
      0050E3 E2               [24] 1519 	movx	a,@r0
      0050E4 FE               [12] 1520 	mov	r6,a
      0050E5 08               [12] 1521 	inc	r0
      0050E6 E2               [24] 1522 	movx	a,@r0
      0050E7 FF               [12] 1523 	mov	r7,a
      0050E8 BE FF 05         [24] 1524 	cjne	r6,#0xFF,00138$
      0050EB BF FF 02         [24] 1525 	cjne	r7,#0xFF,00138$
      0050EE 80 0C            [24] 1526 	sjmp	00110$
      0050F0                       1527 00138$:
                                   1528 ;	radio/serial.c:261: errors.serial_tx_overflow++;
      0050F0 0E               [12] 1529 	inc	r6
      0050F1 BE 00 01         [24] 1530 	cjne	r6,#0x00,00139$
      0050F4 0F               [12] 1531 	inc	r7
      0050F5                       1532 00139$:
      0050F5 78 C9            [12] 1533 	mov	r0,#(_errors + 0x0004)
      0050F7 EE               [12] 1534 	mov	a,r6
      0050F8 F2               [24] 1535 	movx	@r0,a
      0050F9 08               [12] 1536 	inc	r0
      0050FA EF               [12] 1537 	mov	a,r7
      0050FB F2               [24] 1538 	movx	@r0,a
      0050FC                       1539 00110$:
                                   1540 ;	radio/serial.c:264: ES0_RESTORE;
      0050FC A2 38            [12] 1541 	mov	c,b0
      0050FE 92 AC            [24] 1542 	mov	_ES0,c
      005100 22               [24] 1543 	ret
                                   1544 ;------------------------------------------------------------
                                   1545 ;Allocation info for local variables in function 'decryptPackets'
                                   1546 ;------------------------------------------------------------
                                   1547 ;decrypt_buf               Allocated with name '_decryptPackets_decrypt_buf_1_173'
                                   1548 ;------------------------------------------------------------
                                   1549 ;	radio/serial.c:270: decryptPackets(void)
                                   1550 ;	-----------------------------------------
                                   1551 ;	 function decryptPackets
                                   1552 ;	-----------------------------------------
      005101                       1553 _decryptPackets:
                                   1554 ;	radio/serial.c:277: if(BUF_NOT_EMPTY(encrypt) && aes_get_encryption_level() > 0)
      005101 78 E7            [12] 1555 	mov	r0,#_encrypt_insert
      005103 79 E9            [12] 1556 	mov	r1,#_encrypt_remove
      005105 E2               [24] 1557 	movx	a,@r0
      005106 F5 F0            [12] 1558 	mov	b,a
      005108 E3               [24] 1559 	movx	a,@r1
      005109 B5 F0 0C         [24] 1560 	cjne	a,b,00127$
      00510C 08               [12] 1561 	inc	r0
      00510D E2               [24] 1562 	movx	a,@r0
      00510E F5 F0            [12] 1563 	mov	b,a
      005110 09               [12] 1564 	inc	r1
      005111 E3               [24] 1565 	movx	a,@r1
      005112 B5 F0 03         [24] 1566 	cjne	a,b,00127$
      005115 02 51 FE         [24] 1567 	ljmp	00108$
      005118                       1568 00127$:
      005118 12 5F 25         [24] 1569 	lcall	_aes_get_encryption_level
      00511B E5 82            [12] 1570 	mov	a,dpl
      00511D 70 03            [24] 1571 	jnz	00128$
      00511F 02 51 FE         [24] 1572 	ljmp	00108$
      005122                       1573 00128$:
                                   1574 ;	radio/serial.c:279: if (encrypt_buf[encrypt_remove] == 0)
      005122 78 E9            [12] 1575 	mov	r0,#_encrypt_remove
      005124 E2               [24] 1576 	movx	a,@r0
      005125 24 77            [12] 1577 	add	a,#_encrypt_buf
      005127 FE               [12] 1578 	mov	r6,a
      005128 08               [12] 1579 	inc	r0
      005129 E2               [24] 1580 	movx	a,@r0
      00512A 34 0F            [12] 1581 	addc	a,#(_encrypt_buf >> 8)
      00512C FF               [12] 1582 	mov	r7,a
      00512D 8E 82            [24] 1583 	mov	dpl,r6
      00512F 8F 83            [24] 1584 	mov	dph,r7
      005131 E0               [24] 1585 	movx	a,@dptr
      005132 70 11            [24] 1586 	jnz	00102$
                                   1587 ;	radio/serial.c:283: }
      005134 D2 25            [12] 1588 	setb	_decryptPackets_sloc0_1_0
      005136 10 AF 02         [24] 1589 	jbc	ea,00130$
      005139 C2 25            [12] 1590 	clr	_decryptPackets_sloc0_1_0
      00513B                       1591 00130$:
                                   1592 ;	radio/serial.c:282: encrypt_remove = 0;
      00513B 78 E9            [12] 1593 	mov	r0,#_encrypt_remove
      00513D E4               [12] 1594 	clr	a
      00513E F2               [24] 1595 	movx	@r0,a
      00513F 08               [12] 1596 	inc	r0
      005140 F2               [24] 1597 	movx	@r0,a
      005141 A2 25            [12] 1598 	mov	c,_decryptPackets_sloc0_1_0
      005143 92 AF            [24] 1599 	mov	ea,c
      005145                       1600 00102$:
                                   1601 ;	radio/serial.c:285: if (aes_decrypt(&encrypt_buf[encrypt_remove+1], encrypt_buf[encrypt_remove], decrypt_buf, &len_decrypted) != 0) {
      005145 78 E9            [12] 1602 	mov	r0,#_encrypt_remove
      005147 E2               [24] 1603 	movx	a,@r0
      005148 24 01            [12] 1604 	add	a,#0x01
      00514A FE               [12] 1605 	mov	r6,a
      00514B 08               [12] 1606 	inc	r0
      00514C E2               [24] 1607 	movx	a,@r0
      00514D 34 00            [12] 1608 	addc	a,#0x00
      00514F FF               [12] 1609 	mov	r7,a
      005150 EE               [12] 1610 	mov	a,r6
      005151 24 77            [12] 1611 	add	a,#_encrypt_buf
      005153 FE               [12] 1612 	mov	r6,a
      005154 EF               [12] 1613 	mov	a,r7
      005155 34 0F            [12] 1614 	addc	a,#(_encrypt_buf >> 8)
      005157 FF               [12] 1615 	mov	r7,a
      005158 78 E9            [12] 1616 	mov	r0,#_encrypt_remove
      00515A E2               [24] 1617 	movx	a,@r0
      00515B 24 77            [12] 1618 	add	a,#_encrypt_buf
      00515D F5 82            [12] 1619 	mov	dpl,a
      00515F 08               [12] 1620 	inc	r0
      005160 E2               [24] 1621 	movx	a,@r0
      005161 34 0F            [12] 1622 	addc	a,#(_encrypt_buf >> 8)
      005163 F5 83            [12] 1623 	mov	dph,a
      005165 E0               [24] 1624 	movx	a,@dptr
      005166 90 06 D8         [24] 1625 	mov	dptr,#_aes_decrypt_PARM_2
      005169 F0               [24] 1626 	movx	@dptr,a
      00516A 90 06 D9         [24] 1627 	mov	dptr,#_aes_decrypt_PARM_3
      00516D 74 15            [12] 1628 	mov	a,#_decryptPackets_decrypt_buf_1_173
      00516F F0               [24] 1629 	movx	@dptr,a
      005170 74 06            [12] 1630 	mov	a,#(_decryptPackets_decrypt_buf_1_173 >> 8)
      005172 A3               [24] 1631 	inc	dptr
      005173 F0               [24] 1632 	movx	@dptr,a
      005174 90 06 DB         [24] 1633 	mov	dptr,#_aes_decrypt_PARM_4
      005177 74 EB            [12] 1634 	mov	a,#_decryptPackets_len_decrypted_1_173
      005179 F0               [24] 1635 	movx	@dptr,a
      00517A 74 00            [12] 1636 	mov	a,#(_decryptPackets_len_decrypted_1_173 >> 8)
      00517C A3               [24] 1637 	inc	dptr
      00517D F0               [24] 1638 	movx	@dptr,a
      00517E 74 60            [12] 1639 	mov	a,#0x60
      005180 A3               [24] 1640 	inc	dptr
      005181 F0               [24] 1641 	movx	@dptr,a
      005182 8E 82            [24] 1642 	mov	dpl,r6
      005184 8F 83            [24] 1643 	mov	dph,r7
      005186 12 62 7A         [24] 1644 	lcall	_aes_decrypt
      005189 E5 82            [12] 1645 	mov	a,dpl
      00518B 60 15            [24] 1646 	jz	00104$
                                   1647 ;	radio/serial.c:286: panic("error while trying to decrypt data");
      00518D 74 4A            [12] 1648 	mov	a,#___str_0
      00518F C0 E0            [24] 1649 	push	acc
      005191 74 7D            [12] 1650 	mov	a,#(___str_0 >> 8)
      005193 C0 E0            [24] 1651 	push	acc
      005195 74 80            [12] 1652 	mov	a,#0x80
      005197 C0 E0            [24] 1653 	push	acc
      005199 12 44 8F         [24] 1654 	lcall	_panic
      00519C 15 81            [12] 1655 	dec	sp
      00519E 15 81            [12] 1656 	dec	sp
      0051A0 15 81            [12] 1657 	dec	sp
      0051A2                       1658 00104$:
                                   1659 ;	radio/serial.c:290: serial_write_buf(decrypt_buf, len_decrypted);
      0051A2 78 EB            [12] 1660 	mov	r0,#_decryptPackets_len_decrypted_1_173
      0051A4 79 ED            [12] 1661 	mov	r1,#_serial_write_buf_PARM_2
      0051A6 E2               [24] 1662 	movx	a,@r0
      0051A7 F3               [24] 1663 	movx	@r1,a
      0051A8 90 06 15         [24] 1664 	mov	dptr,#_decryptPackets_decrypt_buf_1_173
      0051AB 12 53 1A         [24] 1665 	lcall	_serial_write_buf
                                   1666 ;	radio/serial.c:293: len_decrypted = encrypt_buf[encrypt_remove];
      0051AE 78 E9            [12] 1667 	mov	r0,#_encrypt_remove
      0051B0 E2               [24] 1668 	movx	a,@r0
      0051B1 24 77            [12] 1669 	add	a,#_encrypt_buf
      0051B3 F5 82            [12] 1670 	mov	dpl,a
      0051B5 08               [12] 1671 	inc	r0
      0051B6 E2               [24] 1672 	movx	a,@r0
      0051B7 34 0F            [12] 1673 	addc	a,#(_encrypt_buf >> 8)
      0051B9 F5 83            [12] 1674 	mov	dph,a
      0051BB E0               [24] 1675 	movx	a,@dptr
      0051BC FF               [12] 1676 	mov	r7,a
      0051BD 78 EB            [12] 1677 	mov	r0,#_decryptPackets_len_decrypted_1_173
      0051BF F2               [24] 1678 	movx	@r0,a
                                   1679 ;	radio/serial.c:294: encrypt_buf[encrypt_remove] = 0;
      0051C0 78 E9            [12] 1680 	mov	r0,#_encrypt_remove
      0051C2 E2               [24] 1681 	movx	a,@r0
      0051C3 24 77            [12] 1682 	add	a,#_encrypt_buf
      0051C5 F5 82            [12] 1683 	mov	dpl,a
      0051C7 08               [12] 1684 	inc	r0
      0051C8 E2               [24] 1685 	movx	a,@r0
      0051C9 34 0F            [12] 1686 	addc	a,#(_encrypt_buf >> 8)
      0051CB F5 83            [12] 1687 	mov	dph,a
      0051CD E4               [12] 1688 	clr	a
      0051CE F0               [24] 1689 	movx	@dptr,a
                                   1690 ;	radio/serial.c:302: }
      0051CF D2 25            [12] 1691 	setb	_decryptPackets_sloc0_1_0
      0051D1 10 AF 02         [24] 1692 	jbc	ea,00132$
      0051D4 C2 25            [12] 1693 	clr	_decryptPackets_sloc0_1_0
      0051D6                       1694 00132$:
                                   1695 ;	radio/serial.c:298: encrypt_remove += len_decrypted + 1;
      0051D6 7E 00            [12] 1696 	mov	r6,#0x00
      0051D8 0F               [12] 1697 	inc	r7
      0051D9 BF 00 01         [24] 1698 	cjne	r7,#0x00,00133$
      0051DC 0E               [12] 1699 	inc	r6
      0051DD                       1700 00133$:
      0051DD 78 E9            [12] 1701 	mov	r0,#_encrypt_remove
      0051DF E2               [24] 1702 	movx	a,@r0
      0051E0 2F               [12] 1703 	add	a,r7
      0051E1 F2               [24] 1704 	movx	@r0,a
      0051E2 08               [12] 1705 	inc	r0
      0051E3 E2               [24] 1706 	movx	a,@r0
      0051E4 3E               [12] 1707 	addc	a,r6
      0051E5 F2               [24] 1708 	movx	@r0,a
                                   1709 ;	radio/serial.c:299: if (encrypt_remove >= sizeof(encrypt_buf)) {
      0051E6 78 E9            [12] 1710 	mov	r0,#_encrypt_remove
      0051E8 C3               [12] 1711 	clr	c
      0051E9 E2               [24] 1712 	movx	a,@r0
      0051EA 94 FC            [12] 1713 	subb	a,#0xFC
      0051EC 08               [12] 1714 	inc	r0
      0051ED E2               [24] 1715 	movx	a,@r0
      0051EE 94 03            [12] 1716 	subb	a,#0x03
      0051F0 40 06            [24] 1717 	jc	00106$
                                   1718 ;	radio/serial.c:300: encrypt_remove = 0;
      0051F2 78 E9            [12] 1719 	mov	r0,#_encrypt_remove
      0051F4 E4               [12] 1720 	clr	a
      0051F5 F2               [24] 1721 	movx	@r0,a
      0051F6 08               [12] 1722 	inc	r0
      0051F7 F2               [24] 1723 	movx	@r0,a
      0051F8                       1724 00106$:
      0051F8 A2 25            [12] 1725 	mov	c,_decryptPackets_sloc0_1_0
      0051FA 92 AF            [24] 1726 	mov	ea,c
                                   1727 ;	radio/serial.c:304: return true;
      0051FC D3               [12] 1728 	setb	c
      0051FD 22               [24] 1729 	ret
      0051FE                       1730 00108$:
                                   1731 ;	radio/serial.c:306: return false;
      0051FE C3               [12] 1732 	clr	c
      0051FF 22               [24] 1733 	ret
                                   1734 ;------------------------------------------------------------
                                   1735 ;Allocation info for local variables in function 'serial_decrypt_buf'
                                   1736 ;------------------------------------------------------------
                                   1737 ;sloc0                     Allocated with name '_serial_decrypt_buf_sloc0_1_0'
                                   1738 ;buf                       Allocated with name '_serial_decrypt_buf_buf_1_180'
                                   1739 ;------------------------------------------------------------
                                   1740 ;	radio/serial.c:310: serial_decrypt_buf(__xdata uint8_t * buf, __pdata uint8_t count)
                                   1741 ;	-----------------------------------------
                                   1742 ;	 function serial_decrypt_buf
                                   1743 ;	-----------------------------------------
      005200                       1744 _serial_decrypt_buf:
      005200 AF 83            [24] 1745 	mov	r7,dph
      005202 E5 82            [12] 1746 	mov	a,dpl
      005204 90 06 35         [24] 1747 	mov	dptr,#_serial_decrypt_buf_buf_1_180
      005207 F0               [24] 1748 	movx	@dptr,a
      005208 EF               [12] 1749 	mov	a,r7
      005209 A3               [24] 1750 	inc	dptr
      00520A F0               [24] 1751 	movx	@dptr,a
                                   1752 ;	radio/serial.c:314: if (aes_get_encryption_level() > 0) {
      00520B 12 5F 25         [24] 1753 	lcall	_aes_get_encryption_level
      00520E E5 82            [12] 1754 	mov	a,dpl
      005210 70 03            [24] 1755 	jnz	00129$
      005212 02 53 05         [24] 1756 	ljmp	00110$
      005215                       1757 00129$:
                                   1758 ;	radio/serial.c:316: if (count > sizeof(encrypt_buf) - (encrypt_insert + 1)) {
      005215 78 E7            [12] 1759 	mov	r0,#_encrypt_insert
      005217 E2               [24] 1760 	movx	a,@r0
      005218 24 01            [12] 1761 	add	a,#0x01
      00521A FE               [12] 1762 	mov	r6,a
      00521B 08               [12] 1763 	inc	r0
      00521C E2               [24] 1764 	movx	a,@r0
      00521D 34 00            [12] 1765 	addc	a,#0x00
      00521F FF               [12] 1766 	mov	r7,a
      005220 74 FC            [12] 1767 	mov	a,#0xFC
      005222 C3               [12] 1768 	clr	c
      005223 9E               [12] 1769 	subb	a,r6
      005224 FE               [12] 1770 	mov	r6,a
      005225 74 03            [12] 1771 	mov	a,#0x03
      005227 9F               [12] 1772 	subb	a,r7
      005228 FF               [12] 1773 	mov	r7,a
      005229 78 EC            [12] 1774 	mov	r0,#_serial_decrypt_buf_PARM_2
      00522B E2               [24] 1775 	movx	a,@r0
      00522C FC               [12] 1776 	mov	r4,a
      00522D 7D 00            [12] 1777 	mov	r5,#0x00
      00522F C3               [12] 1778 	clr	c
      005230 EE               [12] 1779 	mov	a,r6
      005231 9C               [12] 1780 	subb	a,r4
      005232 EF               [12] 1781 	mov	a,r7
      005233 9D               [12] 1782 	subb	a,r5
      005234 50 06            [24] 1783 	jnc	00102$
                                   1784 ;	radio/serial.c:317: encrypt_insert = 0;
      005236 78 E7            [12] 1785 	mov	r0,#_encrypt_insert
      005238 E4               [12] 1786 	clr	a
      005239 F2               [24] 1787 	movx	@r0,a
      00523A 08               [12] 1788 	inc	r0
      00523B F2               [24] 1789 	movx	@r0,a
      00523C                       1790 00102$:
                                   1791 ;	radio/serial.c:321: space = encrypt_buffer_write_space();
      00523C C0 05            [24] 1792 	push	ar5
      00523E C0 04            [24] 1793 	push	ar4
      005240 12 59 14         [24] 1794 	lcall	_encrypt_buffer_write_space
      005243 AE 82            [24] 1795 	mov	r6,dpl
      005245 AF 83            [24] 1796 	mov	r7,dph
      005247 D0 04            [24] 1797 	pop	ar4
      005249 D0 05            [24] 1798 	pop	ar5
                                   1799 ;	radio/serial.c:322: if (count > space) {
      00524B C3               [12] 1800 	clr	c
      00524C EE               [12] 1801 	mov	a,r6
      00524D 9C               [12] 1802 	subb	a,r4
      00524E EF               [12] 1803 	mov	a,r7
      00524F 9D               [12] 1804 	subb	a,r5
      005250 50 1B            [24] 1805 	jnc	00106$
                                   1806 ;	radio/serial.c:323: if (errors.serial_tx_overflow != 0xFFFF) {
      005252 78 C9            [12] 1807 	mov	r0,#(_errors + 0x0004)
      005254 E2               [24] 1808 	movx	a,@r0
      005255 FE               [12] 1809 	mov	r6,a
      005256 08               [12] 1810 	inc	r0
      005257 E2               [24] 1811 	movx	a,@r0
      005258 FF               [12] 1812 	mov	r7,a
      005259 BE FF 04         [24] 1813 	cjne	r6,#0xFF,00132$
      00525C BF FF 01         [24] 1814 	cjne	r7,#0xFF,00132$
      00525F 22               [24] 1815 	ret
      005260                       1816 00132$:
                                   1817 ;	radio/serial.c:324: errors.serial_tx_overflow++;
      005260 0E               [12] 1818 	inc	r6
      005261 BE 00 01         [24] 1819 	cjne	r6,#0x00,00133$
      005264 0F               [12] 1820 	inc	r7
      005265                       1821 00133$:
      005265 78 C9            [12] 1822 	mov	r0,#(_errors + 0x0004)
      005267 EE               [12] 1823 	mov	a,r6
      005268 F2               [24] 1824 	movx	@r0,a
      005269 08               [12] 1825 	inc	r0
      00526A EF               [12] 1826 	mov	a,r7
      00526B F2               [24] 1827 	movx	@r0,a
                                   1828 ;	radio/serial.c:327: return;
      00526C 22               [24] 1829 	ret
      00526D                       1830 00106$:
                                   1831 ;	radio/serial.c:333: encrypt_buf[encrypt_insert] = count;
      00526D 78 E7            [12] 1832 	mov	r0,#_encrypt_insert
      00526F E2               [24] 1833 	movx	a,@r0
      005270 24 77            [12] 1834 	add	a,#_encrypt_buf
      005272 F5 82            [12] 1835 	mov	dpl,a
      005274 08               [12] 1836 	inc	r0
      005275 E2               [24] 1837 	movx	a,@r0
      005276 34 0F            [12] 1838 	addc	a,#(_encrypt_buf >> 8)
      005278 F5 83            [12] 1839 	mov	dph,a
      00527A 78 EC            [12] 1840 	mov	r0,#_serial_decrypt_buf_PARM_2
      00527C E2               [24] 1841 	movx	a,@r0
      00527D F0               [24] 1842 	movx	@dptr,a
                                   1843 ;	radio/serial.c:335: memcpy(&encrypt_buf[encrypt_insert+1], buf, count);
      00527E 78 E7            [12] 1844 	mov	r0,#_encrypt_insert
      005280 E2               [24] 1845 	movx	a,@r0
      005281 24 01            [12] 1846 	add	a,#0x01
      005283 FE               [12] 1847 	mov	r6,a
      005284 08               [12] 1848 	inc	r0
      005285 E2               [24] 1849 	movx	a,@r0
      005286 34 00            [12] 1850 	addc	a,#0x00
      005288 FF               [12] 1851 	mov	r7,a
      005289 EE               [12] 1852 	mov	a,r6
      00528A 24 77            [12] 1853 	add	a,#_encrypt_buf
      00528C FE               [12] 1854 	mov	r6,a
      00528D EF               [12] 1855 	mov	a,r7
      00528E 34 0F            [12] 1856 	addc	a,#(_encrypt_buf >> 8)
      005290 FF               [12] 1857 	mov	r7,a
      005291 8E 60            [24] 1858 	mov	_serial_decrypt_buf_sloc0_1_0,r6
      005293 8F 61            [24] 1859 	mov	(_serial_decrypt_buf_sloc0_1_0 + 1),r7
      005295 75 62 00         [24] 1860 	mov	(_serial_decrypt_buf_sloc0_1_0 + 2),#0x00
      005298 90 06 35         [24] 1861 	mov	dptr,#_serial_decrypt_buf_buf_1_180
      00529B E0               [24] 1862 	movx	a,@dptr
      00529C FA               [12] 1863 	mov	r2,a
      00529D A3               [24] 1864 	inc	dptr
      00529E E0               [24] 1865 	movx	a,@dptr
      00529F FF               [12] 1866 	mov	r7,a
      0052A0 90 07 44         [24] 1867 	mov	dptr,#_memcpy_PARM_2
      0052A3 EA               [12] 1868 	mov	a,r2
      0052A4 F0               [24] 1869 	movx	@dptr,a
      0052A5 EF               [12] 1870 	mov	a,r7
      0052A6 A3               [24] 1871 	inc	dptr
      0052A7 F0               [24] 1872 	movx	@dptr,a
      0052A8 E4               [12] 1873 	clr	a
      0052A9 A3               [24] 1874 	inc	dptr
      0052AA F0               [24] 1875 	movx	@dptr,a
      0052AB 90 07 47         [24] 1876 	mov	dptr,#_memcpy_PARM_3
      0052AE EC               [12] 1877 	mov	a,r4
      0052AF F0               [24] 1878 	movx	@dptr,a
      0052B0 ED               [12] 1879 	mov	a,r5
      0052B1 A3               [24] 1880 	inc	dptr
      0052B2 F0               [24] 1881 	movx	@dptr,a
      0052B3 85 60 82         [24] 1882 	mov	dpl,_serial_decrypt_buf_sloc0_1_0
      0052B6 85 61 83         [24] 1883 	mov	dph,(_serial_decrypt_buf_sloc0_1_0 + 1)
      0052B9 85 62 F0         [24] 1884 	mov	b,(_serial_decrypt_buf_sloc0_1_0 + 2)
      0052BC 12 6D 31         [24] 1885 	lcall	_memcpy
                                   1886 ;	radio/serial.c:342: }
      0052BF D2 26            [12] 1887 	setb	_serial_decrypt_buf_sloc1_1_0
      0052C1 10 AF 02         [24] 1888 	jbc	ea,00134$
      0052C4 C2 26            [12] 1889 	clr	_serial_decrypt_buf_sloc1_1_0
      0052C6                       1890 00134$:
                                   1891 ;	radio/serial.c:338: encrypt_insert += count + 1;
      0052C6 78 EC            [12] 1892 	mov	r0,#_serial_decrypt_buf_PARM_2
      0052C8 E2               [24] 1893 	movx	a,@r0
      0052C9 FE               [12] 1894 	mov	r6,a
      0052CA 7F 00            [12] 1895 	mov	r7,#0x00
      0052CC 0E               [12] 1896 	inc	r6
      0052CD BE 00 01         [24] 1897 	cjne	r6,#0x00,00135$
      0052D0 0F               [12] 1898 	inc	r7
      0052D1                       1899 00135$:
      0052D1 78 E7            [12] 1900 	mov	r0,#_encrypt_insert
      0052D3 E2               [24] 1901 	movx	a,@r0
      0052D4 2E               [12] 1902 	add	a,r6
      0052D5 F2               [24] 1903 	movx	@r0,a
      0052D6 08               [12] 1904 	inc	r0
      0052D7 E2               [24] 1905 	movx	a,@r0
      0052D8 3F               [12] 1906 	addc	a,r7
      0052D9 F2               [24] 1907 	movx	@r0,a
                                   1908 ;	radio/serial.c:339: if (encrypt_insert >= sizeof(encrypt_buf)) {
      0052DA 78 E7            [12] 1909 	mov	r0,#_encrypt_insert
      0052DC C3               [12] 1910 	clr	c
      0052DD E2               [24] 1911 	movx	a,@r0
      0052DE 94 FC            [12] 1912 	subb	a,#0xFC
      0052E0 08               [12] 1913 	inc	r0
      0052E1 E2               [24] 1914 	movx	a,@r0
      0052E2 94 03            [12] 1915 	subb	a,#0x03
      0052E4 40 0B            [24] 1916 	jc	00108$
                                   1917 ;	radio/serial.c:340: encrypt_insert -= sizeof(encrypt_buf);
      0052E6 78 E7            [12] 1918 	mov	r0,#_encrypt_insert
      0052E8 E2               [24] 1919 	movx	a,@r0
      0052E9 24 04            [12] 1920 	add	a,#0x04
      0052EB F2               [24] 1921 	movx	@r0,a
      0052EC 08               [12] 1922 	inc	r0
      0052ED E2               [24] 1923 	movx	a,@r0
      0052EE 34 FC            [12] 1924 	addc	a,#0xFC
      0052F0 F2               [24] 1925 	movx	@r0,a
      0052F1                       1926 00108$:
      0052F1 A2 26            [12] 1927 	mov	c,_serial_decrypt_buf_sloc1_1_0
      0052F3 92 AF            [24] 1928 	mov	ea,c
                                   1929 ;	radio/serial.c:344: encrypt_buf[encrypt_insert] = 0;
      0052F5 78 E7            [12] 1930 	mov	r0,#_encrypt_insert
      0052F7 E2               [24] 1931 	movx	a,@r0
      0052F8 24 77            [12] 1932 	add	a,#_encrypt_buf
      0052FA F5 82            [12] 1933 	mov	dpl,a
      0052FC 08               [12] 1934 	inc	r0
      0052FD E2               [24] 1935 	movx	a,@r0
      0052FE 34 0F            [12] 1936 	addc	a,#(_encrypt_buf >> 8)
      005300 F5 83            [12] 1937 	mov	dph,a
      005302 E4               [12] 1938 	clr	a
      005303 F0               [24] 1939 	movx	@dptr,a
      005304 22               [24] 1940 	ret
      005305                       1941 00110$:
                                   1942 ;	radio/serial.c:347: serial_write_buf(buf, count);
      005305 90 06 35         [24] 1943 	mov	dptr,#_serial_decrypt_buf_buf_1_180
      005308 E0               [24] 1944 	movx	a,@dptr
      005309 FE               [12] 1945 	mov	r6,a
      00530A A3               [24] 1946 	inc	dptr
      00530B E0               [24] 1947 	movx	a,@dptr
      00530C FF               [12] 1948 	mov	r7,a
      00530D 78 EC            [12] 1949 	mov	r0,#_serial_decrypt_buf_PARM_2
      00530F 79 ED            [12] 1950 	mov	r1,#_serial_write_buf_PARM_2
      005311 E2               [24] 1951 	movx	a,@r0
      005312 F3               [24] 1952 	movx	@r1,a
      005313 8E 82            [24] 1953 	mov	dpl,r6
      005315 8F 83            [24] 1954 	mov	dph,r7
      005317 02 53 1A         [24] 1955 	ljmp	_serial_write_buf
                                   1956 ;------------------------------------------------------------
                                   1957 ;Allocation info for local variables in function 'serial_write_buf'
                                   1958 ;------------------------------------------------------------
                                   1959 ;buf                       Allocated with name '_serial_write_buf_buf_1_189'
                                   1960 ;------------------------------------------------------------
                                   1961 ;	radio/serial.c:355: serial_write_buf(__xdata uint8_t * buf, __pdata uint8_t count)
                                   1962 ;	-----------------------------------------
                                   1963 ;	 function serial_write_buf
                                   1964 ;	-----------------------------------------
      00531A                       1965 _serial_write_buf:
      00531A AF 83            [24] 1966 	mov	r7,dph
      00531C E5 82            [12] 1967 	mov	a,dpl
      00531E 90 06 37         [24] 1968 	mov	dptr,#_serial_write_buf_buf_1_189
      005321 F0               [24] 1969 	movx	@dptr,a
      005322 EF               [12] 1970 	mov	a,r7
      005323 A3               [24] 1971 	inc	dptr
      005324 F0               [24] 1972 	movx	@dptr,a
                                   1973 ;	radio/serial.c:360: if (count == 0) {
      005325 78 ED            [12] 1974 	mov	r0,#_serial_write_buf_PARM_2
      005327 E2               [24] 1975 	movx	a,@r0
      005328 70 01            [24] 1976 	jnz	00102$
                                   1977 ;	radio/serial.c:361: return;
      00532A 22               [24] 1978 	ret
      00532B                       1979 00102$:
                                   1980 ;	radio/serial.c:367: space = serial_write_space();	
      00532B 12 54 52         [24] 1981 	lcall	_serial_write_space
      00532E AE 82            [24] 1982 	mov	r6,dpl
      005330 AF 83            [24] 1983 	mov	r7,dph
                                   1984 ;	radio/serial.c:368: if (count > space) {
      005332 78 ED            [12] 1985 	mov	r0,#_serial_write_buf_PARM_2
      005334 E2               [24] 1986 	movx	a,@r0
      005335 FC               [12] 1987 	mov	r4,a
      005336 7D 00            [12] 1988 	mov	r5,#0x00
      005338 C3               [12] 1989 	clr	c
      005339 EE               [12] 1990 	mov	a,r6
      00533A 9C               [12] 1991 	subb	a,r4
      00533B EF               [12] 1992 	mov	a,r7
      00533C 9D               [12] 1993 	subb	a,r5
      00533D 50 1F            [24] 1994 	jnc	00106$
                                   1995 ;	radio/serial.c:369: count = space;
      00533F 78 ED            [12] 1996 	mov	r0,#_serial_write_buf_PARM_2
      005341 EE               [12] 1997 	mov	a,r6
      005342 F2               [24] 1998 	movx	@r0,a
                                   1999 ;	radio/serial.c:370: if (errors.serial_tx_overflow != 0xFFFF) {
      005343 78 C9            [12] 2000 	mov	r0,#(_errors + 0x0004)
      005345 E2               [24] 2001 	movx	a,@r0
      005346 FE               [12] 2002 	mov	r6,a
      005347 08               [12] 2003 	inc	r0
      005348 E2               [24] 2004 	movx	a,@r0
      005349 FF               [12] 2005 	mov	r7,a
      00534A BE FF 05         [24] 2006 	cjne	r6,#0xFF,00140$
      00534D BF FF 02         [24] 2007 	cjne	r7,#0xFF,00140$
      005350 80 0C            [24] 2008 	sjmp	00106$
      005352                       2009 00140$:
                                   2010 ;	radio/serial.c:371: errors.serial_tx_overflow++;
      005352 0E               [12] 2011 	inc	r6
      005353 BE 00 01         [24] 2012 	cjne	r6,#0x00,00141$
      005356 0F               [12] 2013 	inc	r7
      005357                       2014 00141$:
      005357 78 C9            [12] 2015 	mov	r0,#(_errors + 0x0004)
      005359 EE               [12] 2016 	mov	a,r6
      00535A F2               [24] 2017 	movx	@r0,a
      00535B 08               [12] 2018 	inc	r0
      00535C EF               [12] 2019 	mov	a,r7
      00535D F2               [24] 2020 	movx	@r0,a
      00535E                       2021 00106$:
                                   2022 ;	radio/serial.c:376: n1 = count;
      00535E 78 ED            [12] 2023 	mov	r0,#_serial_write_buf_PARM_2
      005360 E2               [24] 2024 	movx	a,@r0
      005361 FF               [12] 2025 	mov	r7,a
                                   2026 ;	radio/serial.c:377: if (n1 > sizeof(tx_buf) - tx_insert) {
      005362 78 E3            [12] 2027 	mov	r0,#_tx_insert
      005364 D3               [12] 2028 	setb	c
      005365 E2               [24] 2029 	movx	a,@r0
      005366 94 00            [12] 2030 	subb	a,#0x00
      005368 F4               [12] 2031 	cpl	a
      005369 B3               [12] 2032 	cpl	c
      00536A FD               [12] 2033 	mov	r5,a
      00536B B3               [12] 2034 	cpl	c
      00536C 08               [12] 2035 	inc	r0
      00536D E2               [24] 2036 	movx	a,@r0
      00536E 94 04            [12] 2037 	subb	a,#0x04
      005370 F4               [12] 2038 	cpl	a
      005371 FE               [12] 2039 	mov	r6,a
      005372 8F 03            [24] 2040 	mov	ar3,r7
      005374 7C 00            [12] 2041 	mov	r4,#0x00
      005376 C3               [12] 2042 	clr	c
      005377 ED               [12] 2043 	mov	a,r5
      005378 9B               [12] 2044 	subb	a,r3
      005379 EE               [12] 2045 	mov	a,r6
      00537A 9C               [12] 2046 	subb	a,r4
      00537B 50 08            [24] 2047 	jnc	00108$
                                   2048 ;	radio/serial.c:378: n1 = sizeof(tx_buf) - tx_insert;
      00537D 78 E3            [12] 2049 	mov	r0,#_tx_insert
      00537F E2               [24] 2050 	movx	a,@r0
      005380 FE               [12] 2051 	mov	r6,a
      005381 C3               [12] 2052 	clr	c
      005382 E4               [12] 2053 	clr	a
      005383 9E               [12] 2054 	subb	a,r6
      005384 FF               [12] 2055 	mov	r7,a
      005385                       2056 00108$:
                                   2057 ;	radio/serial.c:380: memcpy(&tx_buf[tx_insert], buf, n1);
      005385 78 E3            [12] 2058 	mov	r0,#_tx_insert
      005387 E2               [24] 2059 	movx	a,@r0
      005388 24 77            [12] 2060 	add	a,#_tx_buf
      00538A FD               [12] 2061 	mov	r5,a
      00538B 08               [12] 2062 	inc	r0
      00538C E2               [24] 2063 	movx	a,@r0
      00538D 34 0B            [12] 2064 	addc	a,#(_tx_buf >> 8)
      00538F FE               [12] 2065 	mov	r6,a
      005390 7C 00            [12] 2066 	mov	r4,#0x00
      005392 90 06 37         [24] 2067 	mov	dptr,#_serial_write_buf_buf_1_189
      005395 E0               [24] 2068 	movx	a,@dptr
      005396 FA               [12] 2069 	mov	r2,a
      005397 A3               [24] 2070 	inc	dptr
      005398 E0               [24] 2071 	movx	a,@dptr
      005399 FB               [12] 2072 	mov	r3,a
      00539A 90 07 44         [24] 2073 	mov	dptr,#_memcpy_PARM_2
      00539D EA               [12] 2074 	mov	a,r2
      00539E F0               [24] 2075 	movx	@dptr,a
      00539F EB               [12] 2076 	mov	a,r3
      0053A0 A3               [24] 2077 	inc	dptr
      0053A1 F0               [24] 2078 	movx	@dptr,a
      0053A2 E4               [12] 2079 	clr	a
      0053A3 A3               [24] 2080 	inc	dptr
      0053A4 F0               [24] 2081 	movx	@dptr,a
      0053A5 90 07 47         [24] 2082 	mov	dptr,#_memcpy_PARM_3
      0053A8 EF               [12] 2083 	mov	a,r7
      0053A9 F0               [24] 2084 	movx	@dptr,a
      0053AA E4               [12] 2085 	clr	a
      0053AB A3               [24] 2086 	inc	dptr
      0053AC F0               [24] 2087 	movx	@dptr,a
      0053AD 8D 82            [24] 2088 	mov	dpl,r5
      0053AF 8E 83            [24] 2089 	mov	dph,r6
      0053B1 8C F0            [24] 2090 	mov	b,r4
      0053B3 C0 07            [24] 2091 	push	ar7
      0053B5 C0 03            [24] 2092 	push	ar3
      0053B7 C0 02            [24] 2093 	push	ar2
      0053B9 12 6D 31         [24] 2094 	lcall	_memcpy
      0053BC D0 02            [24] 2095 	pop	ar2
      0053BE D0 03            [24] 2096 	pop	ar3
      0053C0 D0 07            [24] 2097 	pop	ar7
                                   2098 ;	radio/serial.c:381: buf += n1;
      0053C2 90 06 37         [24] 2099 	mov	dptr,#_serial_write_buf_buf_1_189
      0053C5 EF               [12] 2100 	mov	a,r7
      0053C6 2A               [12] 2101 	add	a,r2
      0053C7 F0               [24] 2102 	movx	@dptr,a
      0053C8 E4               [12] 2103 	clr	a
      0053C9 3B               [12] 2104 	addc	a,r3
      0053CA A3               [24] 2105 	inc	dptr
      0053CB F0               [24] 2106 	movx	@dptr,a
                                   2107 ;	radio/serial.c:382: count -= n1;
      0053CC 78 ED            [12] 2108 	mov	r0,#_serial_write_buf_PARM_2
      0053CE E2               [24] 2109 	movx	a,@r0
      0053CF C3               [12] 2110 	clr	c
      0053D0 9F               [12] 2111 	subb	a,r7
      0053D1 F2               [24] 2112 	movx	@r0,a
                                   2113 ;	radio/serial.c:388: }
      0053D2 D2 27            [12] 2114 	setb	_serial_write_buf_sloc0_1_0
      0053D4 10 AF 02         [24] 2115 	jbc	ea,00143$
      0053D7 C2 27            [12] 2116 	clr	_serial_write_buf_sloc0_1_0
      0053D9                       2117 00143$:
                                   2118 ;	radio/serial.c:384: tx_insert += n1;
      0053D9 7E 00            [12] 2119 	mov	r6,#0x00
      0053DB 78 E3            [12] 2120 	mov	r0,#_tx_insert
      0053DD E2               [24] 2121 	movx	a,@r0
      0053DE 2F               [12] 2122 	add	a,r7
      0053DF F2               [24] 2123 	movx	@r0,a
      0053E0 08               [12] 2124 	inc	r0
      0053E1 E2               [24] 2125 	movx	a,@r0
      0053E2 3E               [12] 2126 	addc	a,r6
      0053E3 F2               [24] 2127 	movx	@r0,a
                                   2128 ;	radio/serial.c:385: if (tx_insert >= sizeof(tx_buf)) {
      0053E4 78 E3            [12] 2129 	mov	r0,#_tx_insert
      0053E6 C3               [12] 2130 	clr	c
      0053E7 08               [12] 2131 	inc	r0
      0053E8 E2               [24] 2132 	movx	a,@r0
      0053E9 94 04            [12] 2133 	subb	a,#0x04
      0053EB 40 06            [24] 2134 	jc	00110$
                                   2135 ;	radio/serial.c:386: tx_insert -= sizeof(tx_buf);
      0053ED 78 E4            [12] 2136 	mov	r0,#(_tx_insert + 1)
      0053EF E2               [24] 2137 	movx	a,@r0
      0053F0 24 FC            [12] 2138 	add	a,#0xFC
      0053F2 F2               [24] 2139 	movx	@r0,a
      0053F3                       2140 00110$:
      0053F3 A2 27            [12] 2141 	mov	c,_serial_write_buf_sloc0_1_0
      0053F5 92 AF            [24] 2142 	mov	ea,c
                                   2143 ;	radio/serial.c:391: if (count != 0) {
      0053F7 78 ED            [12] 2144 	mov	r0,#_serial_write_buf_PARM_2
      0053F9 E2               [24] 2145 	movx	a,@r0
      0053FA 60 44            [24] 2146 	jz	00112$
                                   2147 ;	radio/serial.c:392: memcpy(&tx_buf[0], buf, count);
      0053FC 90 06 37         [24] 2148 	mov	dptr,#_serial_write_buf_buf_1_189
      0053FF E0               [24] 2149 	movx	a,@dptr
      005400 FE               [12] 2150 	mov	r6,a
      005401 A3               [24] 2151 	inc	dptr
      005402 E0               [24] 2152 	movx	a,@dptr
      005403 FF               [12] 2153 	mov	r7,a
      005404 90 07 44         [24] 2154 	mov	dptr,#_memcpy_PARM_2
      005407 EE               [12] 2155 	mov	a,r6
      005408 F0               [24] 2156 	movx	@dptr,a
      005409 EF               [12] 2157 	mov	a,r7
      00540A A3               [24] 2158 	inc	dptr
      00540B F0               [24] 2159 	movx	@dptr,a
      00540C E4               [12] 2160 	clr	a
      00540D A3               [24] 2161 	inc	dptr
      00540E F0               [24] 2162 	movx	@dptr,a
      00540F 78 ED            [12] 2163 	mov	r0,#_serial_write_buf_PARM_2
      005411 E2               [24] 2164 	movx	a,@r0
      005412 FE               [12] 2165 	mov	r6,a
      005413 7F 00            [12] 2166 	mov	r7,#0x00
      005415 90 07 47         [24] 2167 	mov	dptr,#_memcpy_PARM_3
      005418 EE               [12] 2168 	mov	a,r6
      005419 F0               [24] 2169 	movx	@dptr,a
      00541A EF               [12] 2170 	mov	a,r7
      00541B A3               [24] 2171 	inc	dptr
      00541C F0               [24] 2172 	movx	@dptr,a
      00541D 90 0B 77         [24] 2173 	mov	dptr,#_tx_buf
      005420 75 F0 00         [24] 2174 	mov	b,#0x00
      005423 C0 07            [24] 2175 	push	ar7
      005425 C0 06            [24] 2176 	push	ar6
      005427 12 6D 31         [24] 2177 	lcall	_memcpy
      00542A D0 06            [24] 2178 	pop	ar6
      00542C D0 07            [24] 2179 	pop	ar7
                                   2180 ;	radio/serial.c:395: }		
      00542E D2 27            [12] 2181 	setb	_serial_write_buf_sloc0_1_0
      005430 10 AF 02         [24] 2182 	jbc	ea,00146$
      005433 C2 27            [12] 2183 	clr	_serial_write_buf_sloc0_1_0
      005435                       2184 00146$:
                                   2185 ;	radio/serial.c:394: tx_insert = count;
      005435 78 E3            [12] 2186 	mov	r0,#_tx_insert
      005437 EE               [12] 2187 	mov	a,r6
      005438 F2               [24] 2188 	movx	@r0,a
      005439 08               [12] 2189 	inc	r0
      00543A EF               [12] 2190 	mov	a,r7
      00543B F2               [24] 2191 	movx	@r0,a
      00543C A2 27            [12] 2192 	mov	c,_serial_write_buf_sloc0_1_0
      00543E 92 AF            [24] 2193 	mov	ea,c
      005440                       2194 00112$:
                                   2195 ;	radio/serial.c:401: }
      005440 D2 27            [12] 2196 	setb	_serial_write_buf_sloc0_1_0
      005442 10 AF 02         [24] 2197 	jbc	ea,00147$
      005445 C2 27            [12] 2198 	clr	_serial_write_buf_sloc0_1_0
      005447                       2199 00147$:
                                   2200 ;	radio/serial.c:398: if (tx_idle) {
      005447 30 24 03         [24] 2201 	jnb	_tx_idle,00114$
                                   2202 ;	radio/serial.c:399: serial_restart();
      00544A 12 54 A6         [24] 2203 	lcall	_serial_restart
      00544D                       2204 00114$:
      00544D A2 27            [12] 2205 	mov	c,_serial_write_buf_sloc0_1_0
      00544F 92 AF            [24] 2206 	mov	ea,c
      005451 22               [24] 2207 	ret
                                   2208 ;------------------------------------------------------------
                                   2209 ;Allocation info for local variables in function 'serial_write_space'
                                   2210 ;------------------------------------------------------------
                                   2211 ;ret                       Allocated to registers r6 r7 
                                   2212 ;------------------------------------------------------------
                                   2213 ;	radio/serial.c:405: serial_write_space(void)
                                   2214 ;	-----------------------------------------
                                   2215 ;	 function serial_write_space
                                   2216 ;	-----------------------------------------
      005452                       2217 _serial_write_space:
                                   2218 ;	radio/serial.c:408: ES0_SAVE_DISABLE;
      005452 A2 AC            [12] 2219 	mov	c,_ES0
      005454 92 28            [24] 2220 	mov	_serial_write_space_ES_saved_1_202,c
      005456 C2 AC            [12] 2221 	clr	_ES0
                                   2222 ;	radio/serial.c:409: ret = BUF_FREE(tx);
      005458 78 E3            [12] 2223 	mov	r0,#_tx_insert
      00545A 79 E5            [12] 2224 	mov	r1,#_tx_remove
      00545C C3               [12] 2225 	clr	c
      00545D E3               [24] 2226 	movx	a,@r1
      00545E F5 F0            [12] 2227 	mov	b,a
      005460 E2               [24] 2228 	movx	a,@r0
      005461 95 F0            [12] 2229 	subb	a,b
      005463 09               [12] 2230 	inc	r1
      005464 E3               [24] 2231 	movx	a,@r1
      005465 F5 F0            [12] 2232 	mov	b,a
      005467 08               [12] 2233 	inc	r0
      005468 E2               [24] 2234 	movx	a,@r0
      005469 95 F0            [12] 2235 	subb	a,b
      00546B 40 1B            [24] 2236 	jc	00103$
      00546D 78 E5            [12] 2237 	mov	r0,#_tx_remove
      00546F E2               [24] 2238 	movx	a,@r0
      005470 24 00            [12] 2239 	add	a,#0x00
      005472 FE               [12] 2240 	mov	r6,a
      005473 08               [12] 2241 	inc	r0
      005474 E2               [24] 2242 	movx	a,@r0
      005475 34 04            [12] 2243 	addc	a,#0x04
      005477 FF               [12] 2244 	mov	r7,a
      005478 78 E3            [12] 2245 	mov	r0,#_tx_insert
      00547A D3               [12] 2246 	setb	c
      00547B E2               [24] 2247 	movx	a,@r0
      00547C 9E               [12] 2248 	subb	a,r6
      00547D F4               [12] 2249 	cpl	a
      00547E B3               [12] 2250 	cpl	c
      00547F FE               [12] 2251 	mov	r6,a
      005480 B3               [12] 2252 	cpl	c
      005481 08               [12] 2253 	inc	r0
      005482 E2               [24] 2254 	movx	a,@r0
      005483 9F               [12] 2255 	subb	a,r7
      005484 F4               [12] 2256 	cpl	a
      005485 FF               [12] 2257 	mov	r7,a
      005486 80 15            [24] 2258 	sjmp	00104$
      005488                       2259 00103$:
      005488 78 E5            [12] 2260 	mov	r0,#_tx_remove
      00548A 79 E3            [12] 2261 	mov	r1,#_tx_insert
      00548C E3               [24] 2262 	movx	a,@r1
      00548D F5 F0            [12] 2263 	mov	b,a
      00548F C3               [12] 2264 	clr	c
      005490 E2               [24] 2265 	movx	a,@r0
      005491 95 F0            [12] 2266 	subb	a,b
      005493 FE               [12] 2267 	mov	r6,a
      005494 09               [12] 2268 	inc	r1
      005495 E3               [24] 2269 	movx	a,@r1
      005496 F5 F0            [12] 2270 	mov	b,a
      005498 08               [12] 2271 	inc	r0
      005499 E2               [24] 2272 	movx	a,@r0
      00549A 95 F0            [12] 2273 	subb	a,b
      00549C FF               [12] 2274 	mov	r7,a
      00549D                       2275 00104$:
                                   2276 ;	radio/serial.c:410: ES0_RESTORE;
      00549D A2 28            [12] 2277 	mov	c,_serial_write_space_ES_saved_1_202
      00549F 92 AC            [24] 2278 	mov	_ES0,c
                                   2279 ;	radio/serial.c:411: return ret;
      0054A1 8E 82            [24] 2280 	mov	dpl,r6
      0054A3 8F 83            [24] 2281 	mov	dph,r7
      0054A5 22               [24] 2282 	ret
                                   2283 ;------------------------------------------------------------
                                   2284 ;Allocation info for local variables in function 'serial_restart'
                                   2285 ;------------------------------------------------------------
                                   2286 ;	radio/serial.c:415: serial_restart(void)
                                   2287 ;	-----------------------------------------
                                   2288 ;	 function serial_restart
                                   2289 ;	-----------------------------------------
      0054A6                       2290 _serial_restart:
                                   2291 ;	radio/serial.c:418: if (feature_rtscts && SERIAL_RTS && !at_mode_active) {
      0054A6 30 23 07         [24] 2292 	jnb	_feature_rtscts,00102$
      0054A9 30 83 04         [24] 2293 	jnb	_PIN_ENABLE,00102$
      0054AC 20 18 01         [24] 2294 	jb	_at_mode_active,00102$
                                   2295 ;	radio/serial.c:420: return;
      0054AF 22               [24] 2296 	ret
      0054B0                       2297 00102$:
                                   2298 ;	radio/serial.c:424: tx_idle = false;
      0054B0 C2 24            [12] 2299 	clr	_tx_idle
                                   2300 ;	radio/serial.c:425: TI0 = 1;
      0054B2 D2 99            [12] 2301 	setb	_TI0
      0054B4 22               [24] 2302 	ret
                                   2303 ;------------------------------------------------------------
                                   2304 ;Allocation info for local variables in function 'serial_read'
                                   2305 ;------------------------------------------------------------
                                   2306 ;c                         Allocated to registers r7 
                                   2307 ;------------------------------------------------------------
                                   2308 ;	radio/serial.c:429: serial_read(void)
                                   2309 ;	-----------------------------------------
                                   2310 ;	 function serial_read
                                   2311 ;	-----------------------------------------
      0054B5                       2312 _serial_read:
                                   2313 ;	radio/serial.c:433: ES0_SAVE_DISABLE;
      0054B5 A2 AC            [12] 2314 	mov	c,_ES0
      0054B7 92 29            [24] 2315 	mov	_serial_read_ES_saved_1_207,c
      0054B9 C2 AC            [12] 2316 	clr	_ES0
                                   2317 ;	radio/serial.c:435: if (BUF_NOT_EMPTY(rx)) {
      0054BB 78 DF            [12] 2318 	mov	r0,#_rx_insert
      0054BD 79 E1            [12] 2319 	mov	r1,#_rx_remove
      0054BF E2               [24] 2320 	movx	a,@r0
      0054C0 F5 F0            [12] 2321 	mov	b,a
      0054C2 E3               [24] 2322 	movx	a,@r1
      0054C3 B5 F0 0B         [24] 2323 	cjne	a,b,00127$
      0054C6 08               [12] 2324 	inc	r0
      0054C7 E2               [24] 2325 	movx	a,@r0
      0054C8 F5 F0            [12] 2326 	mov	b,a
      0054CA 09               [12] 2327 	inc	r1
      0054CB E3               [24] 2328 	movx	a,@r1
      0054CC B5 F0 02         [24] 2329 	cjne	a,b,00127$
      0054CF 80 3A            [24] 2330 	sjmp	00105$
      0054D1                       2331 00127$:
                                   2332 ;	radio/serial.c:436: BUF_REMOVE(rx, c);
      0054D1 78 E1            [12] 2333 	mov	r0,#_rx_remove
      0054D3 E2               [24] 2334 	movx	a,@r0
      0054D4 24 77            [12] 2335 	add	a,#_rx_buf
      0054D6 F5 82            [12] 2336 	mov	dpl,a
      0054D8 08               [12] 2337 	inc	r0
      0054D9 E2               [24] 2338 	movx	a,@r0
      0054DA 34 07            [12] 2339 	addc	a,#(_rx_buf >> 8)
      0054DC F5 83            [12] 2340 	mov	dph,a
      0054DE E0               [24] 2341 	movx	a,@dptr
      0054DF FF               [12] 2342 	mov	r7,a
      0054E0 78 E1            [12] 2343 	mov	r0,#_rx_remove
      0054E2 E2               [24] 2344 	movx	a,@r0
      0054E3 24 01            [12] 2345 	add	a,#0x01
      0054E5 FD               [12] 2346 	mov	r5,a
      0054E6 08               [12] 2347 	inc	r0
      0054E7 E2               [24] 2348 	movx	a,@r0
      0054E8 34 00            [12] 2349 	addc	a,#0x00
      0054EA FE               [12] 2350 	mov	r6,a
      0054EB BD 00 09         [24] 2351 	cjne	r5,#0x00,00111$
      0054EE BE 04 06         [24] 2352 	cjne	r6,#0x04,00111$
      0054F1 7D 00            [12] 2353 	mov	r5,#0x00
      0054F3 7E 00            [12] 2354 	mov	r6,#0x00
      0054F5 80 0B            [24] 2355 	sjmp	00112$
      0054F7                       2356 00111$:
      0054F7 78 E1            [12] 2357 	mov	r0,#_rx_remove
      0054F9 E2               [24] 2358 	movx	a,@r0
      0054FA 24 01            [12] 2359 	add	a,#0x01
      0054FC FD               [12] 2360 	mov	r5,a
      0054FD 08               [12] 2361 	inc	r0
      0054FE E2               [24] 2362 	movx	a,@r0
      0054FF 34 00            [12] 2363 	addc	a,#0x00
      005501 FE               [12] 2364 	mov	r6,a
      005502                       2365 00112$:
      005502 78 E1            [12] 2366 	mov	r0,#_rx_remove
      005504 ED               [12] 2367 	mov	a,r5
      005505 F2               [24] 2368 	movx	@r0,a
      005506 08               [12] 2369 	inc	r0
      005507 EE               [12] 2370 	mov	a,r6
      005508 F2               [24] 2371 	movx	@r0,a
      005509 80 02            [24] 2372 	sjmp	00106$
      00550B                       2373 00105$:
                                   2374 ;	radio/serial.c:438: c = '\0';
      00550B 7F 00            [12] 2375 	mov	r7,#0x00
      00550D                       2376 00106$:
                                   2377 ;	radio/serial.c:442: if (BUF_FREE(rx) > SERIAL_CTS_THRESHOLD_HIGH) {
      00550D 78 DF            [12] 2378 	mov	r0,#_rx_insert
      00550F 79 E1            [12] 2379 	mov	r1,#_rx_remove
      005511 C3               [12] 2380 	clr	c
      005512 E3               [24] 2381 	movx	a,@r1
      005513 F5 F0            [12] 2382 	mov	b,a
      005515 E2               [24] 2383 	movx	a,@r0
      005516 95 F0            [12] 2384 	subb	a,b
      005518 09               [12] 2385 	inc	r1
      005519 E3               [24] 2386 	movx	a,@r1
      00551A F5 F0            [12] 2387 	mov	b,a
      00551C 08               [12] 2388 	inc	r0
      00551D E2               [24] 2389 	movx	a,@r0
      00551E 95 F0            [12] 2390 	subb	a,b
      005520 40 1B            [24] 2391 	jc	00113$
      005522 78 E1            [12] 2392 	mov	r0,#_rx_remove
      005524 E2               [24] 2393 	movx	a,@r0
      005525 24 00            [12] 2394 	add	a,#0x00
      005527 FD               [12] 2395 	mov	r5,a
      005528 08               [12] 2396 	inc	r0
      005529 E2               [24] 2397 	movx	a,@r0
      00552A 34 04            [12] 2398 	addc	a,#0x04
      00552C FE               [12] 2399 	mov	r6,a
      00552D 78 DF            [12] 2400 	mov	r0,#_rx_insert
      00552F D3               [12] 2401 	setb	c
      005530 E2               [24] 2402 	movx	a,@r0
      005531 9D               [12] 2403 	subb	a,r5
      005532 F4               [12] 2404 	cpl	a
      005533 B3               [12] 2405 	cpl	c
      005534 FD               [12] 2406 	mov	r5,a
      005535 B3               [12] 2407 	cpl	c
      005536 08               [12] 2408 	inc	r0
      005537 E2               [24] 2409 	movx	a,@r0
      005538 9E               [12] 2410 	subb	a,r6
      005539 F4               [12] 2411 	cpl	a
      00553A FE               [12] 2412 	mov	r6,a
      00553B 80 15            [24] 2413 	sjmp	00114$
      00553D                       2414 00113$:
      00553D 78 E1            [12] 2415 	mov	r0,#_rx_remove
      00553F 79 DF            [12] 2416 	mov	r1,#_rx_insert
      005541 E3               [24] 2417 	movx	a,@r1
      005542 F5 F0            [12] 2418 	mov	b,a
      005544 C3               [12] 2419 	clr	c
      005545 E2               [24] 2420 	movx	a,@r0
      005546 95 F0            [12] 2421 	subb	a,b
      005548 FD               [12] 2422 	mov	r5,a
      005549 09               [12] 2423 	inc	r1
      00554A E3               [24] 2424 	movx	a,@r1
      00554B F5 F0            [12] 2425 	mov	b,a
      00554D 08               [12] 2426 	inc	r0
      00554E E2               [24] 2427 	movx	a,@r0
      00554F 95 F0            [12] 2428 	subb	a,b
      005551 FE               [12] 2429 	mov	r6,a
      005552                       2430 00114$:
      005552 C3               [12] 2431 	clr	c
      005553 74 22            [12] 2432 	mov	a,#0x22
      005555 9D               [12] 2433 	subb	a,r5
      005556 E4               [12] 2434 	clr	a
      005557 9E               [12] 2435 	subb	a,r6
      005558 50 02            [24] 2436 	jnc	00108$
                                   2437 ;	radio/serial.c:443: SERIAL_CTS = false;
      00555A C2 82            [12] 2438 	clr	_PIN_CONFIG
      00555C                       2439 00108$:
                                   2440 ;	radio/serial.c:447: ES0_RESTORE;
      00555C A2 29            [12] 2441 	mov	c,_serial_read_ES_saved_1_207
      00555E 92 AC            [24] 2442 	mov	_ES0,c
                                   2443 ;	radio/serial.c:449: return c;
      005560 8F 82            [24] 2444 	mov	dpl,r7
      005562 22               [24] 2445 	ret
                                   2446 ;------------------------------------------------------------
                                   2447 ;Allocation info for local variables in function 'serial_peek'
                                   2448 ;------------------------------------------------------------
                                   2449 ;c                         Allocated to registers r7 
                                   2450 ;------------------------------------------------------------
                                   2451 ;	radio/serial.c:453: serial_peek(void)
                                   2452 ;	-----------------------------------------
                                   2453 ;	 function serial_peek
                                   2454 ;	-----------------------------------------
      005563                       2455 _serial_peek:
                                   2456 ;	radio/serial.c:457: ES0_SAVE_DISABLE;
      005563 A2 AC            [12] 2457 	mov	c,_ES0
      005565 92 2A            [24] 2458 	mov	_serial_peek_ES_saved_1_213,c
      005567 C2 AC            [12] 2459 	clr	_ES0
                                   2460 ;	radio/serial.c:458: c = BUF_PEEK(rx);
      005569 78 E1            [12] 2461 	mov	r0,#_rx_remove
      00556B E2               [24] 2462 	movx	a,@r0
      00556C 24 77            [12] 2463 	add	a,#_rx_buf
      00556E F5 82            [12] 2464 	mov	dpl,a
      005570 08               [12] 2465 	inc	r0
      005571 E2               [24] 2466 	movx	a,@r0
      005572 34 07            [12] 2467 	addc	a,#(_rx_buf >> 8)
      005574 F5 83            [12] 2468 	mov	dph,a
      005576 E0               [24] 2469 	movx	a,@dptr
      005577 FF               [12] 2470 	mov	r7,a
                                   2471 ;	radio/serial.c:459: ES0_RESTORE;
      005578 A2 2A            [12] 2472 	mov	c,_serial_peek_ES_saved_1_213
      00557A 92 AC            [24] 2473 	mov	_ES0,c
                                   2474 ;	radio/serial.c:461: return c;
      00557C 8F 82            [24] 2475 	mov	dpl,r7
      00557E 22               [24] 2476 	ret
                                   2477 ;------------------------------------------------------------
                                   2478 ;Allocation info for local variables in function 'serial_peekx'
                                   2479 ;------------------------------------------------------------
                                   2480 ;offset                    Allocated with name '_serial_peekx_offset_1_214'
                                   2481 ;c                         Allocated to registers r7 
                                   2482 ;------------------------------------------------------------
                                   2483 ;	radio/serial.c:465: serial_peekx(uint16_t offset)
                                   2484 ;	-----------------------------------------
                                   2485 ;	 function serial_peekx
                                   2486 ;	-----------------------------------------
      00557F                       2487 _serial_peekx:
      00557F AF 83            [24] 2488 	mov	r7,dph
      005581 E5 82            [12] 2489 	mov	a,dpl
      005583 90 06 39         [24] 2490 	mov	dptr,#_serial_peekx_offset_1_214
      005586 F0               [24] 2491 	movx	@dptr,a
      005587 EF               [12] 2492 	mov	a,r7
      005588 A3               [24] 2493 	inc	dptr
      005589 F0               [24] 2494 	movx	@dptr,a
                                   2495 ;	radio/serial.c:469: ES0_SAVE_DISABLE;
      00558A A2 AC            [12] 2496 	mov	c,_ES0
      00558C 92 2B            [24] 2497 	mov	_serial_peekx_ES_saved_1_215,c
      00558E C2 AC            [12] 2498 	clr	_ES0
                                   2499 ;	radio/serial.c:470: c = BUF_PEEKX(rx, offset);
      005590 90 06 39         [24] 2500 	mov	dptr,#_serial_peekx_offset_1_214
      005593 E0               [24] 2501 	movx	a,@dptr
      005594 FE               [12] 2502 	mov	r6,a
      005595 A3               [24] 2503 	inc	dptr
      005596 E0               [24] 2504 	movx	a,@dptr
      005597 FF               [12] 2505 	mov	r7,a
      005598 78 E1            [12] 2506 	mov	r0,#_rx_remove
      00559A E2               [24] 2507 	movx	a,@r0
      00559B 2E               [12] 2508 	add	a,r6
      00559C FE               [12] 2509 	mov	r6,a
      00559D 08               [12] 2510 	inc	r0
      00559E E2               [24] 2511 	movx	a,@r0
      00559F 3F               [12] 2512 	addc	a,r7
      0055A0 FF               [12] 2513 	mov	r7,a
      0055A1 53 07 03         [24] 2514 	anl	ar7,#0x03
      0055A4 EE               [12] 2515 	mov	a,r6
      0055A5 24 77            [12] 2516 	add	a,#_rx_buf
      0055A7 F5 82            [12] 2517 	mov	dpl,a
      0055A9 EF               [12] 2518 	mov	a,r7
      0055AA 34 07            [12] 2519 	addc	a,#(_rx_buf >> 8)
      0055AC F5 83            [12] 2520 	mov	dph,a
      0055AE E0               [24] 2521 	movx	a,@dptr
      0055AF FF               [12] 2522 	mov	r7,a
                                   2523 ;	radio/serial.c:471: ES0_RESTORE;
      0055B0 A2 2B            [12] 2524 	mov	c,_serial_peekx_ES_saved_1_215
      0055B2 92 AC            [24] 2525 	mov	_ES0,c
                                   2526 ;	radio/serial.c:473: return c;
      0055B4 8F 82            [24] 2527 	mov	dpl,r7
      0055B6 22               [24] 2528 	ret
                                   2529 ;------------------------------------------------------------
                                   2530 ;Allocation info for local variables in function 'serial_read_buf'
                                   2531 ;------------------------------------------------------------
                                   2532 ;sloc0                     Allocated with name '_serial_read_buf_sloc0_1_0'
                                   2533 ;buf                       Allocated with name '_serial_read_buf_buf_1_216'
                                   2534 ;------------------------------------------------------------
                                   2535 ;	radio/serial.c:480: serial_read_buf(__xdata uint8_t * buf, __pdata uint8_t count)
                                   2536 ;	-----------------------------------------
                                   2537 ;	 function serial_read_buf
                                   2538 ;	-----------------------------------------
      0055B7                       2539 _serial_read_buf:
      0055B7 AF 83            [24] 2540 	mov	r7,dph
      0055B9 E5 82            [12] 2541 	mov	a,dpl
      0055BB 90 06 3B         [24] 2542 	mov	dptr,#_serial_read_buf_buf_1_216
      0055BE F0               [24] 2543 	movx	@dptr,a
      0055BF EF               [12] 2544 	mov	a,r7
      0055C0 A3               [24] 2545 	inc	dptr
      0055C1 F0               [24] 2546 	movx	@dptr,a
                                   2547 ;	radio/serial.c:485: if (count > serial_read_available()) {
      0055C2 12 57 2A         [24] 2548 	lcall	_serial_read_available
      0055C5 AE 82            [24] 2549 	mov	r6,dpl
      0055C7 AF 83            [24] 2550 	mov	r7,dph
      0055C9 78 EE            [12] 2551 	mov	r0,#_serial_read_buf_PARM_2
      0055CB E2               [24] 2552 	movx	a,@r0
      0055CC FC               [12] 2553 	mov	r4,a
      0055CD 7D 00            [12] 2554 	mov	r5,#0x00
      0055CF C3               [12] 2555 	clr	c
      0055D0 EE               [12] 2556 	mov	a,r6
      0055D1 9C               [12] 2557 	subb	a,r4
      0055D2 EF               [12] 2558 	mov	a,r7
      0055D3 9D               [12] 2559 	subb	a,r5
      0055D4 50 02            [24] 2560 	jnc	00102$
                                   2561 ;	radio/serial.c:486: return false;
      0055D6 C3               [12] 2562 	clr	c
      0055D7 22               [24] 2563 	ret
      0055D8                       2564 00102$:
                                   2565 ;	radio/serial.c:489: n1 = count;
      0055D8 8C 03            [24] 2566 	mov	ar3,r4
      0055DA 8D 02            [24] 2567 	mov	ar2,r5
                                   2568 ;	radio/serial.c:490: if (n1 > sizeof(rx_buf) - rx_remove) {
      0055DC 78 E1            [12] 2569 	mov	r0,#_rx_remove
      0055DE D3               [12] 2570 	setb	c
      0055DF E2               [24] 2571 	movx	a,@r0
      0055E0 94 00            [12] 2572 	subb	a,#0x00
      0055E2 F4               [12] 2573 	cpl	a
      0055E3 B3               [12] 2574 	cpl	c
      0055E4 FC               [12] 2575 	mov	r4,a
      0055E5 B3               [12] 2576 	cpl	c
      0055E6 08               [12] 2577 	inc	r0
      0055E7 E2               [24] 2578 	movx	a,@r0
      0055E8 94 04            [12] 2579 	subb	a,#0x04
      0055EA F4               [12] 2580 	cpl	a
      0055EB FD               [12] 2581 	mov	r5,a
      0055EC C3               [12] 2582 	clr	c
      0055ED EC               [12] 2583 	mov	a,r4
      0055EE 9B               [12] 2584 	subb	a,r3
      0055EF ED               [12] 2585 	mov	a,r5
      0055F0 9A               [12] 2586 	subb	a,r2
      0055F1 50 10            [24] 2587 	jnc	00104$
                                   2588 ;	radio/serial.c:491: n1 = sizeof(rx_buf) - rx_remove;
      0055F3 78 E1            [12] 2589 	mov	r0,#_rx_remove
      0055F5 D3               [12] 2590 	setb	c
      0055F6 E2               [24] 2591 	movx	a,@r0
      0055F7 94 00            [12] 2592 	subb	a,#0x00
      0055F9 F4               [12] 2593 	cpl	a
      0055FA B3               [12] 2594 	cpl	c
      0055FB FB               [12] 2595 	mov	r3,a
      0055FC B3               [12] 2596 	cpl	c
      0055FD 08               [12] 2597 	inc	r0
      0055FE E2               [24] 2598 	movx	a,@r0
      0055FF 94 04            [12] 2599 	subb	a,#0x04
      005601 F4               [12] 2600 	cpl	a
      005602 FA               [12] 2601 	mov	r2,a
      005603                       2602 00104$:
                                   2603 ;	radio/serial.c:493: memcpy(buf, &rx_buf[rx_remove], n1);
      005603 90 06 3B         [24] 2604 	mov	dptr,#_serial_read_buf_buf_1_216
      005606 E0               [24] 2605 	movx	a,@dptr
      005607 FC               [12] 2606 	mov	r4,a
      005608 A3               [24] 2607 	inc	dptr
      005609 E0               [24] 2608 	movx	a,@dptr
      00560A FD               [12] 2609 	mov	r5,a
      00560B 8C 63            [24] 2610 	mov	_serial_read_buf_sloc0_1_0,r4
      00560D 8D 64            [24] 2611 	mov	(_serial_read_buf_sloc0_1_0 + 1),r5
      00560F 75 65 00         [24] 2612 	mov	(_serial_read_buf_sloc0_1_0 + 2),#0x00
      005612 78 E1            [12] 2613 	mov	r0,#_rx_remove
      005614 E2               [24] 2614 	movx	a,@r0
      005615 24 77            [12] 2615 	add	a,#_rx_buf
      005617 FE               [12] 2616 	mov	r6,a
      005618 08               [12] 2617 	inc	r0
      005619 E2               [24] 2618 	movx	a,@r0
      00561A 34 07            [12] 2619 	addc	a,#(_rx_buf >> 8)
      00561C FF               [12] 2620 	mov	r7,a
      00561D 90 07 44         [24] 2621 	mov	dptr,#_memcpy_PARM_2
      005620 EE               [12] 2622 	mov	a,r6
      005621 F0               [24] 2623 	movx	@dptr,a
      005622 EF               [12] 2624 	mov	a,r7
      005623 A3               [24] 2625 	inc	dptr
      005624 F0               [24] 2626 	movx	@dptr,a
      005625 E4               [12] 2627 	clr	a
      005626 A3               [24] 2628 	inc	dptr
      005627 F0               [24] 2629 	movx	@dptr,a
      005628 90 07 47         [24] 2630 	mov	dptr,#_memcpy_PARM_3
      00562B EB               [12] 2631 	mov	a,r3
      00562C F0               [24] 2632 	movx	@dptr,a
      00562D EA               [12] 2633 	mov	a,r2
      00562E A3               [24] 2634 	inc	dptr
      00562F F0               [24] 2635 	movx	@dptr,a
      005630 85 63 82         [24] 2636 	mov	dpl,_serial_read_buf_sloc0_1_0
      005633 85 64 83         [24] 2637 	mov	dph,(_serial_read_buf_sloc0_1_0 + 1)
      005636 85 65 F0         [24] 2638 	mov	b,(_serial_read_buf_sloc0_1_0 + 2)
      005639 C0 05            [24] 2639 	push	ar5
      00563B C0 04            [24] 2640 	push	ar4
      00563D C0 03            [24] 2641 	push	ar3
      00563F C0 02            [24] 2642 	push	ar2
      005641 12 6D 31         [24] 2643 	lcall	_memcpy
      005644 D0 02            [24] 2644 	pop	ar2
      005646 D0 03            [24] 2645 	pop	ar3
      005648 D0 04            [24] 2646 	pop	ar4
      00564A D0 05            [24] 2647 	pop	ar5
                                   2648 ;	radio/serial.c:494: count -= n1;
      00564C 8B 06            [24] 2649 	mov	ar6,r3
      00564E 78 EE            [12] 2650 	mov	r0,#_serial_read_buf_PARM_2
      005650 E2               [24] 2651 	movx	a,@r0
      005651 C3               [12] 2652 	clr	c
      005652 9E               [12] 2653 	subb	a,r6
      005653 F2               [24] 2654 	movx	@r0,a
                                   2655 ;	radio/serial.c:495: buf += n1;
      005654 90 06 3B         [24] 2656 	mov	dptr,#_serial_read_buf_buf_1_216
      005657 EB               [12] 2657 	mov	a,r3
      005658 2C               [12] 2658 	add	a,r4
      005659 F0               [24] 2659 	movx	@dptr,a
      00565A EA               [12] 2660 	mov	a,r2
      00565B 3D               [12] 2661 	addc	a,r5
      00565C A3               [24] 2662 	inc	dptr
      00565D F0               [24] 2663 	movx	@dptr,a
                                   2664 ;	radio/serial.c:502: }
      00565E D2 2C            [12] 2665 	setb	_serial_read_buf_sloc1_1_0
      005660 10 AF 02         [24] 2666 	jbc	ea,00135$
      005663 C2 2C            [12] 2667 	clr	_serial_read_buf_sloc1_1_0
      005665                       2668 00135$:
                                   2669 ;	radio/serial.c:498: rx_remove += n1;
      005665 78 E1            [12] 2670 	mov	r0,#_rx_remove
      005667 E2               [24] 2671 	movx	a,@r0
      005668 2B               [12] 2672 	add	a,r3
      005669 F2               [24] 2673 	movx	@r0,a
      00566A 08               [12] 2674 	inc	r0
      00566B E2               [24] 2675 	movx	a,@r0
      00566C 3A               [12] 2676 	addc	a,r2
      00566D F2               [24] 2677 	movx	@r0,a
                                   2678 ;	radio/serial.c:499: if (rx_remove >= sizeof(rx_buf)) {
      00566E 78 E1            [12] 2679 	mov	r0,#_rx_remove
      005670 C3               [12] 2680 	clr	c
      005671 08               [12] 2681 	inc	r0
      005672 E2               [24] 2682 	movx	a,@r0
      005673 94 04            [12] 2683 	subb	a,#0x04
      005675 40 06            [24] 2684 	jc	00106$
                                   2685 ;	radio/serial.c:500: rx_remove -= sizeof(rx_buf);
      005677 78 E2            [12] 2686 	mov	r0,#(_rx_remove + 1)
      005679 E2               [24] 2687 	movx	a,@r0
      00567A 24 FC            [12] 2688 	add	a,#0xFC
      00567C F2               [24] 2689 	movx	@r0,a
      00567D                       2690 00106$:
      00567D A2 2C            [12] 2691 	mov	c,_serial_read_buf_sloc1_1_0
      00567F 92 AF            [24] 2692 	mov	ea,c
                                   2693 ;	radio/serial.c:504: if (count > 0) {
      005681 78 EE            [12] 2694 	mov	r0,#_serial_read_buf_PARM_2
      005683 E2               [24] 2695 	movx	a,@r0
      005684 60 48            [24] 2696 	jz	00108$
                                   2697 ;	radio/serial.c:505: memcpy(buf, &rx_buf[0], count);
      005686 90 06 3B         [24] 2698 	mov	dptr,#_serial_read_buf_buf_1_216
      005689 E0               [24] 2699 	movx	a,@dptr
      00568A FE               [12] 2700 	mov	r6,a
      00568B A3               [24] 2701 	inc	dptr
      00568C E0               [24] 2702 	movx	a,@dptr
      00568D FF               [12] 2703 	mov	r7,a
      00568E 7D 00            [12] 2704 	mov	r5,#0x00
      005690 90 07 44         [24] 2705 	mov	dptr,#_memcpy_PARM_2
      005693 74 77            [12] 2706 	mov	a,#_rx_buf
      005695 F0               [24] 2707 	movx	@dptr,a
      005696 74 07            [12] 2708 	mov	a,#(_rx_buf >> 8)
      005698 A3               [24] 2709 	inc	dptr
      005699 F0               [24] 2710 	movx	@dptr,a
      00569A E4               [12] 2711 	clr	a
      00569B A3               [24] 2712 	inc	dptr
      00569C F0               [24] 2713 	movx	@dptr,a
      00569D 78 EE            [12] 2714 	mov	r0,#_serial_read_buf_PARM_2
      00569F E2               [24] 2715 	movx	a,@r0
      0056A0 FB               [12] 2716 	mov	r3,a
      0056A1 7C 00            [12] 2717 	mov	r4,#0x00
      0056A3 90 07 47         [24] 2718 	mov	dptr,#_memcpy_PARM_3
      0056A6 EB               [12] 2719 	mov	a,r3
      0056A7 F0               [24] 2720 	movx	@dptr,a
      0056A8 EC               [12] 2721 	mov	a,r4
      0056A9 A3               [24] 2722 	inc	dptr
      0056AA F0               [24] 2723 	movx	@dptr,a
      0056AB 8E 82            [24] 2724 	mov	dpl,r6
      0056AD 8F 83            [24] 2725 	mov	dph,r7
      0056AF 8D F0            [24] 2726 	mov	b,r5
      0056B1 C0 04            [24] 2727 	push	ar4
      0056B3 C0 03            [24] 2728 	push	ar3
      0056B5 12 6D 31         [24] 2729 	lcall	_memcpy
      0056B8 D0 03            [24] 2730 	pop	ar3
      0056BA D0 04            [24] 2731 	pop	ar4
                                   2732 ;	radio/serial.c:508: }		
      0056BC D2 2C            [12] 2733 	setb	_serial_read_buf_sloc1_1_0
      0056BE 10 AF 02         [24] 2734 	jbc	ea,00138$
      0056C1 C2 2C            [12] 2735 	clr	_serial_read_buf_sloc1_1_0
      0056C3                       2736 00138$:
                                   2737 ;	radio/serial.c:507: rx_remove = count;
      0056C3 78 E1            [12] 2738 	mov	r0,#_rx_remove
      0056C5 EB               [12] 2739 	mov	a,r3
      0056C6 F2               [24] 2740 	movx	@r0,a
      0056C7 08               [12] 2741 	inc	r0
      0056C8 EC               [12] 2742 	mov	a,r4
      0056C9 F2               [24] 2743 	movx	@r0,a
      0056CA A2 2C            [12] 2744 	mov	c,_serial_read_buf_sloc1_1_0
      0056CC 92 AF            [24] 2745 	mov	ea,c
      0056CE                       2746 00108$:
                                   2747 ;	radio/serial.c:516: }
      0056CE D2 2C            [12] 2748 	setb	_serial_read_buf_sloc1_1_0
      0056D0 10 AF 02         [24] 2749 	jbc	ea,00139$
      0056D3 C2 2C            [12] 2750 	clr	_serial_read_buf_sloc1_1_0
      0056D5                       2751 00139$:
                                   2752 ;	radio/serial.c:513: if (BUF_FREE(rx) > SERIAL_CTS_THRESHOLD_HIGH) {
      0056D5 78 DF            [12] 2753 	mov	r0,#_rx_insert
      0056D7 79 E1            [12] 2754 	mov	r1,#_rx_remove
      0056D9 C3               [12] 2755 	clr	c
      0056DA E3               [24] 2756 	movx	a,@r1
      0056DB F5 F0            [12] 2757 	mov	b,a
      0056DD E2               [24] 2758 	movx	a,@r0
      0056DE 95 F0            [12] 2759 	subb	a,b
      0056E0 09               [12] 2760 	inc	r1
      0056E1 E3               [24] 2761 	movx	a,@r1
      0056E2 F5 F0            [12] 2762 	mov	b,a
      0056E4 08               [12] 2763 	inc	r0
      0056E5 E2               [24] 2764 	movx	a,@r0
      0056E6 95 F0            [12] 2765 	subb	a,b
      0056E8 40 1B            [24] 2766 	jc	00113$
      0056EA 78 E1            [12] 2767 	mov	r0,#_rx_remove
      0056EC E2               [24] 2768 	movx	a,@r0
      0056ED 24 00            [12] 2769 	add	a,#0x00
      0056EF FE               [12] 2770 	mov	r6,a
      0056F0 08               [12] 2771 	inc	r0
      0056F1 E2               [24] 2772 	movx	a,@r0
      0056F2 34 04            [12] 2773 	addc	a,#0x04
      0056F4 FF               [12] 2774 	mov	r7,a
      0056F5 78 DF            [12] 2775 	mov	r0,#_rx_insert
      0056F7 D3               [12] 2776 	setb	c
      0056F8 E2               [24] 2777 	movx	a,@r0
      0056F9 9E               [12] 2778 	subb	a,r6
      0056FA F4               [12] 2779 	cpl	a
      0056FB B3               [12] 2780 	cpl	c
      0056FC FE               [12] 2781 	mov	r6,a
      0056FD B3               [12] 2782 	cpl	c
      0056FE 08               [12] 2783 	inc	r0
      0056FF E2               [24] 2784 	movx	a,@r0
      005700 9F               [12] 2785 	subb	a,r7
      005701 F4               [12] 2786 	cpl	a
      005702 FF               [12] 2787 	mov	r7,a
      005703 80 15            [24] 2788 	sjmp	00114$
      005705                       2789 00113$:
      005705 78 E1            [12] 2790 	mov	r0,#_rx_remove
      005707 79 DF            [12] 2791 	mov	r1,#_rx_insert
      005709 E3               [24] 2792 	movx	a,@r1
      00570A F5 F0            [12] 2793 	mov	b,a
      00570C C3               [12] 2794 	clr	c
      00570D E2               [24] 2795 	movx	a,@r0
      00570E 95 F0            [12] 2796 	subb	a,b
      005710 FE               [12] 2797 	mov	r6,a
      005711 09               [12] 2798 	inc	r1
      005712 E3               [24] 2799 	movx	a,@r1
      005713 F5 F0            [12] 2800 	mov	b,a
      005715 08               [12] 2801 	inc	r0
      005716 E2               [24] 2802 	movx	a,@r0
      005717 95 F0            [12] 2803 	subb	a,b
      005719 FF               [12] 2804 	mov	r7,a
      00571A                       2805 00114$:
      00571A C3               [12] 2806 	clr	c
      00571B 74 22            [12] 2807 	mov	a,#0x22
      00571D 9E               [12] 2808 	subb	a,r6
      00571E E4               [12] 2809 	clr	a
      00571F 9F               [12] 2810 	subb	a,r7
      005720 50 02            [24] 2811 	jnc	00110$
                                   2812 ;	radio/serial.c:514: SERIAL_CTS = false;
      005722 C2 82            [12] 2813 	clr	_PIN_CONFIG
      005724                       2814 00110$:
      005724 A2 2C            [12] 2815 	mov	c,_serial_read_buf_sloc1_1_0
      005726 92 AF            [24] 2816 	mov	ea,c
                                   2817 ;	radio/serial.c:518: return true;
      005728 D3               [12] 2818 	setb	c
      005729 22               [24] 2819 	ret
                                   2820 ;------------------------------------------------------------
                                   2821 ;Allocation info for local variables in function 'serial_read_available'
                                   2822 ;------------------------------------------------------------
                                   2823 ;ret                       Allocated to registers r6 r7 
                                   2824 ;------------------------------------------------------------
                                   2825 ;	radio/serial.c:522: serial_read_available(void)
                                   2826 ;	-----------------------------------------
                                   2827 ;	 function serial_read_available
                                   2828 ;	-----------------------------------------
      00572A                       2829 _serial_read_available:
                                   2830 ;	radio/serial.c:525: ES0_SAVE_DISABLE;
      00572A A2 AC            [12] 2831 	mov	c,_ES0
      00572C 92 2D            [24] 2832 	mov	_serial_read_available_ES_saved_1_227,c
      00572E C2 AC            [12] 2833 	clr	_ES0
                                   2834 ;	radio/serial.c:526: ret = BUF_USED(rx);
      005730 78 DF            [12] 2835 	mov	r0,#_rx_insert
      005732 79 E1            [12] 2836 	mov	r1,#_rx_remove
      005734 C3               [12] 2837 	clr	c
      005735 E3               [24] 2838 	movx	a,@r1
      005736 F5 F0            [12] 2839 	mov	b,a
      005738 E2               [24] 2840 	movx	a,@r0
      005739 95 F0            [12] 2841 	subb	a,b
      00573B 09               [12] 2842 	inc	r1
      00573C E3               [24] 2843 	movx	a,@r1
      00573D F5 F0            [12] 2844 	mov	b,a
      00573F 08               [12] 2845 	inc	r0
      005740 E2               [24] 2846 	movx	a,@r0
      005741 95 F0            [12] 2847 	subb	a,b
      005743 40 17            [24] 2848 	jc	00103$
      005745 78 DF            [12] 2849 	mov	r0,#_rx_insert
      005747 79 E1            [12] 2850 	mov	r1,#_rx_remove
      005749 E3               [24] 2851 	movx	a,@r1
      00574A F5 F0            [12] 2852 	mov	b,a
      00574C C3               [12] 2853 	clr	c
      00574D E2               [24] 2854 	movx	a,@r0
      00574E 95 F0            [12] 2855 	subb	a,b
      005750 FE               [12] 2856 	mov	r6,a
      005751 09               [12] 2857 	inc	r1
      005752 E3               [24] 2858 	movx	a,@r1
      005753 F5 F0            [12] 2859 	mov	b,a
      005755 08               [12] 2860 	inc	r0
      005756 E2               [24] 2861 	movx	a,@r0
      005757 95 F0            [12] 2862 	subb	a,b
      005759 FF               [12] 2863 	mov	r7,a
      00575A 80 19            [24] 2864 	sjmp	00104$
      00575C                       2865 00103$:
      00575C 78 E1            [12] 2866 	mov	r0,#_rx_remove
      00575E D3               [12] 2867 	setb	c
      00575F E2               [24] 2868 	movx	a,@r0
      005760 94 00            [12] 2869 	subb	a,#0x00
      005762 F4               [12] 2870 	cpl	a
      005763 B3               [12] 2871 	cpl	c
      005764 FC               [12] 2872 	mov	r4,a
      005765 B3               [12] 2873 	cpl	c
      005766 08               [12] 2874 	inc	r0
      005767 E2               [24] 2875 	movx	a,@r0
      005768 94 04            [12] 2876 	subb	a,#0x04
      00576A F4               [12] 2877 	cpl	a
      00576B FD               [12] 2878 	mov	r5,a
      00576C 78 DF            [12] 2879 	mov	r0,#_rx_insert
      00576E E2               [24] 2880 	movx	a,@r0
      00576F 2C               [12] 2881 	add	a,r4
      005770 FE               [12] 2882 	mov	r6,a
      005771 08               [12] 2883 	inc	r0
      005772 E2               [24] 2884 	movx	a,@r0
      005773 3D               [12] 2885 	addc	a,r5
      005774 FF               [12] 2886 	mov	r7,a
      005775                       2887 00104$:
                                   2888 ;	radio/serial.c:527: ES0_RESTORE;
      005775 A2 2D            [12] 2889 	mov	c,_serial_read_available_ES_saved_1_227
      005777 92 AC            [24] 2890 	mov	_ES0,c
                                   2891 ;	radio/serial.c:528: return ret;
      005779 8E 82            [24] 2892 	mov	dpl,r6
      00577B 8F 83            [24] 2893 	mov	dph,r7
      00577D 22               [24] 2894 	ret
                                   2895 ;------------------------------------------------------------
                                   2896 ;Allocation info for local variables in function 'serial_read_space'
                                   2897 ;------------------------------------------------------------
                                   2898 ;space                     Allocated with name '_serial_read_space_space_1_229'
                                   2899 ;------------------------------------------------------------
                                   2900 ;	radio/serial.c:533: serial_read_space(void)
                                   2901 ;	-----------------------------------------
                                   2902 ;	 function serial_read_space
                                   2903 ;	-----------------------------------------
      00577E                       2904 _serial_read_space:
                                   2905 ;	radio/serial.c:535: uint16_t space = sizeof(rx_buf) - serial_read_available();
      00577E 12 57 2A         [24] 2906 	lcall	_serial_read_available
      005781 AE 82            [24] 2907 	mov	r6,dpl
      005783 AF 83            [24] 2908 	mov	r7,dph
      005785 E4               [12] 2909 	clr	a
      005786 C3               [12] 2910 	clr	c
      005787 9E               [12] 2911 	subb	a,r6
      005788 FE               [12] 2912 	mov	r6,a
      005789 74 04            [12] 2913 	mov	a,#0x04
      00578B 9F               [12] 2914 	subb	a,r7
                                   2915 ;	radio/serial.c:536: space = (100 * (space/8)) / (sizeof(rx_buf)/8);
      00578C C4               [12] 2916 	swap	a
      00578D 23               [12] 2917 	rl	a
      00578E CE               [12] 2918 	xch	a,r6
      00578F C4               [12] 2919 	swap	a
      005790 23               [12] 2920 	rl	a
      005791 54 1F            [12] 2921 	anl	a,#0x1F
      005793 6E               [12] 2922 	xrl	a,r6
      005794 CE               [12] 2923 	xch	a,r6
      005795 54 1F            [12] 2924 	anl	a,#0x1F
      005797 CE               [12] 2925 	xch	a,r6
      005798 6E               [12] 2926 	xrl	a,r6
      005799 CE               [12] 2927 	xch	a,r6
      00579A FF               [12] 2928 	mov	r7,a
      00579B 90 07 4F         [24] 2929 	mov	dptr,#__mulint_PARM_2
      00579E EE               [12] 2930 	mov	a,r6
      00579F F0               [24] 2931 	movx	@dptr,a
      0057A0 EF               [12] 2932 	mov	a,r7
      0057A1 A3               [24] 2933 	inc	dptr
      0057A2 F0               [24] 2934 	movx	@dptr,a
      0057A3 90 00 64         [24] 2935 	mov	dptr,#0x0064
      0057A6 12 6E 1C         [24] 2936 	lcall	__mulint
      0057A9 AE 82            [24] 2937 	mov	r6,dpl
      0057AB E5 83            [12] 2938 	mov	a,dph
      0057AD A2 E7            [12] 2939 	mov	c,acc.7
      0057AF CE               [12] 2940 	xch	a,r6
      0057B0 33               [12] 2941 	rlc	a
      0057B1 CE               [12] 2942 	xch	a,r6
      0057B2 33               [12] 2943 	rlc	a
      0057B3 CE               [12] 2944 	xch	a,r6
      0057B4 54 01            [12] 2945 	anl	a,#0x01
                                   2946 ;	radio/serial.c:537: return space;
      0057B6 8E 82            [24] 2947 	mov	dpl,r6
      0057B8 22               [24] 2948 	ret
                                   2949 ;------------------------------------------------------------
                                   2950 ;Allocation info for local variables in function 'putchar'
                                   2951 ;------------------------------------------------------------
                                   2952 ;c                         Allocated to registers r7 
                                   2953 ;------------------------------------------------------------
                                   2954 ;	radio/serial.c:541: putchar(char c) __reentrant
                                   2955 ;	-----------------------------------------
                                   2956 ;	 function putchar
                                   2957 ;	-----------------------------------------
      0057B9                       2958 _putchar:
      0057B9 AF 82            [24] 2959 	mov	r7,dpl
                                   2960 ;	radio/serial.c:543: if (c == '\n')
      0057BB BF 0A 0A         [24] 2961 	cjne	r7,#0x0A,00102$
                                   2962 ;	radio/serial.c:544: _serial_write('\r');
      0057BE 75 82 0D         [24] 2963 	mov	dpl,#0x0D
      0057C1 C0 07            [24] 2964 	push	ar7
      0057C3 12 50 66         [24] 2965 	lcall	__serial_write
      0057C6 D0 07            [24] 2966 	pop	ar7
      0057C8                       2967 00102$:
                                   2968 ;	radio/serial.c:545: _serial_write(c);
      0057C8 8F 82            [24] 2969 	mov	dpl,r7
      0057CA 02 50 66         [24] 2970 	ljmp	__serial_write
                                   2971 ;------------------------------------------------------------
                                   2972 ;Allocation info for local variables in function 'serial_device_valid_speed'
                                   2973 ;------------------------------------------------------------
                                   2974 ;i                         Allocated with name '_serial_device_valid_speed_i_1_233'
                                   2975 ;num_rates                 Allocated with name '_serial_device_valid_speed_num_rates_1_233'
                                   2976 ;speed                     Allocated to registers r7 
                                   2977 ;------------------------------------------------------------
                                   2978 ;	radio/serial.c:575: serial_device_valid_speed(register uint8_t speed)
                                   2979 ;	-----------------------------------------
                                   2980 ;	 function serial_device_valid_speed
                                   2981 ;	-----------------------------------------
      0057CD                       2982 _serial_device_valid_speed:
      0057CD AF 82            [24] 2983 	mov	r7,dpl
                                   2984 ;	radio/serial.c:580: for (i = 0; i < num_rates; i++) {
      0057CF 7E 00            [12] 2985 	mov	r6,#0x00
      0057D1                       2986 00105$:
      0057D1 BE 09 00         [24] 2987 	cjne	r6,#0x09,00118$
      0057D4                       2988 00118$:
      0057D4 50 1B            [24] 2989 	jnc	00103$
                                   2990 ;	radio/serial.c:581: if (speed == serial_rates[i].rate) {
      0057D6 EE               [12] 2991 	mov	a,r6
      0057D7 75 F0 03         [24] 2992 	mov	b,#0x03
      0057DA A4               [48] 2993 	mul	ab
      0057DB 24 6D            [12] 2994 	add	a,#_serial_rates
      0057DD F5 82            [12] 2995 	mov	dpl,a
      0057DF 74 7D            [12] 2996 	mov	a,#(_serial_rates >> 8)
      0057E1 35 F0            [12] 2997 	addc	a,b
      0057E3 F5 83            [12] 2998 	mov	dph,a
      0057E5 E4               [12] 2999 	clr	a
      0057E6 93               [24] 3000 	movc	a,@a+dptr
      0057E7 FD               [12] 3001 	mov	r5,a
      0057E8 EF               [12] 3002 	mov	a,r7
      0057E9 B5 05 02         [24] 3003 	cjne	a,ar5,00106$
                                   3004 ;	radio/serial.c:582: return true;
      0057EC D3               [12] 3005 	setb	c
      0057ED 22               [24] 3006 	ret
      0057EE                       3007 00106$:
                                   3008 ;	radio/serial.c:580: for (i = 0; i < num_rates; i++) {
      0057EE 0E               [12] 3009 	inc	r6
      0057EF 80 E0            [24] 3010 	sjmp	00105$
      0057F1                       3011 00103$:
                                   3012 ;	radio/serial.c:585: return false;
      0057F1 C3               [12] 3013 	clr	c
      0057F2 22               [24] 3014 	ret
                                   3015 ;------------------------------------------------------------
                                   3016 ;Allocation info for local variables in function 'serial_device_set_speed'
                                   3017 ;------------------------------------------------------------
                                   3018 ;speed                     Allocated to registers r7 
                                   3019 ;i                         Allocated with name '_serial_device_set_speed_i_1_237'
                                   3020 ;num_rates                 Allocated with name '_serial_device_set_speed_num_rates_1_237'
                                   3021 ;------------------------------------------------------------
                                   3022 ;	radio/serial.c:589: void serial_device_set_speed(register uint8_t speed)
                                   3023 ;	-----------------------------------------
                                   3024 ;	 function serial_device_set_speed
                                   3025 ;	-----------------------------------------
      0057F3                       3026 _serial_device_set_speed:
      0057F3 AF 82            [24] 3027 	mov	r7,dpl
                                   3028 ;	radio/serial.c:594: for (i = 0; i < num_rates; i++) {
      0057F5 7E 00            [12] 3029 	mov	r6,#0x00
      0057F7                       3030 00107$:
      0057F7 BE 09 00         [24] 3031 	cjne	r6,#0x09,00124$
      0057FA                       3032 00124$:
      0057FA 50 1B            [24] 3033 	jnc	00115$
                                   3034 ;	radio/serial.c:595: if (speed == serial_rates[i].rate) {
      0057FC EE               [12] 3035 	mov	a,r6
      0057FD 75 F0 03         [24] 3036 	mov	b,#0x03
      005800 A4               [48] 3037 	mul	ab
      005801 24 6D            [12] 3038 	add	a,#_serial_rates
      005803 F5 82            [12] 3039 	mov	dpl,a
      005805 74 7D            [12] 3040 	mov	a,#(_serial_rates >> 8)
      005807 35 F0            [12] 3041 	addc	a,b
      005809 F5 83            [12] 3042 	mov	dph,a
      00580B E4               [12] 3043 	clr	a
      00580C 93               [24] 3044 	movc	a,@a+dptr
      00580D FD               [12] 3045 	mov	r5,a
      00580E EF               [12] 3046 	mov	a,r7
      00580F B5 05 02         [24] 3047 	cjne	a,ar5,00126$
      005812 80 03            [24] 3048 	sjmp	00115$
      005814                       3049 00126$:
                                   3050 ;	radio/serial.c:594: for (i = 0; i < num_rates; i++) {
      005814 0E               [12] 3051 	inc	r6
      005815 80 E0            [24] 3052 	sjmp	00107$
      005817                       3053 00115$:
      005817 90 06 3D         [24] 3054 	mov	dptr,#_serial_device_set_speed_i_1_237
      00581A EE               [12] 3055 	mov	a,r6
      00581B F0               [24] 3056 	movx	@dptr,a
                                   3057 ;	radio/serial.c:599: if (i == num_rates) {
      00581C BE 09 06         [24] 3058 	cjne	r6,#0x09,00105$
                                   3059 ;	radio/serial.c:600: i = 6; // 57600 default
      00581F 90 06 3D         [24] 3060 	mov	dptr,#_serial_device_set_speed_i_1_237
      005822 74 06            [12] 3061 	mov	a,#0x06
      005824 F0               [24] 3062 	movx	@dptr,a
      005825                       3063 00105$:
                                   3064 ;	radio/serial.c:604: TH1 = serial_rates[i].th1;
      005825 90 06 3D         [24] 3065 	mov	dptr,#_serial_device_set_speed_i_1_237
      005828 E0               [24] 3066 	movx	a,@dptr
      005829 75 F0 03         [24] 3067 	mov	b,#0x03
      00582C A4               [48] 3068 	mul	ab
      00582D 24 6D            [12] 3069 	add	a,#_serial_rates
      00582F FD               [12] 3070 	mov	r5,a
      005830 74 7D            [12] 3071 	mov	a,#(_serial_rates >> 8)
      005832 35 F0            [12] 3072 	addc	a,b
      005834 FE               [12] 3073 	mov	r6,a
      005835 8D 82            [24] 3074 	mov	dpl,r5
      005837 8E 83            [24] 3075 	mov	dph,r6
      005839 A3               [24] 3076 	inc	dptr
      00583A E4               [12] 3077 	clr	a
      00583B 93               [24] 3078 	movc	a,@a+dptr
      00583C F5 8D            [12] 3079 	mov	_TH1,a
                                   3080 ;	radio/serial.c:605: CKCON = (CKCON & ~0x0b) | serial_rates[i].ckcon;
      00583E AC 8E            [24] 3081 	mov	r4,_CKCON
      005840 53 04 F4         [24] 3082 	anl	ar4,#0xF4
      005843 8D 82            [24] 3083 	mov	dpl,r5
      005845 8E 83            [24] 3084 	mov	dph,r6
      005847 A3               [24] 3085 	inc	dptr
      005848 A3               [24] 3086 	inc	dptr
      005849 E4               [12] 3087 	clr	a
      00584A 93               [24] 3088 	movc	a,@a+dptr
      00584B 4C               [12] 3089 	orl	a,r4
      00584C F5 8E            [12] 3090 	mov	_CKCON,a
                                   3091 ;	radio/serial.c:609: packet_set_serial_speed(speed*125UL);	
      00584E 90 07 57         [24] 3092 	mov	dptr,#__mullong_PARM_2
      005851 EF               [12] 3093 	mov	a,r7
      005852 F0               [24] 3094 	movx	@dptr,a
      005853 E4               [12] 3095 	clr	a
      005854 A3               [24] 3096 	inc	dptr
      005855 F0               [24] 3097 	movx	@dptr,a
      005856 A3               [24] 3098 	inc	dptr
      005857 F0               [24] 3099 	movx	@dptr,a
      005858 A3               [24] 3100 	inc	dptr
      005859 F0               [24] 3101 	movx	@dptr,a
      00585A 90 00 7D         [24] 3102 	mov	dptr,#(0x7D&0x00ff)
      00585D E4               [12] 3103 	clr	a
      00585E F5 F0            [12] 3104 	mov	b,a
      005860 12 6E D0         [24] 3105 	lcall	__mullong
      005863 02 0E 2C         [24] 3106 	ljmp	_packet_set_serial_speed
                                   3107 ;------------------------------------------------------------
                                   3108 ;Allocation info for local variables in function 'encrypt_buffer_getting_full'
                                   3109 ;------------------------------------------------------------
                                   3110 ;	radio/serial.c:617: encrypt_buffer_getting_full()
                                   3111 ;	-----------------------------------------
                                   3112 ;	 function encrypt_buffer_getting_full
                                   3113 ;	-----------------------------------------
      005866                       3114 _encrypt_buffer_getting_full:
                                   3115 ;	radio/serial.c:619: if (BUF_FREE(encrypt) < encrypt_buff_start) {
      005866 78 E7            [12] 3116 	mov	r0,#_encrypt_insert
      005868 79 E9            [12] 3117 	mov	r1,#_encrypt_remove
      00586A C3               [12] 3118 	clr	c
      00586B E3               [24] 3119 	movx	a,@r1
      00586C F5 F0            [12] 3120 	mov	b,a
      00586E E2               [24] 3121 	movx	a,@r0
      00586F 95 F0            [12] 3122 	subb	a,b
      005871 09               [12] 3123 	inc	r1
      005872 E3               [24] 3124 	movx	a,@r1
      005873 F5 F0            [12] 3125 	mov	b,a
      005875 08               [12] 3126 	inc	r0
      005876 E2               [24] 3127 	movx	a,@r0
      005877 95 F0            [12] 3128 	subb	a,b
      005879 40 1B            [24] 3129 	jc	00105$
      00587B 78 E9            [12] 3130 	mov	r0,#_encrypt_remove
      00587D E2               [24] 3131 	movx	a,@r0
      00587E 24 FC            [12] 3132 	add	a,#0xFC
      005880 FE               [12] 3133 	mov	r6,a
      005881 08               [12] 3134 	inc	r0
      005882 E2               [24] 3135 	movx	a,@r0
      005883 34 03            [12] 3136 	addc	a,#0x03
      005885 FF               [12] 3137 	mov	r7,a
      005886 78 E7            [12] 3138 	mov	r0,#_encrypt_insert
      005888 D3               [12] 3139 	setb	c
      005889 E2               [24] 3140 	movx	a,@r0
      00588A 9E               [12] 3141 	subb	a,r6
      00588B F4               [12] 3142 	cpl	a
      00588C B3               [12] 3143 	cpl	c
      00588D FE               [12] 3144 	mov	r6,a
      00588E B3               [12] 3145 	cpl	c
      00588F 08               [12] 3146 	inc	r0
      005890 E2               [24] 3147 	movx	a,@r0
      005891 9F               [12] 3148 	subb	a,r7
      005892 F4               [12] 3149 	cpl	a
      005893 FF               [12] 3150 	mov	r7,a
      005894 80 15            [24] 3151 	sjmp	00106$
      005896                       3152 00105$:
      005896 78 E9            [12] 3153 	mov	r0,#_encrypt_remove
      005898 79 E7            [12] 3154 	mov	r1,#_encrypt_insert
      00589A E3               [24] 3155 	movx	a,@r1
      00589B F5 F0            [12] 3156 	mov	b,a
      00589D C3               [12] 3157 	clr	c
      00589E E2               [24] 3158 	movx	a,@r0
      00589F 95 F0            [12] 3159 	subb	a,b
      0058A1 FE               [12] 3160 	mov	r6,a
      0058A2 09               [12] 3161 	inc	r1
      0058A3 E3               [24] 3162 	movx	a,@r1
      0058A4 F5 F0            [12] 3163 	mov	b,a
      0058A6 08               [12] 3164 	inc	r0
      0058A7 E2               [24] 3165 	movx	a,@r0
      0058A8 95 F0            [12] 3166 	subb	a,b
      0058AA FF               [12] 3167 	mov	r7,a
      0058AB                       3168 00106$:
      0058AB 78 DB            [12] 3169 	mov	r0,#_encrypt_buff_start
      0058AD C3               [12] 3170 	clr	c
      0058AE E2               [24] 3171 	movx	a,@r0
      0058AF F5 F0            [12] 3172 	mov	b,a
      0058B1 EE               [12] 3173 	mov	a,r6
      0058B2 95 F0            [12] 3174 	subb	a,b
      0058B4 08               [12] 3175 	inc	r0
      0058B5 E2               [24] 3176 	movx	a,@r0
      0058B6 F5 F0            [12] 3177 	mov	b,a
      0058B8 EF               [12] 3178 	mov	a,r7
      0058B9 95 F0            [12] 3179 	subb	a,b
      0058BB 50 02            [24] 3180 	jnc	00102$
                                   3181 ;	radio/serial.c:620: return true;
      0058BD D3               [12] 3182 	setb	c
      0058BE 22               [24] 3183 	ret
      0058BF                       3184 00102$:
                                   3185 ;	radio/serial.c:623: return false;
      0058BF C3               [12] 3186 	clr	c
      0058C0 22               [24] 3187 	ret
                                   3188 ;------------------------------------------------------------
                                   3189 ;Allocation info for local variables in function 'encrypt_buffer_getting_empty'
                                   3190 ;------------------------------------------------------------
                                   3191 ;	radio/serial.c:630: encrypt_buffer_getting_empty()
                                   3192 ;	-----------------------------------------
                                   3193 ;	 function encrypt_buffer_getting_empty
                                   3194 ;	-----------------------------------------
      0058C1                       3195 _encrypt_buffer_getting_empty:
                                   3196 ;	radio/serial.c:632: if (BUF_FREE(encrypt) > encrypt_buff_end) {
      0058C1 78 E7            [12] 3197 	mov	r0,#_encrypt_insert
      0058C3 79 E9            [12] 3198 	mov	r1,#_encrypt_remove
      0058C5 C3               [12] 3199 	clr	c
      0058C6 E3               [24] 3200 	movx	a,@r1
      0058C7 F5 F0            [12] 3201 	mov	b,a
      0058C9 E2               [24] 3202 	movx	a,@r0
      0058CA 95 F0            [12] 3203 	subb	a,b
      0058CC 09               [12] 3204 	inc	r1
      0058CD E3               [24] 3205 	movx	a,@r1
      0058CE F5 F0            [12] 3206 	mov	b,a
      0058D0 08               [12] 3207 	inc	r0
      0058D1 E2               [24] 3208 	movx	a,@r0
      0058D2 95 F0            [12] 3209 	subb	a,b
      0058D4 40 1B            [24] 3210 	jc	00105$
      0058D6 78 E9            [12] 3211 	mov	r0,#_encrypt_remove
      0058D8 E2               [24] 3212 	movx	a,@r0
      0058D9 24 FC            [12] 3213 	add	a,#0xFC
      0058DB FE               [12] 3214 	mov	r6,a
      0058DC 08               [12] 3215 	inc	r0
      0058DD E2               [24] 3216 	movx	a,@r0
      0058DE 34 03            [12] 3217 	addc	a,#0x03
      0058E0 FF               [12] 3218 	mov	r7,a
      0058E1 78 E7            [12] 3219 	mov	r0,#_encrypt_insert
      0058E3 D3               [12] 3220 	setb	c
      0058E4 E2               [24] 3221 	movx	a,@r0
      0058E5 9E               [12] 3222 	subb	a,r6
      0058E6 F4               [12] 3223 	cpl	a
      0058E7 B3               [12] 3224 	cpl	c
      0058E8 FE               [12] 3225 	mov	r6,a
      0058E9 B3               [12] 3226 	cpl	c
      0058EA 08               [12] 3227 	inc	r0
      0058EB E2               [24] 3228 	movx	a,@r0
      0058EC 9F               [12] 3229 	subb	a,r7
      0058ED F4               [12] 3230 	cpl	a
      0058EE FF               [12] 3231 	mov	r7,a
      0058EF 80 15            [24] 3232 	sjmp	00106$
      0058F1                       3233 00105$:
      0058F1 78 E9            [12] 3234 	mov	r0,#_encrypt_remove
      0058F3 79 E7            [12] 3235 	mov	r1,#_encrypt_insert
      0058F5 E3               [24] 3236 	movx	a,@r1
      0058F6 F5 F0            [12] 3237 	mov	b,a
      0058F8 C3               [12] 3238 	clr	c
      0058F9 E2               [24] 3239 	movx	a,@r0
      0058FA 95 F0            [12] 3240 	subb	a,b
      0058FC FE               [12] 3241 	mov	r6,a
      0058FD 09               [12] 3242 	inc	r1
      0058FE E3               [24] 3243 	movx	a,@r1
      0058FF F5 F0            [12] 3244 	mov	b,a
      005901 08               [12] 3245 	inc	r0
      005902 E2               [24] 3246 	movx	a,@r0
      005903 95 F0            [12] 3247 	subb	a,b
      005905 FF               [12] 3248 	mov	r7,a
      005906                       3249 00106$:
      005906 78 DD            [12] 3250 	mov	r0,#_encrypt_buff_end
      005908 C3               [12] 3251 	clr	c
      005909 E2               [24] 3252 	movx	a,@r0
      00590A 9E               [12] 3253 	subb	a,r6
      00590B 08               [12] 3254 	inc	r0
      00590C E2               [24] 3255 	movx	a,@r0
      00590D 9F               [12] 3256 	subb	a,r7
      00590E 50 02            [24] 3257 	jnc	00102$
                                   3258 ;	radio/serial.c:633: return true;
      005910 D3               [12] 3259 	setb	c
      005911 22               [24] 3260 	ret
      005912                       3261 00102$:
                                   3262 ;	radio/serial.c:635: return false;
      005912 C3               [12] 3263 	clr	c
      005913 22               [24] 3264 	ret
                                   3265 ;------------------------------------------------------------
                                   3266 ;Allocation info for local variables in function 'encrypt_buffer_write_space'
                                   3267 ;------------------------------------------------------------
                                   3268 ;ret                       Allocated to registers r6 r7 
                                   3269 ;------------------------------------------------------------
                                   3270 ;	radio/serial.c:642: encrypt_buffer_write_space()
                                   3271 ;	-----------------------------------------
                                   3272 ;	 function encrypt_buffer_write_space
                                   3273 ;	-----------------------------------------
      005914                       3274 _encrypt_buffer_write_space:
                                   3275 ;	radio/serial.c:645: ret = BUF_FREE(encrypt);
      005914 78 E7            [12] 3276 	mov	r0,#_encrypt_insert
      005916 79 E9            [12] 3277 	mov	r1,#_encrypt_remove
      005918 C3               [12] 3278 	clr	c
      005919 E3               [24] 3279 	movx	a,@r1
      00591A F5 F0            [12] 3280 	mov	b,a
      00591C E2               [24] 3281 	movx	a,@r0
      00591D 95 F0            [12] 3282 	subb	a,b
      00591F 09               [12] 3283 	inc	r1
      005920 E3               [24] 3284 	movx	a,@r1
      005921 F5 F0            [12] 3285 	mov	b,a
      005923 08               [12] 3286 	inc	r0
      005924 E2               [24] 3287 	movx	a,@r0
      005925 95 F0            [12] 3288 	subb	a,b
      005927 40 1B            [24] 3289 	jc	00103$
      005929 78 E9            [12] 3290 	mov	r0,#_encrypt_remove
      00592B E2               [24] 3291 	movx	a,@r0
      00592C 24 FC            [12] 3292 	add	a,#0xFC
      00592E FE               [12] 3293 	mov	r6,a
      00592F 08               [12] 3294 	inc	r0
      005930 E2               [24] 3295 	movx	a,@r0
      005931 34 03            [12] 3296 	addc	a,#0x03
      005933 FF               [12] 3297 	mov	r7,a
      005934 78 E7            [12] 3298 	mov	r0,#_encrypt_insert
      005936 D3               [12] 3299 	setb	c
      005937 E2               [24] 3300 	movx	a,@r0
      005938 9E               [12] 3301 	subb	a,r6
      005939 F4               [12] 3302 	cpl	a
      00593A B3               [12] 3303 	cpl	c
      00593B FE               [12] 3304 	mov	r6,a
      00593C B3               [12] 3305 	cpl	c
      00593D 08               [12] 3306 	inc	r0
      00593E E2               [24] 3307 	movx	a,@r0
      00593F 9F               [12] 3308 	subb	a,r7
      005940 F4               [12] 3309 	cpl	a
      005941 FF               [12] 3310 	mov	r7,a
      005942 80 15            [24] 3311 	sjmp	00104$
      005944                       3312 00103$:
      005944 78 E9            [12] 3313 	mov	r0,#_encrypt_remove
      005946 79 E7            [12] 3314 	mov	r1,#_encrypt_insert
      005948 E3               [24] 3315 	movx	a,@r1
      005949 F5 F0            [12] 3316 	mov	b,a
      00594B C3               [12] 3317 	clr	c
      00594C E2               [24] 3318 	movx	a,@r0
      00594D 95 F0            [12] 3319 	subb	a,b
      00594F FE               [12] 3320 	mov	r6,a
      005950 09               [12] 3321 	inc	r1
      005951 E3               [24] 3322 	movx	a,@r1
      005952 F5 F0            [12] 3323 	mov	b,a
      005954 08               [12] 3324 	inc	r0
      005955 E2               [24] 3325 	movx	a,@r0
      005956 95 F0            [12] 3326 	subb	a,b
      005958 FF               [12] 3327 	mov	r7,a
      005959                       3328 00104$:
                                   3329 ;	radio/serial.c:646: return ret;
      005959 8E 82            [24] 3330 	mov	dpl,r6
      00595B 8F 83            [24] 3331 	mov	dph,r7
      00595D 22               [24] 3332 	ret
                                   3333 	.area CSEG    (CODE)
                                   3334 	.area CONST   (CODE)
      007D4A                       3335 ___str_0:
      007D4A 65 72 72 6F 72 20 77  3336 	.ascii "error while trying to decrypt data"
             68 69 6C 65 20 74 72
             79 69 6E 67 20 74 6F
             20 64 65 63 72 79 70
             74 20 64 61 74 61
      007D6C 00                    3337 	.db 0x00
      007D6D                       3338 _serial_rates:
      007D6D 01                    3339 	.db #0x01	; 1
      007D6E 2C                    3340 	.db #0x2C	; 44
      007D6F 02                    3341 	.db #0x02	; 2
      007D70 02                    3342 	.db #0x02	; 2
      007D71 96                    3343 	.db #0x96	; 150
      007D72 02                    3344 	.db #0x02	; 2
      007D73 04                    3345 	.db #0x04	; 4
      007D74 2C                    3346 	.db #0x2C	; 44
      007D75 00                    3347 	.db #0x00	; 0
      007D76 09                    3348 	.db #0x09	; 9
      007D77 96                    3349 	.db #0x96	; 150
      007D78 00                    3350 	.db #0x00	; 0
      007D79 13                    3351 	.db #0x13	; 19
      007D7A 60                    3352 	.db #0x60	; 96
      007D7B 01                    3353 	.db #0x01	; 1
      007D7C 26                    3354 	.db #0x26	; 38
      007D7D B0                    3355 	.db #0xB0	; 176
      007D7E 01                    3356 	.db #0x01	; 1
      007D7F 39                    3357 	.db #0x39	; 57	'9'
      007D80 2B                    3358 	.db #0x2B	; 43
      007D81 08                    3359 	.db #0x08	; 8
      007D82 73                    3360 	.db #0x73	; 115	's'
      007D83 96                    3361 	.db #0x96	; 150
      007D84 08                    3362 	.db #0x08	; 8
      007D85 E6                    3363 	.db #0xE6	; 230
      007D86 CB                    3364 	.db #0xCB	; 203
      007D87 08                    3365 	.db #0x08	; 8
                                   3366 	.area XINIT   (CODE)
      007DA8                       3367 __xinit__rx_buf:
      007DA8 00                    3368 	.db #0x00	; 0
      007DA9 00                    3369 	.db 0x00
      007DAA 00                    3370 	.db 0x00
      007DAB 00                    3371 	.db 0x00
      007DAC 00                    3372 	.db 0x00
      007DAD 00                    3373 	.db 0x00
      007DAE 00                    3374 	.db 0x00
      007DAF 00                    3375 	.db 0x00
      007DB0 00                    3376 	.db 0x00
      007DB1 00                    3377 	.db 0x00
      007DB2 00                    3378 	.db 0x00
      007DB3 00                    3379 	.db 0x00
      007DB4 00                    3380 	.db 0x00
      007DB5 00                    3381 	.db 0x00
      007DB6 00                    3382 	.db 0x00
      007DB7 00                    3383 	.db 0x00
      007DB8 00                    3384 	.db 0x00
      007DB9 00                    3385 	.db 0x00
      007DBA 00                    3386 	.db 0x00
      007DBB 00                    3387 	.db 0x00
      007DBC 00                    3388 	.db 0x00
      007DBD 00                    3389 	.db 0x00
      007DBE 00                    3390 	.db 0x00
      007DBF 00                    3391 	.db 0x00
      007DC0 00                    3392 	.db 0x00
      007DC1 00                    3393 	.db 0x00
      007DC2 00                    3394 	.db 0x00
      007DC3 00                    3395 	.db 0x00
      007DC4 00                    3396 	.db 0x00
      007DC5 00                    3397 	.db 0x00
      007DC6 00                    3398 	.db 0x00
      007DC7 00                    3399 	.db 0x00
      007DC8 00                    3400 	.db 0x00
      007DC9 00                    3401 	.db 0x00
      007DCA 00                    3402 	.db 0x00
      007DCB 00                    3403 	.db 0x00
      007DCC 00                    3404 	.db 0x00
      007DCD 00                    3405 	.db 0x00
      007DCE 00                    3406 	.db 0x00
      007DCF 00                    3407 	.db 0x00
      007DD0 00                    3408 	.db 0x00
      007DD1 00                    3409 	.db 0x00
      007DD2 00                    3410 	.db 0x00
      007DD3 00                    3411 	.db 0x00
      007DD4 00                    3412 	.db 0x00
      007DD5 00                    3413 	.db 0x00
      007DD6 00                    3414 	.db 0x00
      007DD7 00                    3415 	.db 0x00
      007DD8 00                    3416 	.db 0x00
      007DD9 00                    3417 	.db 0x00
      007DDA 00                    3418 	.db 0x00
      007DDB 00                    3419 	.db 0x00
      007DDC 00                    3420 	.db 0x00
      007DDD 00                    3421 	.db 0x00
      007DDE 00                    3422 	.db 0x00
      007DDF 00                    3423 	.db 0x00
      007DE0 00                    3424 	.db 0x00
      007DE1 00                    3425 	.db 0x00
      007DE2 00                    3426 	.db 0x00
      007DE3 00                    3427 	.db 0x00
      007DE4 00                    3428 	.db 0x00
      007DE5 00                    3429 	.db 0x00
      007DE6 00                    3430 	.db 0x00
      007DE7 00                    3431 	.db 0x00
      007DE8 00                    3432 	.db 0x00
      007DE9 00                    3433 	.db 0x00
      007DEA 00                    3434 	.db 0x00
      007DEB 00                    3435 	.db 0x00
      007DEC 00                    3436 	.db 0x00
      007DED 00                    3437 	.db 0x00
      007DEE 00                    3438 	.db 0x00
      007DEF 00                    3439 	.db 0x00
      007DF0 00                    3440 	.db 0x00
      007DF1 00                    3441 	.db 0x00
      007DF2 00                    3442 	.db 0x00
      007DF3 00                    3443 	.db 0x00
      007DF4 00                    3444 	.db 0x00
      007DF5 00                    3445 	.db 0x00
      007DF6 00                    3446 	.db 0x00
      007DF7 00                    3447 	.db 0x00
      007DF8 00                    3448 	.db 0x00
      007DF9 00                    3449 	.db 0x00
      007DFA 00                    3450 	.db 0x00
      007DFB 00                    3451 	.db 0x00
      007DFC 00                    3452 	.db 0x00
      007DFD 00                    3453 	.db 0x00
      007DFE 00                    3454 	.db 0x00
      007DFF 00                    3455 	.db 0x00
      007E00 00                    3456 	.db 0x00
      007E01 00                    3457 	.db 0x00
      007E02 00                    3458 	.db 0x00
      007E03 00                    3459 	.db 0x00
      007E04 00                    3460 	.db 0x00
      007E05 00                    3461 	.db 0x00
      007E06 00                    3462 	.db 0x00
      007E07 00                    3463 	.db 0x00
      007E08 00                    3464 	.db 0x00
      007E09 00                    3465 	.db 0x00
      007E0A 00                    3466 	.db 0x00
      007E0B 00                    3467 	.db 0x00
      007E0C 00                    3468 	.db 0x00
      007E0D 00                    3469 	.db 0x00
      007E0E 00                    3470 	.db 0x00
      007E0F 00                    3471 	.db 0x00
      007E10 00                    3472 	.db 0x00
      007E11 00                    3473 	.db 0x00
      007E12 00                    3474 	.db 0x00
      007E13 00                    3475 	.db 0x00
      007E14 00                    3476 	.db 0x00
      007E15 00                    3477 	.db 0x00
      007E16 00                    3478 	.db 0x00
      007E17 00                    3479 	.db 0x00
      007E18 00                    3480 	.db 0x00
      007E19 00                    3481 	.db 0x00
      007E1A 00                    3482 	.db 0x00
      007E1B 00                    3483 	.db 0x00
      007E1C 00                    3484 	.db 0x00
      007E1D 00                    3485 	.db 0x00
      007E1E 00                    3486 	.db 0x00
      007E1F 00                    3487 	.db 0x00
      007E20 00                    3488 	.db 0x00
      007E21 00                    3489 	.db 0x00
      007E22 00                    3490 	.db 0x00
      007E23 00                    3491 	.db 0x00
      007E24 00                    3492 	.db 0x00
      007E25 00                    3493 	.db 0x00
      007E26 00                    3494 	.db 0x00
      007E27 00                    3495 	.db 0x00
      007E28 00                    3496 	.db 0x00
      007E29 00                    3497 	.db 0x00
      007E2A 00                    3498 	.db 0x00
      007E2B 00                    3499 	.db 0x00
      007E2C 00                    3500 	.db 0x00
      007E2D 00                    3501 	.db 0x00
      007E2E 00                    3502 	.db 0x00
      007E2F 00                    3503 	.db 0x00
      007E30 00                    3504 	.db 0x00
      007E31 00                    3505 	.db 0x00
      007E32 00                    3506 	.db 0x00
      007E33 00                    3507 	.db 0x00
      007E34 00                    3508 	.db 0x00
      007E35 00                    3509 	.db 0x00
      007E36 00                    3510 	.db 0x00
      007E37 00                    3511 	.db 0x00
      007E38 00                    3512 	.db 0x00
      007E39 00                    3513 	.db 0x00
      007E3A 00                    3514 	.db 0x00
      007E3B 00                    3515 	.db 0x00
      007E3C 00                    3516 	.db 0x00
      007E3D 00                    3517 	.db 0x00
      007E3E 00                    3518 	.db 0x00
      007E3F 00                    3519 	.db 0x00
      007E40 00                    3520 	.db 0x00
      007E41 00                    3521 	.db 0x00
      007E42 00                    3522 	.db 0x00
      007E43 00                    3523 	.db 0x00
      007E44 00                    3524 	.db 0x00
      007E45 00                    3525 	.db 0x00
      007E46 00                    3526 	.db 0x00
      007E47 00                    3527 	.db 0x00
      007E48 00                    3528 	.db 0x00
      007E49 00                    3529 	.db 0x00
      007E4A 00                    3530 	.db 0x00
      007E4B 00                    3531 	.db 0x00
      007E4C 00                    3532 	.db 0x00
      007E4D 00                    3533 	.db 0x00
      007E4E 00                    3534 	.db 0x00
      007E4F 00                    3535 	.db 0x00
      007E50 00                    3536 	.db 0x00
      007E51 00                    3537 	.db 0x00
      007E52 00                    3538 	.db 0x00
      007E53 00                    3539 	.db 0x00
      007E54 00                    3540 	.db 0x00
      007E55 00                    3541 	.db 0x00
      007E56 00                    3542 	.db 0x00
      007E57 00                    3543 	.db 0x00
      007E58 00                    3544 	.db 0x00
      007E59 00                    3545 	.db 0x00
      007E5A 00                    3546 	.db 0x00
      007E5B 00                    3547 	.db 0x00
      007E5C 00                    3548 	.db 0x00
      007E5D 00                    3549 	.db 0x00
      007E5E 00                    3550 	.db 0x00
      007E5F 00                    3551 	.db 0x00
      007E60 00                    3552 	.db 0x00
      007E61 00                    3553 	.db 0x00
      007E62 00                    3554 	.db 0x00
      007E63 00                    3555 	.db 0x00
      007E64 00                    3556 	.db 0x00
      007E65 00                    3557 	.db 0x00
      007E66 00                    3558 	.db 0x00
      007E67 00                    3559 	.db 0x00
      007E68 00                    3560 	.db 0x00
      007E69 00                    3561 	.db 0x00
      007E6A 00                    3562 	.db 0x00
      007E6B 00                    3563 	.db 0x00
      007E6C 00                    3564 	.db 0x00
      007E6D 00                    3565 	.db 0x00
      007E6E 00                    3566 	.db 0x00
      007E6F 00                    3567 	.db 0x00
      007E70 00                    3568 	.db 0x00
      007E71 00                    3569 	.db 0x00
      007E72 00                    3570 	.db 0x00
      007E73 00                    3571 	.db 0x00
      007E74 00                    3572 	.db 0x00
      007E75 00                    3573 	.db 0x00
      007E76 00                    3574 	.db 0x00
      007E77 00                    3575 	.db 0x00
      007E78 00                    3576 	.db 0x00
      007E79 00                    3577 	.db 0x00
      007E7A 00                    3578 	.db 0x00
      007E7B 00                    3579 	.db 0x00
      007E7C 00                    3580 	.db 0x00
      007E7D 00                    3581 	.db 0x00
      007E7E 00                    3582 	.db 0x00
      007E7F 00                    3583 	.db 0x00
      007E80 00                    3584 	.db 0x00
      007E81 00                    3585 	.db 0x00
      007E82 00                    3586 	.db 0x00
      007E83 00                    3587 	.db 0x00
      007E84 00                    3588 	.db 0x00
      007E85 00                    3589 	.db 0x00
      007E86 00                    3590 	.db 0x00
      007E87 00                    3591 	.db 0x00
      007E88 00                    3592 	.db 0x00
      007E89 00                    3593 	.db 0x00
      007E8A 00                    3594 	.db 0x00
      007E8B 00                    3595 	.db 0x00
      007E8C 00                    3596 	.db 0x00
      007E8D 00                    3597 	.db 0x00
      007E8E 00                    3598 	.db 0x00
      007E8F 00                    3599 	.db 0x00
      007E90 00                    3600 	.db 0x00
      007E91 00                    3601 	.db 0x00
      007E92 00                    3602 	.db 0x00
      007E93 00                    3603 	.db 0x00
      007E94 00                    3604 	.db 0x00
      007E95 00                    3605 	.db 0x00
      007E96 00                    3606 	.db 0x00
      007E97 00                    3607 	.db 0x00
      007E98 00                    3608 	.db 0x00
      007E99 00                    3609 	.db 0x00
      007E9A 00                    3610 	.db 0x00
      007E9B 00                    3611 	.db 0x00
      007E9C 00                    3612 	.db 0x00
      007E9D 00                    3613 	.db 0x00
      007E9E 00                    3614 	.db 0x00
      007E9F 00                    3615 	.db 0x00
      007EA0 00                    3616 	.db 0x00
      007EA1 00                    3617 	.db 0x00
      007EA2 00                    3618 	.db 0x00
      007EA3 00                    3619 	.db 0x00
      007EA4 00                    3620 	.db 0x00
      007EA5 00                    3621 	.db 0x00
      007EA6 00                    3622 	.db 0x00
      007EA7 00                    3623 	.db 0x00
      007EA8 00                    3624 	.db 0x00
      007EA9 00                    3625 	.db 0x00
      007EAA 00                    3626 	.db 0x00
      007EAB 00                    3627 	.db 0x00
      007EAC 00                    3628 	.db 0x00
      007EAD 00                    3629 	.db 0x00
      007EAE 00                    3630 	.db 0x00
      007EAF 00                    3631 	.db 0x00
      007EB0 00                    3632 	.db 0x00
      007EB1 00                    3633 	.db 0x00
      007EB2 00                    3634 	.db 0x00
      007EB3 00                    3635 	.db 0x00
      007EB4 00                    3636 	.db 0x00
      007EB5 00                    3637 	.db 0x00
      007EB6 00                    3638 	.db 0x00
      007EB7 00                    3639 	.db 0x00
      007EB8 00                    3640 	.db 0x00
      007EB9 00                    3641 	.db 0x00
      007EBA 00                    3642 	.db 0x00
      007EBB 00                    3643 	.db 0x00
      007EBC 00                    3644 	.db 0x00
      007EBD 00                    3645 	.db 0x00
      007EBE 00                    3646 	.db 0x00
      007EBF 00                    3647 	.db 0x00
      007EC0 00                    3648 	.db 0x00
      007EC1 00                    3649 	.db 0x00
      007EC2 00                    3650 	.db 0x00
      007EC3 00                    3651 	.db 0x00
      007EC4 00                    3652 	.db 0x00
      007EC5 00                    3653 	.db 0x00
      007EC6 00                    3654 	.db 0x00
      007EC7 00                    3655 	.db 0x00
      007EC8 00                    3656 	.db 0x00
      007EC9 00                    3657 	.db 0x00
      007ECA 00                    3658 	.db 0x00
      007ECB 00                    3659 	.db 0x00
      007ECC 00                    3660 	.db 0x00
      007ECD 00                    3661 	.db 0x00
      007ECE 00                    3662 	.db 0x00
      007ECF 00                    3663 	.db 0x00
      007ED0 00                    3664 	.db 0x00
      007ED1 00                    3665 	.db 0x00
      007ED2 00                    3666 	.db 0x00
      007ED3 00                    3667 	.db 0x00
      007ED4 00                    3668 	.db 0x00
      007ED5 00                    3669 	.db 0x00
      007ED6 00                    3670 	.db 0x00
      007ED7 00                    3671 	.db 0x00
      007ED8 00                    3672 	.db 0x00
      007ED9 00                    3673 	.db 0x00
      007EDA 00                    3674 	.db 0x00
      007EDB 00                    3675 	.db 0x00
      007EDC 00                    3676 	.db 0x00
      007EDD 00                    3677 	.db 0x00
      007EDE 00                    3678 	.db 0x00
      007EDF 00                    3679 	.db 0x00
      007EE0 00                    3680 	.db 0x00
      007EE1 00                    3681 	.db 0x00
      007EE2 00                    3682 	.db 0x00
      007EE3 00                    3683 	.db 0x00
      007EE4 00                    3684 	.db 0x00
      007EE5 00                    3685 	.db 0x00
      007EE6 00                    3686 	.db 0x00
      007EE7 00                    3687 	.db 0x00
      007EE8 00                    3688 	.db 0x00
      007EE9 00                    3689 	.db 0x00
      007EEA 00                    3690 	.db 0x00
      007EEB 00                    3691 	.db 0x00
      007EEC 00                    3692 	.db 0x00
      007EED 00                    3693 	.db 0x00
      007EEE 00                    3694 	.db 0x00
      007EEF 00                    3695 	.db 0x00
      007EF0 00                    3696 	.db 0x00
      007EF1 00                    3697 	.db 0x00
      007EF2 00                    3698 	.db 0x00
      007EF3 00                    3699 	.db 0x00
      007EF4 00                    3700 	.db 0x00
      007EF5 00                    3701 	.db 0x00
      007EF6 00                    3702 	.db 0x00
      007EF7 00                    3703 	.db 0x00
      007EF8 00                    3704 	.db 0x00
      007EF9 00                    3705 	.db 0x00
      007EFA 00                    3706 	.db 0x00
      007EFB 00                    3707 	.db 0x00
      007EFC 00                    3708 	.db 0x00
      007EFD 00                    3709 	.db 0x00
      007EFE 00                    3710 	.db 0x00
      007EFF 00                    3711 	.db 0x00
      007F00 00                    3712 	.db 0x00
      007F01 00                    3713 	.db 0x00
      007F02 00                    3714 	.db 0x00
      007F03 00                    3715 	.db 0x00
      007F04 00                    3716 	.db 0x00
      007F05 00                    3717 	.db 0x00
      007F06 00                    3718 	.db 0x00
      007F07 00                    3719 	.db 0x00
      007F08 00                    3720 	.db 0x00
      007F09 00                    3721 	.db 0x00
      007F0A 00                    3722 	.db 0x00
      007F0B 00                    3723 	.db 0x00
      007F0C 00                    3724 	.db 0x00
      007F0D 00                    3725 	.db 0x00
      007F0E 00                    3726 	.db 0x00
      007F0F 00                    3727 	.db 0x00
      007F10 00                    3728 	.db 0x00
      007F11 00                    3729 	.db 0x00
      007F12 00                    3730 	.db 0x00
      007F13 00                    3731 	.db 0x00
      007F14 00                    3732 	.db 0x00
      007F15 00                    3733 	.db 0x00
      007F16 00                    3734 	.db 0x00
      007F17 00                    3735 	.db 0x00
      007F18 00                    3736 	.db 0x00
      007F19 00                    3737 	.db 0x00
      007F1A 00                    3738 	.db 0x00
      007F1B 00                    3739 	.db 0x00
      007F1C 00                    3740 	.db 0x00
      007F1D 00                    3741 	.db 0x00
      007F1E 00                    3742 	.db 0x00
      007F1F 00                    3743 	.db 0x00
      007F20 00                    3744 	.db 0x00
      007F21 00                    3745 	.db 0x00
      007F22 00                    3746 	.db 0x00
      007F23 00                    3747 	.db 0x00
      007F24 00                    3748 	.db 0x00
      007F25 00                    3749 	.db 0x00
      007F26 00                    3750 	.db 0x00
      007F27 00                    3751 	.db 0x00
      007F28 00                    3752 	.db 0x00
      007F29 00                    3753 	.db 0x00
      007F2A 00                    3754 	.db 0x00
      007F2B 00                    3755 	.db 0x00
      007F2C 00                    3756 	.db 0x00
      007F2D 00                    3757 	.db 0x00
      007F2E 00                    3758 	.db 0x00
      007F2F 00                    3759 	.db 0x00
      007F30 00                    3760 	.db 0x00
      007F31 00                    3761 	.db 0x00
      007F32 00                    3762 	.db 0x00
      007F33 00                    3763 	.db 0x00
      007F34 00                    3764 	.db 0x00
      007F35 00                    3765 	.db 0x00
      007F36 00                    3766 	.db 0x00
      007F37 00                    3767 	.db 0x00
      007F38 00                    3768 	.db 0x00
      007F39 00                    3769 	.db 0x00
      007F3A 00                    3770 	.db 0x00
      007F3B 00                    3771 	.db 0x00
      007F3C 00                    3772 	.db 0x00
      007F3D 00                    3773 	.db 0x00
      007F3E 00                    3774 	.db 0x00
      007F3F 00                    3775 	.db 0x00
      007F40 00                    3776 	.db 0x00
      007F41 00                    3777 	.db 0x00
      007F42 00                    3778 	.db 0x00
      007F43 00                    3779 	.db 0x00
      007F44 00                    3780 	.db 0x00
      007F45 00                    3781 	.db 0x00
      007F46 00                    3782 	.db 0x00
      007F47 00                    3783 	.db 0x00
      007F48 00                    3784 	.db 0x00
      007F49 00                    3785 	.db 0x00
      007F4A 00                    3786 	.db 0x00
      007F4B 00                    3787 	.db 0x00
      007F4C 00                    3788 	.db 0x00
      007F4D 00                    3789 	.db 0x00
      007F4E 00                    3790 	.db 0x00
      007F4F 00                    3791 	.db 0x00
      007F50 00                    3792 	.db 0x00
      007F51 00                    3793 	.db 0x00
      007F52 00                    3794 	.db 0x00
      007F53 00                    3795 	.db 0x00
      007F54 00                    3796 	.db 0x00
      007F55 00                    3797 	.db 0x00
      007F56 00                    3798 	.db 0x00
      007F57 00                    3799 	.db 0x00
      007F58 00                    3800 	.db 0x00
      007F59 00                    3801 	.db 0x00
      007F5A 00                    3802 	.db 0x00
      007F5B 00                    3803 	.db 0x00
      007F5C 00                    3804 	.db 0x00
      007F5D 00                    3805 	.db 0x00
      007F5E 00                    3806 	.db 0x00
      007F5F 00                    3807 	.db 0x00
      007F60 00                    3808 	.db 0x00
      007F61 00                    3809 	.db 0x00
      007F62 00                    3810 	.db 0x00
      007F63 00                    3811 	.db 0x00
      007F64 00                    3812 	.db 0x00
      007F65 00                    3813 	.db 0x00
      007F66 00                    3814 	.db 0x00
      007F67 00                    3815 	.db 0x00
      007F68 00                    3816 	.db 0x00
      007F69 00                    3817 	.db 0x00
      007F6A 00                    3818 	.db 0x00
      007F6B 00                    3819 	.db 0x00
      007F6C 00                    3820 	.db 0x00
      007F6D 00                    3821 	.db 0x00
      007F6E 00                    3822 	.db 0x00
      007F6F 00                    3823 	.db 0x00
      007F70 00                    3824 	.db 0x00
      007F71 00                    3825 	.db 0x00
      007F72 00                    3826 	.db 0x00
      007F73 00                    3827 	.db 0x00
      007F74 00                    3828 	.db 0x00
      007F75 00                    3829 	.db 0x00
      007F76 00                    3830 	.db 0x00
      007F77 00                    3831 	.db 0x00
      007F78 00                    3832 	.db 0x00
      007F79 00                    3833 	.db 0x00
      007F7A 00                    3834 	.db 0x00
      007F7B 00                    3835 	.db 0x00
      007F7C 00                    3836 	.db 0x00
      007F7D 00                    3837 	.db 0x00
      007F7E 00                    3838 	.db 0x00
      007F7F 00                    3839 	.db 0x00
      007F80 00                    3840 	.db 0x00
      007F81 00                    3841 	.db 0x00
      007F82 00                    3842 	.db 0x00
      007F83 00                    3843 	.db 0x00
      007F84 00                    3844 	.db 0x00
      007F85 00                    3845 	.db 0x00
      007F86 00                    3846 	.db 0x00
      007F87 00                    3847 	.db 0x00
      007F88 00                    3848 	.db 0x00
      007F89 00                    3849 	.db 0x00
      007F8A 00                    3850 	.db 0x00
      007F8B 00                    3851 	.db 0x00
      007F8C 00                    3852 	.db 0x00
      007F8D 00                    3853 	.db 0x00
      007F8E 00                    3854 	.db 0x00
      007F8F 00                    3855 	.db 0x00
      007F90 00                    3856 	.db 0x00
      007F91 00                    3857 	.db 0x00
      007F92 00                    3858 	.db 0x00
      007F93 00                    3859 	.db 0x00
      007F94 00                    3860 	.db 0x00
      007F95 00                    3861 	.db 0x00
      007F96 00                    3862 	.db 0x00
      007F97 00                    3863 	.db 0x00
      007F98 00                    3864 	.db 0x00
      007F99 00                    3865 	.db 0x00
      007F9A 00                    3866 	.db 0x00
      007F9B 00                    3867 	.db 0x00
      007F9C 00                    3868 	.db 0x00
      007F9D 00                    3869 	.db 0x00
      007F9E 00                    3870 	.db 0x00
      007F9F 00                    3871 	.db 0x00
      007FA0 00                    3872 	.db 0x00
      007FA1 00                    3873 	.db 0x00
      007FA2 00                    3874 	.db 0x00
      007FA3 00                    3875 	.db 0x00
      007FA4 00                    3876 	.db 0x00
      007FA5 00                    3877 	.db 0x00
      007FA6 00                    3878 	.db 0x00
      007FA7 00                    3879 	.db 0x00
      007FA8 00                    3880 	.db 0x00
      007FA9 00                    3881 	.db 0x00
      007FAA 00                    3882 	.db 0x00
      007FAB 00                    3883 	.db 0x00
      007FAC 00                    3884 	.db 0x00
      007FAD 00                    3885 	.db 0x00
      007FAE 00                    3886 	.db 0x00
      007FAF 00                    3887 	.db 0x00
      007FB0 00                    3888 	.db 0x00
      007FB1 00                    3889 	.db 0x00
      007FB2 00                    3890 	.db 0x00
      007FB3 00                    3891 	.db 0x00
      007FB4 00                    3892 	.db 0x00
      007FB5 00                    3893 	.db 0x00
      007FB6 00                    3894 	.db 0x00
      007FB7 00                    3895 	.db 0x00
      007FB8 00                    3896 	.db 0x00
      007FB9 00                    3897 	.db 0x00
      007FBA 00                    3898 	.db 0x00
      007FBB 00                    3899 	.db 0x00
      007FBC 00                    3900 	.db 0x00
      007FBD 00                    3901 	.db 0x00
      007FBE 00                    3902 	.db 0x00
      007FBF 00                    3903 	.db 0x00
      007FC0 00                    3904 	.db 0x00
      007FC1 00                    3905 	.db 0x00
      007FC2 00                    3906 	.db 0x00
      007FC3 00                    3907 	.db 0x00
      007FC4 00                    3908 	.db 0x00
      007FC5 00                    3909 	.db 0x00
      007FC6 00                    3910 	.db 0x00
      007FC7 00                    3911 	.db 0x00
      007FC8 00                    3912 	.db 0x00
      007FC9 00                    3913 	.db 0x00
      007FCA 00                    3914 	.db 0x00
      007FCB 00                    3915 	.db 0x00
      007FCC 00                    3916 	.db 0x00
      007FCD 00                    3917 	.db 0x00
      007FCE 00                    3918 	.db 0x00
      007FCF 00                    3919 	.db 0x00
      007FD0 00                    3920 	.db 0x00
      007FD1 00                    3921 	.db 0x00
      007FD2 00                    3922 	.db 0x00
      007FD3 00                    3923 	.db 0x00
      007FD4 00                    3924 	.db 0x00
      007FD5 00                    3925 	.db 0x00
      007FD6 00                    3926 	.db 0x00
      007FD7 00                    3927 	.db 0x00
      007FD8 00                    3928 	.db 0x00
      007FD9 00                    3929 	.db 0x00
      007FDA 00                    3930 	.db 0x00
      007FDB 00                    3931 	.db 0x00
      007FDC 00                    3932 	.db 0x00
      007FDD 00                    3933 	.db 0x00
      007FDE 00                    3934 	.db 0x00
      007FDF 00                    3935 	.db 0x00
      007FE0 00                    3936 	.db 0x00
      007FE1 00                    3937 	.db 0x00
      007FE2 00                    3938 	.db 0x00
      007FE3 00                    3939 	.db 0x00
      007FE4 00                    3940 	.db 0x00
      007FE5 00                    3941 	.db 0x00
      007FE6 00                    3942 	.db 0x00
      007FE7 00                    3943 	.db 0x00
      007FE8 00                    3944 	.db 0x00
      007FE9 00                    3945 	.db 0x00
      007FEA 00                    3946 	.db 0x00
      007FEB 00                    3947 	.db 0x00
      007FEC 00                    3948 	.db 0x00
      007FED 00                    3949 	.db 0x00
      007FEE 00                    3950 	.db 0x00
      007FEF 00                    3951 	.db 0x00
      007FF0 00                    3952 	.db 0x00
      007FF1 00                    3953 	.db 0x00
      007FF2 00                    3954 	.db 0x00
      007FF3 00                    3955 	.db 0x00
      007FF4 00                    3956 	.db 0x00
      007FF5 00                    3957 	.db 0x00
      007FF6 00                    3958 	.db 0x00
      007FF7 00                    3959 	.db 0x00
      007FF8 00                    3960 	.db 0x00
      007FF9 00                    3961 	.db 0x00
      007FFA 00                    3962 	.db 0x00
      007FFB 00                    3963 	.db 0x00
      007FFC 00                    3964 	.db 0x00
      007FFD 00                    3965 	.db 0x00
      007FFE 00                    3966 	.db 0x00
      007FFF 00                    3967 	.db 0x00
      008000 00                    3968 	.db 0x00
      008001 00                    3969 	.db 0x00
      008002 00                    3970 	.db 0x00
      008003 00                    3971 	.db 0x00
      008004 00                    3972 	.db 0x00
      008005 00                    3973 	.db 0x00
      008006 00                    3974 	.db 0x00
      008007 00                    3975 	.db 0x00
      008008 00                    3976 	.db 0x00
      008009 00                    3977 	.db 0x00
      00800A 00                    3978 	.db 0x00
      00800B 00                    3979 	.db 0x00
      00800C 00                    3980 	.db 0x00
      00800D 00                    3981 	.db 0x00
      00800E 00                    3982 	.db 0x00
      00800F 00                    3983 	.db 0x00
      008010 00                    3984 	.db 0x00
      008011 00                    3985 	.db 0x00
      008012 00                    3986 	.db 0x00
      008013 00                    3987 	.db 0x00
      008014 00                    3988 	.db 0x00
      008015 00                    3989 	.db 0x00
      008016 00                    3990 	.db 0x00
      008017 00                    3991 	.db 0x00
      008018 00                    3992 	.db 0x00
      008019 00                    3993 	.db 0x00
      00801A 00                    3994 	.db 0x00
      00801B 00                    3995 	.db 0x00
      00801C 00                    3996 	.db 0x00
      00801D 00                    3997 	.db 0x00
      00801E 00                    3998 	.db 0x00
      00801F 00                    3999 	.db 0x00
      008020 00                    4000 	.db 0x00
      008021 00                    4001 	.db 0x00
      008022 00                    4002 	.db 0x00
      008023 00                    4003 	.db 0x00
      008024 00                    4004 	.db 0x00
      008025 00                    4005 	.db 0x00
      008026 00                    4006 	.db 0x00
      008027 00                    4007 	.db 0x00
      008028 00                    4008 	.db 0x00
      008029 00                    4009 	.db 0x00
      00802A 00                    4010 	.db 0x00
      00802B 00                    4011 	.db 0x00
      00802C 00                    4012 	.db 0x00
      00802D 00                    4013 	.db 0x00
      00802E 00                    4014 	.db 0x00
      00802F 00                    4015 	.db 0x00
      008030 00                    4016 	.db 0x00
      008031 00                    4017 	.db 0x00
      008032 00                    4018 	.db 0x00
      008033 00                    4019 	.db 0x00
      008034 00                    4020 	.db 0x00
      008035 00                    4021 	.db 0x00
      008036 00                    4022 	.db 0x00
      008037 00                    4023 	.db 0x00
      008038 00                    4024 	.db 0x00
      008039 00                    4025 	.db 0x00
      00803A 00                    4026 	.db 0x00
      00803B 00                    4027 	.db 0x00
      00803C 00                    4028 	.db 0x00
      00803D 00                    4029 	.db 0x00
      00803E 00                    4030 	.db 0x00
      00803F 00                    4031 	.db 0x00
      008040 00                    4032 	.db 0x00
      008041 00                    4033 	.db 0x00
      008042 00                    4034 	.db 0x00
      008043 00                    4035 	.db 0x00
      008044 00                    4036 	.db 0x00
      008045 00                    4037 	.db 0x00
      008046 00                    4038 	.db 0x00
      008047 00                    4039 	.db 0x00
      008048 00                    4040 	.db 0x00
      008049 00                    4041 	.db 0x00
      00804A 00                    4042 	.db 0x00
      00804B 00                    4043 	.db 0x00
      00804C 00                    4044 	.db 0x00
      00804D 00                    4045 	.db 0x00
      00804E 00                    4046 	.db 0x00
      00804F 00                    4047 	.db 0x00
      008050 00                    4048 	.db 0x00
      008051 00                    4049 	.db 0x00
      008052 00                    4050 	.db 0x00
      008053 00                    4051 	.db 0x00
      008054 00                    4052 	.db 0x00
      008055 00                    4053 	.db 0x00
      008056 00                    4054 	.db 0x00
      008057 00                    4055 	.db 0x00
      008058 00                    4056 	.db 0x00
      008059 00                    4057 	.db 0x00
      00805A 00                    4058 	.db 0x00
      00805B 00                    4059 	.db 0x00
      00805C 00                    4060 	.db 0x00
      00805D 00                    4061 	.db 0x00
      00805E 00                    4062 	.db 0x00
      00805F 00                    4063 	.db 0x00
      008060 00                    4064 	.db 0x00
      008061 00                    4065 	.db 0x00
      008062 00                    4066 	.db 0x00
      008063 00                    4067 	.db 0x00
      008064 00                    4068 	.db 0x00
      008065 00                    4069 	.db 0x00
      008066 00                    4070 	.db 0x00
      008067 00                    4071 	.db 0x00
      008068 00                    4072 	.db 0x00
      008069 00                    4073 	.db 0x00
      00806A 00                    4074 	.db 0x00
      00806B 00                    4075 	.db 0x00
      00806C 00                    4076 	.db 0x00
      00806D 00                    4077 	.db 0x00
      00806E 00                    4078 	.db 0x00
      00806F 00                    4079 	.db 0x00
      008070 00                    4080 	.db 0x00
      008071 00                    4081 	.db 0x00
      008072 00                    4082 	.db 0x00
      008073 00                    4083 	.db 0x00
      008074 00                    4084 	.db 0x00
      008075 00                    4085 	.db 0x00
      008076 00                    4086 	.db 0x00
      008077 00                    4087 	.db 0x00
      008078 00                    4088 	.db 0x00
      008079 00                    4089 	.db 0x00
      00807A 00                    4090 	.db 0x00
      00807B 00                    4091 	.db 0x00
      00807C 00                    4092 	.db 0x00
      00807D 00                    4093 	.db 0x00
      00807E 00                    4094 	.db 0x00
      00807F 00                    4095 	.db 0x00
      008080 00                    4096 	.db 0x00
      008081 00                    4097 	.db 0x00
      008082 00                    4098 	.db 0x00
      008083 00                    4099 	.db 0x00
      008084 00                    4100 	.db 0x00
      008085 00                    4101 	.db 0x00
      008086 00                    4102 	.db 0x00
      008087 00                    4103 	.db 0x00
      008088 00                    4104 	.db 0x00
      008089 00                    4105 	.db 0x00
      00808A 00                    4106 	.db 0x00
      00808B 00                    4107 	.db 0x00
      00808C 00                    4108 	.db 0x00
      00808D 00                    4109 	.db 0x00
      00808E 00                    4110 	.db 0x00
      00808F 00                    4111 	.db 0x00
      008090 00                    4112 	.db 0x00
      008091 00                    4113 	.db 0x00
      008092 00                    4114 	.db 0x00
      008093 00                    4115 	.db 0x00
      008094 00                    4116 	.db 0x00
      008095 00                    4117 	.db 0x00
      008096 00                    4118 	.db 0x00
      008097 00                    4119 	.db 0x00
      008098 00                    4120 	.db 0x00
      008099 00                    4121 	.db 0x00
      00809A 00                    4122 	.db 0x00
      00809B 00                    4123 	.db 0x00
      00809C 00                    4124 	.db 0x00
      00809D 00                    4125 	.db 0x00
      00809E 00                    4126 	.db 0x00
      00809F 00                    4127 	.db 0x00
      0080A0 00                    4128 	.db 0x00
      0080A1 00                    4129 	.db 0x00
      0080A2 00                    4130 	.db 0x00
      0080A3 00                    4131 	.db 0x00
      0080A4 00                    4132 	.db 0x00
      0080A5 00                    4133 	.db 0x00
      0080A6 00                    4134 	.db 0x00
      0080A7 00                    4135 	.db 0x00
      0080A8 00                    4136 	.db 0x00
      0080A9 00                    4137 	.db 0x00
      0080AA 00                    4138 	.db 0x00
      0080AB 00                    4139 	.db 0x00
      0080AC 00                    4140 	.db 0x00
      0080AD 00                    4141 	.db 0x00
      0080AE 00                    4142 	.db 0x00
      0080AF 00                    4143 	.db 0x00
      0080B0 00                    4144 	.db 0x00
      0080B1 00                    4145 	.db 0x00
      0080B2 00                    4146 	.db 0x00
      0080B3 00                    4147 	.db 0x00
      0080B4 00                    4148 	.db 0x00
      0080B5 00                    4149 	.db 0x00
      0080B6 00                    4150 	.db 0x00
      0080B7 00                    4151 	.db 0x00
      0080B8 00                    4152 	.db 0x00
      0080B9 00                    4153 	.db 0x00
      0080BA 00                    4154 	.db 0x00
      0080BB 00                    4155 	.db 0x00
      0080BC 00                    4156 	.db 0x00
      0080BD 00                    4157 	.db 0x00
      0080BE 00                    4158 	.db 0x00
      0080BF 00                    4159 	.db 0x00
      0080C0 00                    4160 	.db 0x00
      0080C1 00                    4161 	.db 0x00
      0080C2 00                    4162 	.db 0x00
      0080C3 00                    4163 	.db 0x00
      0080C4 00                    4164 	.db 0x00
      0080C5 00                    4165 	.db 0x00
      0080C6 00                    4166 	.db 0x00
      0080C7 00                    4167 	.db 0x00
      0080C8 00                    4168 	.db 0x00
      0080C9 00                    4169 	.db 0x00
      0080CA 00                    4170 	.db 0x00
      0080CB 00                    4171 	.db 0x00
      0080CC 00                    4172 	.db 0x00
      0080CD 00                    4173 	.db 0x00
      0080CE 00                    4174 	.db 0x00
      0080CF 00                    4175 	.db 0x00
      0080D0 00                    4176 	.db 0x00
      0080D1 00                    4177 	.db 0x00
      0080D2 00                    4178 	.db 0x00
      0080D3 00                    4179 	.db 0x00
      0080D4 00                    4180 	.db 0x00
      0080D5 00                    4181 	.db 0x00
      0080D6 00                    4182 	.db 0x00
      0080D7 00                    4183 	.db 0x00
      0080D8 00                    4184 	.db 0x00
      0080D9 00                    4185 	.db 0x00
      0080DA 00                    4186 	.db 0x00
      0080DB 00                    4187 	.db 0x00
      0080DC 00                    4188 	.db 0x00
      0080DD 00                    4189 	.db 0x00
      0080DE 00                    4190 	.db 0x00
      0080DF 00                    4191 	.db 0x00
      0080E0 00                    4192 	.db 0x00
      0080E1 00                    4193 	.db 0x00
      0080E2 00                    4194 	.db 0x00
      0080E3 00                    4195 	.db 0x00
      0080E4 00                    4196 	.db 0x00
      0080E5 00                    4197 	.db 0x00
      0080E6 00                    4198 	.db 0x00
      0080E7 00                    4199 	.db 0x00
      0080E8 00                    4200 	.db 0x00
      0080E9 00                    4201 	.db 0x00
      0080EA 00                    4202 	.db 0x00
      0080EB 00                    4203 	.db 0x00
      0080EC 00                    4204 	.db 0x00
      0080ED 00                    4205 	.db 0x00
      0080EE 00                    4206 	.db 0x00
      0080EF 00                    4207 	.db 0x00
      0080F0 00                    4208 	.db 0x00
      0080F1 00                    4209 	.db 0x00
      0080F2 00                    4210 	.db 0x00
      0080F3 00                    4211 	.db 0x00
      0080F4 00                    4212 	.db 0x00
      0080F5 00                    4213 	.db 0x00
      0080F6 00                    4214 	.db 0x00
      0080F7 00                    4215 	.db 0x00
      0080F8 00                    4216 	.db 0x00
      0080F9 00                    4217 	.db 0x00
      0080FA 00                    4218 	.db 0x00
      0080FB 00                    4219 	.db 0x00
      0080FC 00                    4220 	.db 0x00
      0080FD 00                    4221 	.db 0x00
      0080FE 00                    4222 	.db 0x00
      0080FF 00                    4223 	.db 0x00
      008100 00                    4224 	.db 0x00
      008101 00                    4225 	.db 0x00
      008102 00                    4226 	.db 0x00
      008103 00                    4227 	.db 0x00
      008104 00                    4228 	.db 0x00
      008105 00                    4229 	.db 0x00
      008106 00                    4230 	.db 0x00
      008107 00                    4231 	.db 0x00
      008108 00                    4232 	.db 0x00
      008109 00                    4233 	.db 0x00
      00810A 00                    4234 	.db 0x00
      00810B 00                    4235 	.db 0x00
      00810C 00                    4236 	.db 0x00
      00810D 00                    4237 	.db 0x00
      00810E 00                    4238 	.db 0x00
      00810F 00                    4239 	.db 0x00
      008110 00                    4240 	.db 0x00
      008111 00                    4241 	.db 0x00
      008112 00                    4242 	.db 0x00
      008113 00                    4243 	.db 0x00
      008114 00                    4244 	.db 0x00
      008115 00                    4245 	.db 0x00
      008116 00                    4246 	.db 0x00
      008117 00                    4247 	.db 0x00
      008118 00                    4248 	.db 0x00
      008119 00                    4249 	.db 0x00
      00811A 00                    4250 	.db 0x00
      00811B 00                    4251 	.db 0x00
      00811C 00                    4252 	.db 0x00
      00811D 00                    4253 	.db 0x00
      00811E 00                    4254 	.db 0x00
      00811F 00                    4255 	.db 0x00
      008120 00                    4256 	.db 0x00
      008121 00                    4257 	.db 0x00
      008122 00                    4258 	.db 0x00
      008123 00                    4259 	.db 0x00
      008124 00                    4260 	.db 0x00
      008125 00                    4261 	.db 0x00
      008126 00                    4262 	.db 0x00
      008127 00                    4263 	.db 0x00
      008128 00                    4264 	.db 0x00
      008129 00                    4265 	.db 0x00
      00812A 00                    4266 	.db 0x00
      00812B 00                    4267 	.db 0x00
      00812C 00                    4268 	.db 0x00
      00812D 00                    4269 	.db 0x00
      00812E 00                    4270 	.db 0x00
      00812F 00                    4271 	.db 0x00
      008130 00                    4272 	.db 0x00
      008131 00                    4273 	.db 0x00
      008132 00                    4274 	.db 0x00
      008133 00                    4275 	.db 0x00
      008134 00                    4276 	.db 0x00
      008135 00                    4277 	.db 0x00
      008136 00                    4278 	.db 0x00
      008137 00                    4279 	.db 0x00
      008138 00                    4280 	.db 0x00
      008139 00                    4281 	.db 0x00
      00813A 00                    4282 	.db 0x00
      00813B 00                    4283 	.db 0x00
      00813C 00                    4284 	.db 0x00
      00813D 00                    4285 	.db 0x00
      00813E 00                    4286 	.db 0x00
      00813F 00                    4287 	.db 0x00
      008140 00                    4288 	.db 0x00
      008141 00                    4289 	.db 0x00
      008142 00                    4290 	.db 0x00
      008143 00                    4291 	.db 0x00
      008144 00                    4292 	.db 0x00
      008145 00                    4293 	.db 0x00
      008146 00                    4294 	.db 0x00
      008147 00                    4295 	.db 0x00
      008148 00                    4296 	.db 0x00
      008149 00                    4297 	.db 0x00
      00814A 00                    4298 	.db 0x00
      00814B 00                    4299 	.db 0x00
      00814C 00                    4300 	.db 0x00
      00814D 00                    4301 	.db 0x00
      00814E 00                    4302 	.db 0x00
      00814F 00                    4303 	.db 0x00
      008150 00                    4304 	.db 0x00
      008151 00                    4305 	.db 0x00
      008152 00                    4306 	.db 0x00
      008153 00                    4307 	.db 0x00
      008154 00                    4308 	.db 0x00
      008155 00                    4309 	.db 0x00
      008156 00                    4310 	.db 0x00
      008157 00                    4311 	.db 0x00
      008158 00                    4312 	.db 0x00
      008159 00                    4313 	.db 0x00
      00815A 00                    4314 	.db 0x00
      00815B 00                    4315 	.db 0x00
      00815C 00                    4316 	.db 0x00
      00815D 00                    4317 	.db 0x00
      00815E 00                    4318 	.db 0x00
      00815F 00                    4319 	.db 0x00
      008160 00                    4320 	.db 0x00
      008161 00                    4321 	.db 0x00
      008162 00                    4322 	.db 0x00
      008163 00                    4323 	.db 0x00
      008164 00                    4324 	.db 0x00
      008165 00                    4325 	.db 0x00
      008166 00                    4326 	.db 0x00
      008167 00                    4327 	.db 0x00
      008168 00                    4328 	.db 0x00
      008169 00                    4329 	.db 0x00
      00816A 00                    4330 	.db 0x00
      00816B 00                    4331 	.db 0x00
      00816C 00                    4332 	.db 0x00
      00816D 00                    4333 	.db 0x00
      00816E 00                    4334 	.db 0x00
      00816F 00                    4335 	.db 0x00
      008170 00                    4336 	.db 0x00
      008171 00                    4337 	.db 0x00
      008172 00                    4338 	.db 0x00
      008173 00                    4339 	.db 0x00
      008174 00                    4340 	.db 0x00
      008175 00                    4341 	.db 0x00
      008176 00                    4342 	.db 0x00
      008177 00                    4343 	.db 0x00
      008178 00                    4344 	.db 0x00
      008179 00                    4345 	.db 0x00
      00817A 00                    4346 	.db 0x00
      00817B 00                    4347 	.db 0x00
      00817C 00                    4348 	.db 0x00
      00817D 00                    4349 	.db 0x00
      00817E 00                    4350 	.db 0x00
      00817F 00                    4351 	.db 0x00
      008180 00                    4352 	.db 0x00
      008181 00                    4353 	.db 0x00
      008182 00                    4354 	.db 0x00
      008183 00                    4355 	.db 0x00
      008184 00                    4356 	.db 0x00
      008185 00                    4357 	.db 0x00
      008186 00                    4358 	.db 0x00
      008187 00                    4359 	.db 0x00
      008188 00                    4360 	.db 0x00
      008189 00                    4361 	.db 0x00
      00818A 00                    4362 	.db 0x00
      00818B 00                    4363 	.db 0x00
      00818C 00                    4364 	.db 0x00
      00818D 00                    4365 	.db 0x00
      00818E 00                    4366 	.db 0x00
      00818F 00                    4367 	.db 0x00
      008190 00                    4368 	.db 0x00
      008191 00                    4369 	.db 0x00
      008192 00                    4370 	.db 0x00
      008193 00                    4371 	.db 0x00
      008194 00                    4372 	.db 0x00
      008195 00                    4373 	.db 0x00
      008196 00                    4374 	.db 0x00
      008197 00                    4375 	.db 0x00
      008198 00                    4376 	.db 0x00
      008199 00                    4377 	.db 0x00
      00819A 00                    4378 	.db 0x00
      00819B 00                    4379 	.db 0x00
      00819C 00                    4380 	.db 0x00
      00819D 00                    4381 	.db 0x00
      00819E 00                    4382 	.db 0x00
      00819F 00                    4383 	.db 0x00
      0081A0 00                    4384 	.db 0x00
      0081A1 00                    4385 	.db 0x00
      0081A2 00                    4386 	.db 0x00
      0081A3 00                    4387 	.db 0x00
      0081A4 00                    4388 	.db 0x00
      0081A5 00                    4389 	.db 0x00
      0081A6 00                    4390 	.db 0x00
      0081A7 00                    4391 	.db 0x00
      0081A8                       4392 __xinit__tx_buf:
      0081A8 00                    4393 	.db #0x00	; 0
      0081A9 00                    4394 	.db 0x00
      0081AA 00                    4395 	.db 0x00
      0081AB 00                    4396 	.db 0x00
      0081AC 00                    4397 	.db 0x00
      0081AD 00                    4398 	.db 0x00
      0081AE 00                    4399 	.db 0x00
      0081AF 00                    4400 	.db 0x00
      0081B0 00                    4401 	.db 0x00
      0081B1 00                    4402 	.db 0x00
      0081B2 00                    4403 	.db 0x00
      0081B3 00                    4404 	.db 0x00
      0081B4 00                    4405 	.db 0x00
      0081B5 00                    4406 	.db 0x00
      0081B6 00                    4407 	.db 0x00
      0081B7 00                    4408 	.db 0x00
      0081B8 00                    4409 	.db 0x00
      0081B9 00                    4410 	.db 0x00
      0081BA 00                    4411 	.db 0x00
      0081BB 00                    4412 	.db 0x00
      0081BC 00                    4413 	.db 0x00
      0081BD 00                    4414 	.db 0x00
      0081BE 00                    4415 	.db 0x00
      0081BF 00                    4416 	.db 0x00
      0081C0 00                    4417 	.db 0x00
      0081C1 00                    4418 	.db 0x00
      0081C2 00                    4419 	.db 0x00
      0081C3 00                    4420 	.db 0x00
      0081C4 00                    4421 	.db 0x00
      0081C5 00                    4422 	.db 0x00
      0081C6 00                    4423 	.db 0x00
      0081C7 00                    4424 	.db 0x00
      0081C8 00                    4425 	.db 0x00
      0081C9 00                    4426 	.db 0x00
      0081CA 00                    4427 	.db 0x00
      0081CB 00                    4428 	.db 0x00
      0081CC 00                    4429 	.db 0x00
      0081CD 00                    4430 	.db 0x00
      0081CE 00                    4431 	.db 0x00
      0081CF 00                    4432 	.db 0x00
      0081D0 00                    4433 	.db 0x00
      0081D1 00                    4434 	.db 0x00
      0081D2 00                    4435 	.db 0x00
      0081D3 00                    4436 	.db 0x00
      0081D4 00                    4437 	.db 0x00
      0081D5 00                    4438 	.db 0x00
      0081D6 00                    4439 	.db 0x00
      0081D7 00                    4440 	.db 0x00
      0081D8 00                    4441 	.db 0x00
      0081D9 00                    4442 	.db 0x00
      0081DA 00                    4443 	.db 0x00
      0081DB 00                    4444 	.db 0x00
      0081DC 00                    4445 	.db 0x00
      0081DD 00                    4446 	.db 0x00
      0081DE 00                    4447 	.db 0x00
      0081DF 00                    4448 	.db 0x00
      0081E0 00                    4449 	.db 0x00
      0081E1 00                    4450 	.db 0x00
      0081E2 00                    4451 	.db 0x00
      0081E3 00                    4452 	.db 0x00
      0081E4 00                    4453 	.db 0x00
      0081E5 00                    4454 	.db 0x00
      0081E6 00                    4455 	.db 0x00
      0081E7 00                    4456 	.db 0x00
      0081E8 00                    4457 	.db 0x00
      0081E9 00                    4458 	.db 0x00
      0081EA 00                    4459 	.db 0x00
      0081EB 00                    4460 	.db 0x00
      0081EC 00                    4461 	.db 0x00
      0081ED 00                    4462 	.db 0x00
      0081EE 00                    4463 	.db 0x00
      0081EF 00                    4464 	.db 0x00
      0081F0 00                    4465 	.db 0x00
      0081F1 00                    4466 	.db 0x00
      0081F2 00                    4467 	.db 0x00
      0081F3 00                    4468 	.db 0x00
      0081F4 00                    4469 	.db 0x00
      0081F5 00                    4470 	.db 0x00
      0081F6 00                    4471 	.db 0x00
      0081F7 00                    4472 	.db 0x00
      0081F8 00                    4473 	.db 0x00
      0081F9 00                    4474 	.db 0x00
      0081FA 00                    4475 	.db 0x00
      0081FB 00                    4476 	.db 0x00
      0081FC 00                    4477 	.db 0x00
      0081FD 00                    4478 	.db 0x00
      0081FE 00                    4479 	.db 0x00
      0081FF 00                    4480 	.db 0x00
      008200 00                    4481 	.db 0x00
      008201 00                    4482 	.db 0x00
      008202 00                    4483 	.db 0x00
      008203 00                    4484 	.db 0x00
      008204 00                    4485 	.db 0x00
      008205 00                    4486 	.db 0x00
      008206 00                    4487 	.db 0x00
      008207 00                    4488 	.db 0x00
      008208 00                    4489 	.db 0x00
      008209 00                    4490 	.db 0x00
      00820A 00                    4491 	.db 0x00
      00820B 00                    4492 	.db 0x00
      00820C 00                    4493 	.db 0x00
      00820D 00                    4494 	.db 0x00
      00820E 00                    4495 	.db 0x00
      00820F 00                    4496 	.db 0x00
      008210 00                    4497 	.db 0x00
      008211 00                    4498 	.db 0x00
      008212 00                    4499 	.db 0x00
      008213 00                    4500 	.db 0x00
      008214 00                    4501 	.db 0x00
      008215 00                    4502 	.db 0x00
      008216 00                    4503 	.db 0x00
      008217 00                    4504 	.db 0x00
      008218 00                    4505 	.db 0x00
      008219 00                    4506 	.db 0x00
      00821A 00                    4507 	.db 0x00
      00821B 00                    4508 	.db 0x00
      00821C 00                    4509 	.db 0x00
      00821D 00                    4510 	.db 0x00
      00821E 00                    4511 	.db 0x00
      00821F 00                    4512 	.db 0x00
      008220 00                    4513 	.db 0x00
      008221 00                    4514 	.db 0x00
      008222 00                    4515 	.db 0x00
      008223 00                    4516 	.db 0x00
      008224 00                    4517 	.db 0x00
      008225 00                    4518 	.db 0x00
      008226 00                    4519 	.db 0x00
      008227 00                    4520 	.db 0x00
      008228 00                    4521 	.db 0x00
      008229 00                    4522 	.db 0x00
      00822A 00                    4523 	.db 0x00
      00822B 00                    4524 	.db 0x00
      00822C 00                    4525 	.db 0x00
      00822D 00                    4526 	.db 0x00
      00822E 00                    4527 	.db 0x00
      00822F 00                    4528 	.db 0x00
      008230 00                    4529 	.db 0x00
      008231 00                    4530 	.db 0x00
      008232 00                    4531 	.db 0x00
      008233 00                    4532 	.db 0x00
      008234 00                    4533 	.db 0x00
      008235 00                    4534 	.db 0x00
      008236 00                    4535 	.db 0x00
      008237 00                    4536 	.db 0x00
      008238 00                    4537 	.db 0x00
      008239 00                    4538 	.db 0x00
      00823A 00                    4539 	.db 0x00
      00823B 00                    4540 	.db 0x00
      00823C 00                    4541 	.db 0x00
      00823D 00                    4542 	.db 0x00
      00823E 00                    4543 	.db 0x00
      00823F 00                    4544 	.db 0x00
      008240 00                    4545 	.db 0x00
      008241 00                    4546 	.db 0x00
      008242 00                    4547 	.db 0x00
      008243 00                    4548 	.db 0x00
      008244 00                    4549 	.db 0x00
      008245 00                    4550 	.db 0x00
      008246 00                    4551 	.db 0x00
      008247 00                    4552 	.db 0x00
      008248 00                    4553 	.db 0x00
      008249 00                    4554 	.db 0x00
      00824A 00                    4555 	.db 0x00
      00824B 00                    4556 	.db 0x00
      00824C 00                    4557 	.db 0x00
      00824D 00                    4558 	.db 0x00
      00824E 00                    4559 	.db 0x00
      00824F 00                    4560 	.db 0x00
      008250 00                    4561 	.db 0x00
      008251 00                    4562 	.db 0x00
      008252 00                    4563 	.db 0x00
      008253 00                    4564 	.db 0x00
      008254 00                    4565 	.db 0x00
      008255 00                    4566 	.db 0x00
      008256 00                    4567 	.db 0x00
      008257 00                    4568 	.db 0x00
      008258 00                    4569 	.db 0x00
      008259 00                    4570 	.db 0x00
      00825A 00                    4571 	.db 0x00
      00825B 00                    4572 	.db 0x00
      00825C 00                    4573 	.db 0x00
      00825D 00                    4574 	.db 0x00
      00825E 00                    4575 	.db 0x00
      00825F 00                    4576 	.db 0x00
      008260 00                    4577 	.db 0x00
      008261 00                    4578 	.db 0x00
      008262 00                    4579 	.db 0x00
      008263 00                    4580 	.db 0x00
      008264 00                    4581 	.db 0x00
      008265 00                    4582 	.db 0x00
      008266 00                    4583 	.db 0x00
      008267 00                    4584 	.db 0x00
      008268 00                    4585 	.db 0x00
      008269 00                    4586 	.db 0x00
      00826A 00                    4587 	.db 0x00
      00826B 00                    4588 	.db 0x00
      00826C 00                    4589 	.db 0x00
      00826D 00                    4590 	.db 0x00
      00826E 00                    4591 	.db 0x00
      00826F 00                    4592 	.db 0x00
      008270 00                    4593 	.db 0x00
      008271 00                    4594 	.db 0x00
      008272 00                    4595 	.db 0x00
      008273 00                    4596 	.db 0x00
      008274 00                    4597 	.db 0x00
      008275 00                    4598 	.db 0x00
      008276 00                    4599 	.db 0x00
      008277 00                    4600 	.db 0x00
      008278 00                    4601 	.db 0x00
      008279 00                    4602 	.db 0x00
      00827A 00                    4603 	.db 0x00
      00827B 00                    4604 	.db 0x00
      00827C 00                    4605 	.db 0x00
      00827D 00                    4606 	.db 0x00
      00827E 00                    4607 	.db 0x00
      00827F 00                    4608 	.db 0x00
      008280 00                    4609 	.db 0x00
      008281 00                    4610 	.db 0x00
      008282 00                    4611 	.db 0x00
      008283 00                    4612 	.db 0x00
      008284 00                    4613 	.db 0x00
      008285 00                    4614 	.db 0x00
      008286 00                    4615 	.db 0x00
      008287 00                    4616 	.db 0x00
      008288 00                    4617 	.db 0x00
      008289 00                    4618 	.db 0x00
      00828A 00                    4619 	.db 0x00
      00828B 00                    4620 	.db 0x00
      00828C 00                    4621 	.db 0x00
      00828D 00                    4622 	.db 0x00
      00828E 00                    4623 	.db 0x00
      00828F 00                    4624 	.db 0x00
      008290 00                    4625 	.db 0x00
      008291 00                    4626 	.db 0x00
      008292 00                    4627 	.db 0x00
      008293 00                    4628 	.db 0x00
      008294 00                    4629 	.db 0x00
      008295 00                    4630 	.db 0x00
      008296 00                    4631 	.db 0x00
      008297 00                    4632 	.db 0x00
      008298 00                    4633 	.db 0x00
      008299 00                    4634 	.db 0x00
      00829A 00                    4635 	.db 0x00
      00829B 00                    4636 	.db 0x00
      00829C 00                    4637 	.db 0x00
      00829D 00                    4638 	.db 0x00
      00829E 00                    4639 	.db 0x00
      00829F 00                    4640 	.db 0x00
      0082A0 00                    4641 	.db 0x00
      0082A1 00                    4642 	.db 0x00
      0082A2 00                    4643 	.db 0x00
      0082A3 00                    4644 	.db 0x00
      0082A4 00                    4645 	.db 0x00
      0082A5 00                    4646 	.db 0x00
      0082A6 00                    4647 	.db 0x00
      0082A7 00                    4648 	.db 0x00
      0082A8 00                    4649 	.db 0x00
      0082A9 00                    4650 	.db 0x00
      0082AA 00                    4651 	.db 0x00
      0082AB 00                    4652 	.db 0x00
      0082AC 00                    4653 	.db 0x00
      0082AD 00                    4654 	.db 0x00
      0082AE 00                    4655 	.db 0x00
      0082AF 00                    4656 	.db 0x00
      0082B0 00                    4657 	.db 0x00
      0082B1 00                    4658 	.db 0x00
      0082B2 00                    4659 	.db 0x00
      0082B3 00                    4660 	.db 0x00
      0082B4 00                    4661 	.db 0x00
      0082B5 00                    4662 	.db 0x00
      0082B6 00                    4663 	.db 0x00
      0082B7 00                    4664 	.db 0x00
      0082B8 00                    4665 	.db 0x00
      0082B9 00                    4666 	.db 0x00
      0082BA 00                    4667 	.db 0x00
      0082BB 00                    4668 	.db 0x00
      0082BC 00                    4669 	.db 0x00
      0082BD 00                    4670 	.db 0x00
      0082BE 00                    4671 	.db 0x00
      0082BF 00                    4672 	.db 0x00
      0082C0 00                    4673 	.db 0x00
      0082C1 00                    4674 	.db 0x00
      0082C2 00                    4675 	.db 0x00
      0082C3 00                    4676 	.db 0x00
      0082C4 00                    4677 	.db 0x00
      0082C5 00                    4678 	.db 0x00
      0082C6 00                    4679 	.db 0x00
      0082C7 00                    4680 	.db 0x00
      0082C8 00                    4681 	.db 0x00
      0082C9 00                    4682 	.db 0x00
      0082CA 00                    4683 	.db 0x00
      0082CB 00                    4684 	.db 0x00
      0082CC 00                    4685 	.db 0x00
      0082CD 00                    4686 	.db 0x00
      0082CE 00                    4687 	.db 0x00
      0082CF 00                    4688 	.db 0x00
      0082D0 00                    4689 	.db 0x00
      0082D1 00                    4690 	.db 0x00
      0082D2 00                    4691 	.db 0x00
      0082D3 00                    4692 	.db 0x00
      0082D4 00                    4693 	.db 0x00
      0082D5 00                    4694 	.db 0x00
      0082D6 00                    4695 	.db 0x00
      0082D7 00                    4696 	.db 0x00
      0082D8 00                    4697 	.db 0x00
      0082D9 00                    4698 	.db 0x00
      0082DA 00                    4699 	.db 0x00
      0082DB 00                    4700 	.db 0x00
      0082DC 00                    4701 	.db 0x00
      0082DD 00                    4702 	.db 0x00
      0082DE 00                    4703 	.db 0x00
      0082DF 00                    4704 	.db 0x00
      0082E0 00                    4705 	.db 0x00
      0082E1 00                    4706 	.db 0x00
      0082E2 00                    4707 	.db 0x00
      0082E3 00                    4708 	.db 0x00
      0082E4 00                    4709 	.db 0x00
      0082E5 00                    4710 	.db 0x00
      0082E6 00                    4711 	.db 0x00
      0082E7 00                    4712 	.db 0x00
      0082E8 00                    4713 	.db 0x00
      0082E9 00                    4714 	.db 0x00
      0082EA 00                    4715 	.db 0x00
      0082EB 00                    4716 	.db 0x00
      0082EC 00                    4717 	.db 0x00
      0082ED 00                    4718 	.db 0x00
      0082EE 00                    4719 	.db 0x00
      0082EF 00                    4720 	.db 0x00
      0082F0 00                    4721 	.db 0x00
      0082F1 00                    4722 	.db 0x00
      0082F2 00                    4723 	.db 0x00
      0082F3 00                    4724 	.db 0x00
      0082F4 00                    4725 	.db 0x00
      0082F5 00                    4726 	.db 0x00
      0082F6 00                    4727 	.db 0x00
      0082F7 00                    4728 	.db 0x00
      0082F8 00                    4729 	.db 0x00
      0082F9 00                    4730 	.db 0x00
      0082FA 00                    4731 	.db 0x00
      0082FB 00                    4732 	.db 0x00
      0082FC 00                    4733 	.db 0x00
      0082FD 00                    4734 	.db 0x00
      0082FE 00                    4735 	.db 0x00
      0082FF 00                    4736 	.db 0x00
      008300 00                    4737 	.db 0x00
      008301 00                    4738 	.db 0x00
      008302 00                    4739 	.db 0x00
      008303 00                    4740 	.db 0x00
      008304 00                    4741 	.db 0x00
      008305 00                    4742 	.db 0x00
      008306 00                    4743 	.db 0x00
      008307 00                    4744 	.db 0x00
      008308 00                    4745 	.db 0x00
      008309 00                    4746 	.db 0x00
      00830A 00                    4747 	.db 0x00
      00830B 00                    4748 	.db 0x00
      00830C 00                    4749 	.db 0x00
      00830D 00                    4750 	.db 0x00
      00830E 00                    4751 	.db 0x00
      00830F 00                    4752 	.db 0x00
      008310 00                    4753 	.db 0x00
      008311 00                    4754 	.db 0x00
      008312 00                    4755 	.db 0x00
      008313 00                    4756 	.db 0x00
      008314 00                    4757 	.db 0x00
      008315 00                    4758 	.db 0x00
      008316 00                    4759 	.db 0x00
      008317 00                    4760 	.db 0x00
      008318 00                    4761 	.db 0x00
      008319 00                    4762 	.db 0x00
      00831A 00                    4763 	.db 0x00
      00831B 00                    4764 	.db 0x00
      00831C 00                    4765 	.db 0x00
      00831D 00                    4766 	.db 0x00
      00831E 00                    4767 	.db 0x00
      00831F 00                    4768 	.db 0x00
      008320 00                    4769 	.db 0x00
      008321 00                    4770 	.db 0x00
      008322 00                    4771 	.db 0x00
      008323 00                    4772 	.db 0x00
      008324 00                    4773 	.db 0x00
      008325 00                    4774 	.db 0x00
      008326 00                    4775 	.db 0x00
      008327 00                    4776 	.db 0x00
      008328 00                    4777 	.db 0x00
      008329 00                    4778 	.db 0x00
      00832A 00                    4779 	.db 0x00
      00832B 00                    4780 	.db 0x00
      00832C 00                    4781 	.db 0x00
      00832D 00                    4782 	.db 0x00
      00832E 00                    4783 	.db 0x00
      00832F 00                    4784 	.db 0x00
      008330 00                    4785 	.db 0x00
      008331 00                    4786 	.db 0x00
      008332 00                    4787 	.db 0x00
      008333 00                    4788 	.db 0x00
      008334 00                    4789 	.db 0x00
      008335 00                    4790 	.db 0x00
      008336 00                    4791 	.db 0x00
      008337 00                    4792 	.db 0x00
      008338 00                    4793 	.db 0x00
      008339 00                    4794 	.db 0x00
      00833A 00                    4795 	.db 0x00
      00833B 00                    4796 	.db 0x00
      00833C 00                    4797 	.db 0x00
      00833D 00                    4798 	.db 0x00
      00833E 00                    4799 	.db 0x00
      00833F 00                    4800 	.db 0x00
      008340 00                    4801 	.db 0x00
      008341 00                    4802 	.db 0x00
      008342 00                    4803 	.db 0x00
      008343 00                    4804 	.db 0x00
      008344 00                    4805 	.db 0x00
      008345 00                    4806 	.db 0x00
      008346 00                    4807 	.db 0x00
      008347 00                    4808 	.db 0x00
      008348 00                    4809 	.db 0x00
      008349 00                    4810 	.db 0x00
      00834A 00                    4811 	.db 0x00
      00834B 00                    4812 	.db 0x00
      00834C 00                    4813 	.db 0x00
      00834D 00                    4814 	.db 0x00
      00834E 00                    4815 	.db 0x00
      00834F 00                    4816 	.db 0x00
      008350 00                    4817 	.db 0x00
      008351 00                    4818 	.db 0x00
      008352 00                    4819 	.db 0x00
      008353 00                    4820 	.db 0x00
      008354 00                    4821 	.db 0x00
      008355 00                    4822 	.db 0x00
      008356 00                    4823 	.db 0x00
      008357 00                    4824 	.db 0x00
      008358 00                    4825 	.db 0x00
      008359 00                    4826 	.db 0x00
      00835A 00                    4827 	.db 0x00
      00835B 00                    4828 	.db 0x00
      00835C 00                    4829 	.db 0x00
      00835D 00                    4830 	.db 0x00
      00835E 00                    4831 	.db 0x00
      00835F 00                    4832 	.db 0x00
      008360 00                    4833 	.db 0x00
      008361 00                    4834 	.db 0x00
      008362 00                    4835 	.db 0x00
      008363 00                    4836 	.db 0x00
      008364 00                    4837 	.db 0x00
      008365 00                    4838 	.db 0x00
      008366 00                    4839 	.db 0x00
      008367 00                    4840 	.db 0x00
      008368 00                    4841 	.db 0x00
      008369 00                    4842 	.db 0x00
      00836A 00                    4843 	.db 0x00
      00836B 00                    4844 	.db 0x00
      00836C 00                    4845 	.db 0x00
      00836D 00                    4846 	.db 0x00
      00836E 00                    4847 	.db 0x00
      00836F 00                    4848 	.db 0x00
      008370 00                    4849 	.db 0x00
      008371 00                    4850 	.db 0x00
      008372 00                    4851 	.db 0x00
      008373 00                    4852 	.db 0x00
      008374 00                    4853 	.db 0x00
      008375 00                    4854 	.db 0x00
      008376 00                    4855 	.db 0x00
      008377 00                    4856 	.db 0x00
      008378 00                    4857 	.db 0x00
      008379 00                    4858 	.db 0x00
      00837A 00                    4859 	.db 0x00
      00837B 00                    4860 	.db 0x00
      00837C 00                    4861 	.db 0x00
      00837D 00                    4862 	.db 0x00
      00837E 00                    4863 	.db 0x00
      00837F 00                    4864 	.db 0x00
      008380 00                    4865 	.db 0x00
      008381 00                    4866 	.db 0x00
      008382 00                    4867 	.db 0x00
      008383 00                    4868 	.db 0x00
      008384 00                    4869 	.db 0x00
      008385 00                    4870 	.db 0x00
      008386 00                    4871 	.db 0x00
      008387 00                    4872 	.db 0x00
      008388 00                    4873 	.db 0x00
      008389 00                    4874 	.db 0x00
      00838A 00                    4875 	.db 0x00
      00838B 00                    4876 	.db 0x00
      00838C 00                    4877 	.db 0x00
      00838D 00                    4878 	.db 0x00
      00838E 00                    4879 	.db 0x00
      00838F 00                    4880 	.db 0x00
      008390 00                    4881 	.db 0x00
      008391 00                    4882 	.db 0x00
      008392 00                    4883 	.db 0x00
      008393 00                    4884 	.db 0x00
      008394 00                    4885 	.db 0x00
      008395 00                    4886 	.db 0x00
      008396 00                    4887 	.db 0x00
      008397 00                    4888 	.db 0x00
      008398 00                    4889 	.db 0x00
      008399 00                    4890 	.db 0x00
      00839A 00                    4891 	.db 0x00
      00839B 00                    4892 	.db 0x00
      00839C 00                    4893 	.db 0x00
      00839D 00                    4894 	.db 0x00
      00839E 00                    4895 	.db 0x00
      00839F 00                    4896 	.db 0x00
      0083A0 00                    4897 	.db 0x00
      0083A1 00                    4898 	.db 0x00
      0083A2 00                    4899 	.db 0x00
      0083A3 00                    4900 	.db 0x00
      0083A4 00                    4901 	.db 0x00
      0083A5 00                    4902 	.db 0x00
      0083A6 00                    4903 	.db 0x00
      0083A7 00                    4904 	.db 0x00
      0083A8 00                    4905 	.db 0x00
      0083A9 00                    4906 	.db 0x00
      0083AA 00                    4907 	.db 0x00
      0083AB 00                    4908 	.db 0x00
      0083AC 00                    4909 	.db 0x00
      0083AD 00                    4910 	.db 0x00
      0083AE 00                    4911 	.db 0x00
      0083AF 00                    4912 	.db 0x00
      0083B0 00                    4913 	.db 0x00
      0083B1 00                    4914 	.db 0x00
      0083B2 00                    4915 	.db 0x00
      0083B3 00                    4916 	.db 0x00
      0083B4 00                    4917 	.db 0x00
      0083B5 00                    4918 	.db 0x00
      0083B6 00                    4919 	.db 0x00
      0083B7 00                    4920 	.db 0x00
      0083B8 00                    4921 	.db 0x00
      0083B9 00                    4922 	.db 0x00
      0083BA 00                    4923 	.db 0x00
      0083BB 00                    4924 	.db 0x00
      0083BC 00                    4925 	.db 0x00
      0083BD 00                    4926 	.db 0x00
      0083BE 00                    4927 	.db 0x00
      0083BF 00                    4928 	.db 0x00
      0083C0 00                    4929 	.db 0x00
      0083C1 00                    4930 	.db 0x00
      0083C2 00                    4931 	.db 0x00
      0083C3 00                    4932 	.db 0x00
      0083C4 00                    4933 	.db 0x00
      0083C5 00                    4934 	.db 0x00
      0083C6 00                    4935 	.db 0x00
      0083C7 00                    4936 	.db 0x00
      0083C8 00                    4937 	.db 0x00
      0083C9 00                    4938 	.db 0x00
      0083CA 00                    4939 	.db 0x00
      0083CB 00                    4940 	.db 0x00
      0083CC 00                    4941 	.db 0x00
      0083CD 00                    4942 	.db 0x00
      0083CE 00                    4943 	.db 0x00
      0083CF 00                    4944 	.db 0x00
      0083D0 00                    4945 	.db 0x00
      0083D1 00                    4946 	.db 0x00
      0083D2 00                    4947 	.db 0x00
      0083D3 00                    4948 	.db 0x00
      0083D4 00                    4949 	.db 0x00
      0083D5 00                    4950 	.db 0x00
      0083D6 00                    4951 	.db 0x00
      0083D7 00                    4952 	.db 0x00
      0083D8 00                    4953 	.db 0x00
      0083D9 00                    4954 	.db 0x00
      0083DA 00                    4955 	.db 0x00
      0083DB 00                    4956 	.db 0x00
      0083DC 00                    4957 	.db 0x00
      0083DD 00                    4958 	.db 0x00
      0083DE 00                    4959 	.db 0x00
      0083DF 00                    4960 	.db 0x00
      0083E0 00                    4961 	.db 0x00
      0083E1 00                    4962 	.db 0x00
      0083E2 00                    4963 	.db 0x00
      0083E3 00                    4964 	.db 0x00
      0083E4 00                    4965 	.db 0x00
      0083E5 00                    4966 	.db 0x00
      0083E6 00                    4967 	.db 0x00
      0083E7 00                    4968 	.db 0x00
      0083E8 00                    4969 	.db 0x00
      0083E9 00                    4970 	.db 0x00
      0083EA 00                    4971 	.db 0x00
      0083EB 00                    4972 	.db 0x00
      0083EC 00                    4973 	.db 0x00
      0083ED 00                    4974 	.db 0x00
      0083EE 00                    4975 	.db 0x00
      0083EF 00                    4976 	.db 0x00
      0083F0 00                    4977 	.db 0x00
      0083F1 00                    4978 	.db 0x00
      0083F2 00                    4979 	.db 0x00
      0083F3 00                    4980 	.db 0x00
      0083F4 00                    4981 	.db 0x00
      0083F5 00                    4982 	.db 0x00
      0083F6 00                    4983 	.db 0x00
      0083F7 00                    4984 	.db 0x00
      0083F8 00                    4985 	.db 0x00
      0083F9 00                    4986 	.db 0x00
      0083FA 00                    4987 	.db 0x00
      0083FB 00                    4988 	.db 0x00
      0083FC 00                    4989 	.db 0x00
      0083FD 00                    4990 	.db 0x00
      0083FE 00                    4991 	.db 0x00
      0083FF 00                    4992 	.db 0x00
      008400 00                    4993 	.db 0x00
      008401 00                    4994 	.db 0x00
      008402 00                    4995 	.db 0x00
      008403 00                    4996 	.db 0x00
      008404 00                    4997 	.db 0x00
      008405 00                    4998 	.db 0x00
      008406 00                    4999 	.db 0x00
      008407 00                    5000 	.db 0x00
      008408 00                    5001 	.db 0x00
      008409 00                    5002 	.db 0x00
      00840A 00                    5003 	.db 0x00
      00840B 00                    5004 	.db 0x00
      00840C 00                    5005 	.db 0x00
      00840D 00                    5006 	.db 0x00
      00840E 00                    5007 	.db 0x00
      00840F 00                    5008 	.db 0x00
      008410 00                    5009 	.db 0x00
      008411 00                    5010 	.db 0x00
      008412 00                    5011 	.db 0x00
      008413 00                    5012 	.db 0x00
      008414 00                    5013 	.db 0x00
      008415 00                    5014 	.db 0x00
      008416 00                    5015 	.db 0x00
      008417 00                    5016 	.db 0x00
      008418 00                    5017 	.db 0x00
      008419 00                    5018 	.db 0x00
      00841A 00                    5019 	.db 0x00
      00841B 00                    5020 	.db 0x00
      00841C 00                    5021 	.db 0x00
      00841D 00                    5022 	.db 0x00
      00841E 00                    5023 	.db 0x00
      00841F 00                    5024 	.db 0x00
      008420 00                    5025 	.db 0x00
      008421 00                    5026 	.db 0x00
      008422 00                    5027 	.db 0x00
      008423 00                    5028 	.db 0x00
      008424 00                    5029 	.db 0x00
      008425 00                    5030 	.db 0x00
      008426 00                    5031 	.db 0x00
      008427 00                    5032 	.db 0x00
      008428 00                    5033 	.db 0x00
      008429 00                    5034 	.db 0x00
      00842A 00                    5035 	.db 0x00
      00842B 00                    5036 	.db 0x00
      00842C 00                    5037 	.db 0x00
      00842D 00                    5038 	.db 0x00
      00842E 00                    5039 	.db 0x00
      00842F 00                    5040 	.db 0x00
      008430 00                    5041 	.db 0x00
      008431 00                    5042 	.db 0x00
      008432 00                    5043 	.db 0x00
      008433 00                    5044 	.db 0x00
      008434 00                    5045 	.db 0x00
      008435 00                    5046 	.db 0x00
      008436 00                    5047 	.db 0x00
      008437 00                    5048 	.db 0x00
      008438 00                    5049 	.db 0x00
      008439 00                    5050 	.db 0x00
      00843A 00                    5051 	.db 0x00
      00843B 00                    5052 	.db 0x00
      00843C 00                    5053 	.db 0x00
      00843D 00                    5054 	.db 0x00
      00843E 00                    5055 	.db 0x00
      00843F 00                    5056 	.db 0x00
      008440 00                    5057 	.db 0x00
      008441 00                    5058 	.db 0x00
      008442 00                    5059 	.db 0x00
      008443 00                    5060 	.db 0x00
      008444 00                    5061 	.db 0x00
      008445 00                    5062 	.db 0x00
      008446 00                    5063 	.db 0x00
      008447 00                    5064 	.db 0x00
      008448 00                    5065 	.db 0x00
      008449 00                    5066 	.db 0x00
      00844A 00                    5067 	.db 0x00
      00844B 00                    5068 	.db 0x00
      00844C 00                    5069 	.db 0x00
      00844D 00                    5070 	.db 0x00
      00844E 00                    5071 	.db 0x00
      00844F 00                    5072 	.db 0x00
      008450 00                    5073 	.db 0x00
      008451 00                    5074 	.db 0x00
      008452 00                    5075 	.db 0x00
      008453 00                    5076 	.db 0x00
      008454 00                    5077 	.db 0x00
      008455 00                    5078 	.db 0x00
      008456 00                    5079 	.db 0x00
      008457 00                    5080 	.db 0x00
      008458 00                    5081 	.db 0x00
      008459 00                    5082 	.db 0x00
      00845A 00                    5083 	.db 0x00
      00845B 00                    5084 	.db 0x00
      00845C 00                    5085 	.db 0x00
      00845D 00                    5086 	.db 0x00
      00845E 00                    5087 	.db 0x00
      00845F 00                    5088 	.db 0x00
      008460 00                    5089 	.db 0x00
      008461 00                    5090 	.db 0x00
      008462 00                    5091 	.db 0x00
      008463 00                    5092 	.db 0x00
      008464 00                    5093 	.db 0x00
      008465 00                    5094 	.db 0x00
      008466 00                    5095 	.db 0x00
      008467 00                    5096 	.db 0x00
      008468 00                    5097 	.db 0x00
      008469 00                    5098 	.db 0x00
      00846A 00                    5099 	.db 0x00
      00846B 00                    5100 	.db 0x00
      00846C 00                    5101 	.db 0x00
      00846D 00                    5102 	.db 0x00
      00846E 00                    5103 	.db 0x00
      00846F 00                    5104 	.db 0x00
      008470 00                    5105 	.db 0x00
      008471 00                    5106 	.db 0x00
      008472 00                    5107 	.db 0x00
      008473 00                    5108 	.db 0x00
      008474 00                    5109 	.db 0x00
      008475 00                    5110 	.db 0x00
      008476 00                    5111 	.db 0x00
      008477 00                    5112 	.db 0x00
      008478 00                    5113 	.db 0x00
      008479 00                    5114 	.db 0x00
      00847A 00                    5115 	.db 0x00
      00847B 00                    5116 	.db 0x00
      00847C 00                    5117 	.db 0x00
      00847D 00                    5118 	.db 0x00
      00847E 00                    5119 	.db 0x00
      00847F 00                    5120 	.db 0x00
      008480 00                    5121 	.db 0x00
      008481 00                    5122 	.db 0x00
      008482 00                    5123 	.db 0x00
      008483 00                    5124 	.db 0x00
      008484 00                    5125 	.db 0x00
      008485 00                    5126 	.db 0x00
      008486 00                    5127 	.db 0x00
      008487 00                    5128 	.db 0x00
      008488 00                    5129 	.db 0x00
      008489 00                    5130 	.db 0x00
      00848A 00                    5131 	.db 0x00
      00848B 00                    5132 	.db 0x00
      00848C 00                    5133 	.db 0x00
      00848D 00                    5134 	.db 0x00
      00848E 00                    5135 	.db 0x00
      00848F 00                    5136 	.db 0x00
      008490 00                    5137 	.db 0x00
      008491 00                    5138 	.db 0x00
      008492 00                    5139 	.db 0x00
      008493 00                    5140 	.db 0x00
      008494 00                    5141 	.db 0x00
      008495 00                    5142 	.db 0x00
      008496 00                    5143 	.db 0x00
      008497 00                    5144 	.db 0x00
      008498 00                    5145 	.db 0x00
      008499 00                    5146 	.db 0x00
      00849A 00                    5147 	.db 0x00
      00849B 00                    5148 	.db 0x00
      00849C 00                    5149 	.db 0x00
      00849D 00                    5150 	.db 0x00
      00849E 00                    5151 	.db 0x00
      00849F 00                    5152 	.db 0x00
      0084A0 00                    5153 	.db 0x00
      0084A1 00                    5154 	.db 0x00
      0084A2 00                    5155 	.db 0x00
      0084A3 00                    5156 	.db 0x00
      0084A4 00                    5157 	.db 0x00
      0084A5 00                    5158 	.db 0x00
      0084A6 00                    5159 	.db 0x00
      0084A7 00                    5160 	.db 0x00
      0084A8 00                    5161 	.db 0x00
      0084A9 00                    5162 	.db 0x00
      0084AA 00                    5163 	.db 0x00
      0084AB 00                    5164 	.db 0x00
      0084AC 00                    5165 	.db 0x00
      0084AD 00                    5166 	.db 0x00
      0084AE 00                    5167 	.db 0x00
      0084AF 00                    5168 	.db 0x00
      0084B0 00                    5169 	.db 0x00
      0084B1 00                    5170 	.db 0x00
      0084B2 00                    5171 	.db 0x00
      0084B3 00                    5172 	.db 0x00
      0084B4 00                    5173 	.db 0x00
      0084B5 00                    5174 	.db 0x00
      0084B6 00                    5175 	.db 0x00
      0084B7 00                    5176 	.db 0x00
      0084B8 00                    5177 	.db 0x00
      0084B9 00                    5178 	.db 0x00
      0084BA 00                    5179 	.db 0x00
      0084BB 00                    5180 	.db 0x00
      0084BC 00                    5181 	.db 0x00
      0084BD 00                    5182 	.db 0x00
      0084BE 00                    5183 	.db 0x00
      0084BF 00                    5184 	.db 0x00
      0084C0 00                    5185 	.db 0x00
      0084C1 00                    5186 	.db 0x00
      0084C2 00                    5187 	.db 0x00
      0084C3 00                    5188 	.db 0x00
      0084C4 00                    5189 	.db 0x00
      0084C5 00                    5190 	.db 0x00
      0084C6 00                    5191 	.db 0x00
      0084C7 00                    5192 	.db 0x00
      0084C8 00                    5193 	.db 0x00
      0084C9 00                    5194 	.db 0x00
      0084CA 00                    5195 	.db 0x00
      0084CB 00                    5196 	.db 0x00
      0084CC 00                    5197 	.db 0x00
      0084CD 00                    5198 	.db 0x00
      0084CE 00                    5199 	.db 0x00
      0084CF 00                    5200 	.db 0x00
      0084D0 00                    5201 	.db 0x00
      0084D1 00                    5202 	.db 0x00
      0084D2 00                    5203 	.db 0x00
      0084D3 00                    5204 	.db 0x00
      0084D4 00                    5205 	.db 0x00
      0084D5 00                    5206 	.db 0x00
      0084D6 00                    5207 	.db 0x00
      0084D7 00                    5208 	.db 0x00
      0084D8 00                    5209 	.db 0x00
      0084D9 00                    5210 	.db 0x00
      0084DA 00                    5211 	.db 0x00
      0084DB 00                    5212 	.db 0x00
      0084DC 00                    5213 	.db 0x00
      0084DD 00                    5214 	.db 0x00
      0084DE 00                    5215 	.db 0x00
      0084DF 00                    5216 	.db 0x00
      0084E0 00                    5217 	.db 0x00
      0084E1 00                    5218 	.db 0x00
      0084E2 00                    5219 	.db 0x00
      0084E3 00                    5220 	.db 0x00
      0084E4 00                    5221 	.db 0x00
      0084E5 00                    5222 	.db 0x00
      0084E6 00                    5223 	.db 0x00
      0084E7 00                    5224 	.db 0x00
      0084E8 00                    5225 	.db 0x00
      0084E9 00                    5226 	.db 0x00
      0084EA 00                    5227 	.db 0x00
      0084EB 00                    5228 	.db 0x00
      0084EC 00                    5229 	.db 0x00
      0084ED 00                    5230 	.db 0x00
      0084EE 00                    5231 	.db 0x00
      0084EF 00                    5232 	.db 0x00
      0084F0 00                    5233 	.db 0x00
      0084F1 00                    5234 	.db 0x00
      0084F2 00                    5235 	.db 0x00
      0084F3 00                    5236 	.db 0x00
      0084F4 00                    5237 	.db 0x00
      0084F5 00                    5238 	.db 0x00
      0084F6 00                    5239 	.db 0x00
      0084F7 00                    5240 	.db 0x00
      0084F8 00                    5241 	.db 0x00
      0084F9 00                    5242 	.db 0x00
      0084FA 00                    5243 	.db 0x00
      0084FB 00                    5244 	.db 0x00
      0084FC 00                    5245 	.db 0x00
      0084FD 00                    5246 	.db 0x00
      0084FE 00                    5247 	.db 0x00
      0084FF 00                    5248 	.db 0x00
      008500 00                    5249 	.db 0x00
      008501 00                    5250 	.db 0x00
      008502 00                    5251 	.db 0x00
      008503 00                    5252 	.db 0x00
      008504 00                    5253 	.db 0x00
      008505 00                    5254 	.db 0x00
      008506 00                    5255 	.db 0x00
      008507 00                    5256 	.db 0x00
      008508 00                    5257 	.db 0x00
      008509 00                    5258 	.db 0x00
      00850A 00                    5259 	.db 0x00
      00850B 00                    5260 	.db 0x00
      00850C 00                    5261 	.db 0x00
      00850D 00                    5262 	.db 0x00
      00850E 00                    5263 	.db 0x00
      00850F 00                    5264 	.db 0x00
      008510 00                    5265 	.db 0x00
      008511 00                    5266 	.db 0x00
      008512 00                    5267 	.db 0x00
      008513 00                    5268 	.db 0x00
      008514 00                    5269 	.db 0x00
      008515 00                    5270 	.db 0x00
      008516 00                    5271 	.db 0x00
      008517 00                    5272 	.db 0x00
      008518 00                    5273 	.db 0x00
      008519 00                    5274 	.db 0x00
      00851A 00                    5275 	.db 0x00
      00851B 00                    5276 	.db 0x00
      00851C 00                    5277 	.db 0x00
      00851D 00                    5278 	.db 0x00
      00851E 00                    5279 	.db 0x00
      00851F 00                    5280 	.db 0x00
      008520 00                    5281 	.db 0x00
      008521 00                    5282 	.db 0x00
      008522 00                    5283 	.db 0x00
      008523 00                    5284 	.db 0x00
      008524 00                    5285 	.db 0x00
      008525 00                    5286 	.db 0x00
      008526 00                    5287 	.db 0x00
      008527 00                    5288 	.db 0x00
      008528 00                    5289 	.db 0x00
      008529 00                    5290 	.db 0x00
      00852A 00                    5291 	.db 0x00
      00852B 00                    5292 	.db 0x00
      00852C 00                    5293 	.db 0x00
      00852D 00                    5294 	.db 0x00
      00852E 00                    5295 	.db 0x00
      00852F 00                    5296 	.db 0x00
      008530 00                    5297 	.db 0x00
      008531 00                    5298 	.db 0x00
      008532 00                    5299 	.db 0x00
      008533 00                    5300 	.db 0x00
      008534 00                    5301 	.db 0x00
      008535 00                    5302 	.db 0x00
      008536 00                    5303 	.db 0x00
      008537 00                    5304 	.db 0x00
      008538 00                    5305 	.db 0x00
      008539 00                    5306 	.db 0x00
      00853A 00                    5307 	.db 0x00
      00853B 00                    5308 	.db 0x00
      00853C 00                    5309 	.db 0x00
      00853D 00                    5310 	.db 0x00
      00853E 00                    5311 	.db 0x00
      00853F 00                    5312 	.db 0x00
      008540 00                    5313 	.db 0x00
      008541 00                    5314 	.db 0x00
      008542 00                    5315 	.db 0x00
      008543 00                    5316 	.db 0x00
      008544 00                    5317 	.db 0x00
      008545 00                    5318 	.db 0x00
      008546 00                    5319 	.db 0x00
      008547 00                    5320 	.db 0x00
      008548 00                    5321 	.db 0x00
      008549 00                    5322 	.db 0x00
      00854A 00                    5323 	.db 0x00
      00854B 00                    5324 	.db 0x00
      00854C 00                    5325 	.db 0x00
      00854D 00                    5326 	.db 0x00
      00854E 00                    5327 	.db 0x00
      00854F 00                    5328 	.db 0x00
      008550 00                    5329 	.db 0x00
      008551 00                    5330 	.db 0x00
      008552 00                    5331 	.db 0x00
      008553 00                    5332 	.db 0x00
      008554 00                    5333 	.db 0x00
      008555 00                    5334 	.db 0x00
      008556 00                    5335 	.db 0x00
      008557 00                    5336 	.db 0x00
      008558 00                    5337 	.db 0x00
      008559 00                    5338 	.db 0x00
      00855A 00                    5339 	.db 0x00
      00855B 00                    5340 	.db 0x00
      00855C 00                    5341 	.db 0x00
      00855D 00                    5342 	.db 0x00
      00855E 00                    5343 	.db 0x00
      00855F 00                    5344 	.db 0x00
      008560 00                    5345 	.db 0x00
      008561 00                    5346 	.db 0x00
      008562 00                    5347 	.db 0x00
      008563 00                    5348 	.db 0x00
      008564 00                    5349 	.db 0x00
      008565 00                    5350 	.db 0x00
      008566 00                    5351 	.db 0x00
      008567 00                    5352 	.db 0x00
      008568 00                    5353 	.db 0x00
      008569 00                    5354 	.db 0x00
      00856A 00                    5355 	.db 0x00
      00856B 00                    5356 	.db 0x00
      00856C 00                    5357 	.db 0x00
      00856D 00                    5358 	.db 0x00
      00856E 00                    5359 	.db 0x00
      00856F 00                    5360 	.db 0x00
      008570 00                    5361 	.db 0x00
      008571 00                    5362 	.db 0x00
      008572 00                    5363 	.db 0x00
      008573 00                    5364 	.db 0x00
      008574 00                    5365 	.db 0x00
      008575 00                    5366 	.db 0x00
      008576 00                    5367 	.db 0x00
      008577 00                    5368 	.db 0x00
      008578 00                    5369 	.db 0x00
      008579 00                    5370 	.db 0x00
      00857A 00                    5371 	.db 0x00
      00857B 00                    5372 	.db 0x00
      00857C 00                    5373 	.db 0x00
      00857D 00                    5374 	.db 0x00
      00857E 00                    5375 	.db 0x00
      00857F 00                    5376 	.db 0x00
      008580 00                    5377 	.db 0x00
      008581 00                    5378 	.db 0x00
      008582 00                    5379 	.db 0x00
      008583 00                    5380 	.db 0x00
      008584 00                    5381 	.db 0x00
      008585 00                    5382 	.db 0x00
      008586 00                    5383 	.db 0x00
      008587 00                    5384 	.db 0x00
      008588 00                    5385 	.db 0x00
      008589 00                    5386 	.db 0x00
      00858A 00                    5387 	.db 0x00
      00858B 00                    5388 	.db 0x00
      00858C 00                    5389 	.db 0x00
      00858D 00                    5390 	.db 0x00
      00858E 00                    5391 	.db 0x00
      00858F 00                    5392 	.db 0x00
      008590 00                    5393 	.db 0x00
      008591 00                    5394 	.db 0x00
      008592 00                    5395 	.db 0x00
      008593 00                    5396 	.db 0x00
      008594 00                    5397 	.db 0x00
      008595 00                    5398 	.db 0x00
      008596 00                    5399 	.db 0x00
      008597 00                    5400 	.db 0x00
      008598 00                    5401 	.db 0x00
      008599 00                    5402 	.db 0x00
      00859A 00                    5403 	.db 0x00
      00859B 00                    5404 	.db 0x00
      00859C 00                    5405 	.db 0x00
      00859D 00                    5406 	.db 0x00
      00859E 00                    5407 	.db 0x00
      00859F 00                    5408 	.db 0x00
      0085A0 00                    5409 	.db 0x00
      0085A1 00                    5410 	.db 0x00
      0085A2 00                    5411 	.db 0x00
      0085A3 00                    5412 	.db 0x00
      0085A4 00                    5413 	.db 0x00
      0085A5 00                    5414 	.db 0x00
      0085A6 00                    5415 	.db 0x00
      0085A7 00                    5416 	.db 0x00
      0085A8                       5417 __xinit__encrypt_buf:
      0085A8 00                    5418 	.db #0x00	; 0
      0085A9 00                    5419 	.db 0x00
      0085AA 00                    5420 	.db 0x00
      0085AB 00                    5421 	.db 0x00
      0085AC 00                    5422 	.db 0x00
      0085AD 00                    5423 	.db 0x00
      0085AE 00                    5424 	.db 0x00
      0085AF 00                    5425 	.db 0x00
      0085B0 00                    5426 	.db 0x00
      0085B1 00                    5427 	.db 0x00
      0085B2 00                    5428 	.db 0x00
      0085B3 00                    5429 	.db 0x00
      0085B4 00                    5430 	.db 0x00
      0085B5 00                    5431 	.db 0x00
      0085B6 00                    5432 	.db 0x00
      0085B7 00                    5433 	.db 0x00
      0085B8 00                    5434 	.db 0x00
      0085B9 00                    5435 	.db 0x00
      0085BA 00                    5436 	.db 0x00
      0085BB 00                    5437 	.db 0x00
      0085BC 00                    5438 	.db 0x00
      0085BD 00                    5439 	.db 0x00
      0085BE 00                    5440 	.db 0x00
      0085BF 00                    5441 	.db 0x00
      0085C0 00                    5442 	.db 0x00
      0085C1 00                    5443 	.db 0x00
      0085C2 00                    5444 	.db 0x00
      0085C3 00                    5445 	.db 0x00
      0085C4 00                    5446 	.db 0x00
      0085C5 00                    5447 	.db 0x00
      0085C6 00                    5448 	.db 0x00
      0085C7 00                    5449 	.db 0x00
      0085C8 00                    5450 	.db 0x00
      0085C9 00                    5451 	.db 0x00
      0085CA 00                    5452 	.db 0x00
      0085CB 00                    5453 	.db 0x00
      0085CC 00                    5454 	.db 0x00
      0085CD 00                    5455 	.db 0x00
      0085CE 00                    5456 	.db 0x00
      0085CF 00                    5457 	.db 0x00
      0085D0 00                    5458 	.db 0x00
      0085D1 00                    5459 	.db 0x00
      0085D2 00                    5460 	.db 0x00
      0085D3 00                    5461 	.db 0x00
      0085D4 00                    5462 	.db 0x00
      0085D5 00                    5463 	.db 0x00
      0085D6 00                    5464 	.db 0x00
      0085D7 00                    5465 	.db 0x00
      0085D8 00                    5466 	.db 0x00
      0085D9 00                    5467 	.db 0x00
      0085DA 00                    5468 	.db 0x00
      0085DB 00                    5469 	.db 0x00
      0085DC 00                    5470 	.db 0x00
      0085DD 00                    5471 	.db 0x00
      0085DE 00                    5472 	.db 0x00
      0085DF 00                    5473 	.db 0x00
      0085E0 00                    5474 	.db 0x00
      0085E1 00                    5475 	.db 0x00
      0085E2 00                    5476 	.db 0x00
      0085E3 00                    5477 	.db 0x00
      0085E4 00                    5478 	.db 0x00
      0085E5 00                    5479 	.db 0x00
      0085E6 00                    5480 	.db 0x00
      0085E7 00                    5481 	.db 0x00
      0085E8 00                    5482 	.db 0x00
      0085E9 00                    5483 	.db 0x00
      0085EA 00                    5484 	.db 0x00
      0085EB 00                    5485 	.db 0x00
      0085EC 00                    5486 	.db 0x00
      0085ED 00                    5487 	.db 0x00
      0085EE 00                    5488 	.db 0x00
      0085EF 00                    5489 	.db 0x00
      0085F0 00                    5490 	.db 0x00
      0085F1 00                    5491 	.db 0x00
      0085F2 00                    5492 	.db 0x00
      0085F3 00                    5493 	.db 0x00
      0085F4 00                    5494 	.db 0x00
      0085F5 00                    5495 	.db 0x00
      0085F6 00                    5496 	.db 0x00
      0085F7 00                    5497 	.db 0x00
      0085F8 00                    5498 	.db 0x00
      0085F9 00                    5499 	.db 0x00
      0085FA 00                    5500 	.db 0x00
      0085FB 00                    5501 	.db 0x00
      0085FC 00                    5502 	.db 0x00
      0085FD 00                    5503 	.db 0x00
      0085FE 00                    5504 	.db 0x00
      0085FF 00                    5505 	.db 0x00
      008600 00                    5506 	.db 0x00
      008601 00                    5507 	.db 0x00
      008602 00                    5508 	.db 0x00
      008603 00                    5509 	.db 0x00
      008604 00                    5510 	.db 0x00
      008605 00                    5511 	.db 0x00
      008606 00                    5512 	.db 0x00
      008607 00                    5513 	.db 0x00
      008608 00                    5514 	.db 0x00
      008609 00                    5515 	.db 0x00
      00860A 00                    5516 	.db 0x00
      00860B 00                    5517 	.db 0x00
      00860C 00                    5518 	.db 0x00
      00860D 00                    5519 	.db 0x00
      00860E 00                    5520 	.db 0x00
      00860F 00                    5521 	.db 0x00
      008610 00                    5522 	.db 0x00
      008611 00                    5523 	.db 0x00
      008612 00                    5524 	.db 0x00
      008613 00                    5525 	.db 0x00
      008614 00                    5526 	.db 0x00
      008615 00                    5527 	.db 0x00
      008616 00                    5528 	.db 0x00
      008617 00                    5529 	.db 0x00
      008618 00                    5530 	.db 0x00
      008619 00                    5531 	.db 0x00
      00861A 00                    5532 	.db 0x00
      00861B 00                    5533 	.db 0x00
      00861C 00                    5534 	.db 0x00
      00861D 00                    5535 	.db 0x00
      00861E 00                    5536 	.db 0x00
      00861F 00                    5537 	.db 0x00
      008620 00                    5538 	.db 0x00
      008621 00                    5539 	.db 0x00
      008622 00                    5540 	.db 0x00
      008623 00                    5541 	.db 0x00
      008624 00                    5542 	.db 0x00
      008625 00                    5543 	.db 0x00
      008626 00                    5544 	.db 0x00
      008627 00                    5545 	.db 0x00
      008628 00                    5546 	.db 0x00
      008629 00                    5547 	.db 0x00
      00862A 00                    5548 	.db 0x00
      00862B 00                    5549 	.db 0x00
      00862C 00                    5550 	.db 0x00
      00862D 00                    5551 	.db 0x00
      00862E 00                    5552 	.db 0x00
      00862F 00                    5553 	.db 0x00
      008630 00                    5554 	.db 0x00
      008631 00                    5555 	.db 0x00
      008632 00                    5556 	.db 0x00
      008633 00                    5557 	.db 0x00
      008634 00                    5558 	.db 0x00
      008635 00                    5559 	.db 0x00
      008636 00                    5560 	.db 0x00
      008637 00                    5561 	.db 0x00
      008638 00                    5562 	.db 0x00
      008639 00                    5563 	.db 0x00
      00863A 00                    5564 	.db 0x00
      00863B 00                    5565 	.db 0x00
      00863C 00                    5566 	.db 0x00
      00863D 00                    5567 	.db 0x00
      00863E 00                    5568 	.db 0x00
      00863F 00                    5569 	.db 0x00
      008640 00                    5570 	.db 0x00
      008641 00                    5571 	.db 0x00
      008642 00                    5572 	.db 0x00
      008643 00                    5573 	.db 0x00
      008644 00                    5574 	.db 0x00
      008645 00                    5575 	.db 0x00
      008646 00                    5576 	.db 0x00
      008647 00                    5577 	.db 0x00
      008648 00                    5578 	.db 0x00
      008649 00                    5579 	.db 0x00
      00864A 00                    5580 	.db 0x00
      00864B 00                    5581 	.db 0x00
      00864C 00                    5582 	.db 0x00
      00864D 00                    5583 	.db 0x00
      00864E 00                    5584 	.db 0x00
      00864F 00                    5585 	.db 0x00
      008650 00                    5586 	.db 0x00
      008651 00                    5587 	.db 0x00
      008652 00                    5588 	.db 0x00
      008653 00                    5589 	.db 0x00
      008654 00                    5590 	.db 0x00
      008655 00                    5591 	.db 0x00
      008656 00                    5592 	.db 0x00
      008657 00                    5593 	.db 0x00
      008658 00                    5594 	.db 0x00
      008659 00                    5595 	.db 0x00
      00865A 00                    5596 	.db 0x00
      00865B 00                    5597 	.db 0x00
      00865C 00                    5598 	.db 0x00
      00865D 00                    5599 	.db 0x00
      00865E 00                    5600 	.db 0x00
      00865F 00                    5601 	.db 0x00
      008660 00                    5602 	.db 0x00
      008661 00                    5603 	.db 0x00
      008662 00                    5604 	.db 0x00
      008663 00                    5605 	.db 0x00
      008664 00                    5606 	.db 0x00
      008665 00                    5607 	.db 0x00
      008666 00                    5608 	.db 0x00
      008667 00                    5609 	.db 0x00
      008668 00                    5610 	.db 0x00
      008669 00                    5611 	.db 0x00
      00866A 00                    5612 	.db 0x00
      00866B 00                    5613 	.db 0x00
      00866C 00                    5614 	.db 0x00
      00866D 00                    5615 	.db 0x00
      00866E 00                    5616 	.db 0x00
      00866F 00                    5617 	.db 0x00
      008670 00                    5618 	.db 0x00
      008671 00                    5619 	.db 0x00
      008672 00                    5620 	.db 0x00
      008673 00                    5621 	.db 0x00
      008674 00                    5622 	.db 0x00
      008675 00                    5623 	.db 0x00
      008676 00                    5624 	.db 0x00
      008677 00                    5625 	.db 0x00
      008678 00                    5626 	.db 0x00
      008679 00                    5627 	.db 0x00
      00867A 00                    5628 	.db 0x00
      00867B 00                    5629 	.db 0x00
      00867C 00                    5630 	.db 0x00
      00867D 00                    5631 	.db 0x00
      00867E 00                    5632 	.db 0x00
      00867F 00                    5633 	.db 0x00
      008680 00                    5634 	.db 0x00
      008681 00                    5635 	.db 0x00
      008682 00                    5636 	.db 0x00
      008683 00                    5637 	.db 0x00
      008684 00                    5638 	.db 0x00
      008685 00                    5639 	.db 0x00
      008686 00                    5640 	.db 0x00
      008687 00                    5641 	.db 0x00
      008688 00                    5642 	.db 0x00
      008689 00                    5643 	.db 0x00
      00868A 00                    5644 	.db 0x00
      00868B 00                    5645 	.db 0x00
      00868C 00                    5646 	.db 0x00
      00868D 00                    5647 	.db 0x00
      00868E 00                    5648 	.db 0x00
      00868F 00                    5649 	.db 0x00
      008690 00                    5650 	.db 0x00
      008691 00                    5651 	.db 0x00
      008692 00                    5652 	.db 0x00
      008693 00                    5653 	.db 0x00
      008694 00                    5654 	.db 0x00
      008695 00                    5655 	.db 0x00
      008696 00                    5656 	.db 0x00
      008697 00                    5657 	.db 0x00
      008698 00                    5658 	.db 0x00
      008699 00                    5659 	.db 0x00
      00869A 00                    5660 	.db 0x00
      00869B 00                    5661 	.db 0x00
      00869C 00                    5662 	.db 0x00
      00869D 00                    5663 	.db 0x00
      00869E 00                    5664 	.db 0x00
      00869F 00                    5665 	.db 0x00
      0086A0 00                    5666 	.db 0x00
      0086A1 00                    5667 	.db 0x00
      0086A2 00                    5668 	.db 0x00
      0086A3 00                    5669 	.db 0x00
      0086A4 00                    5670 	.db 0x00
      0086A5 00                    5671 	.db 0x00
      0086A6 00                    5672 	.db 0x00
      0086A7 00                    5673 	.db 0x00
      0086A8 00                    5674 	.db 0x00
      0086A9 00                    5675 	.db 0x00
      0086AA 00                    5676 	.db 0x00
      0086AB 00                    5677 	.db 0x00
      0086AC 00                    5678 	.db 0x00
      0086AD 00                    5679 	.db 0x00
      0086AE 00                    5680 	.db 0x00
      0086AF 00                    5681 	.db 0x00
      0086B0 00                    5682 	.db 0x00
      0086B1 00                    5683 	.db 0x00
      0086B2 00                    5684 	.db 0x00
      0086B3 00                    5685 	.db 0x00
      0086B4 00                    5686 	.db 0x00
      0086B5 00                    5687 	.db 0x00
      0086B6 00                    5688 	.db 0x00
      0086B7 00                    5689 	.db 0x00
      0086B8 00                    5690 	.db 0x00
      0086B9 00                    5691 	.db 0x00
      0086BA 00                    5692 	.db 0x00
      0086BB 00                    5693 	.db 0x00
      0086BC 00                    5694 	.db 0x00
      0086BD 00                    5695 	.db 0x00
      0086BE 00                    5696 	.db 0x00
      0086BF 00                    5697 	.db 0x00
      0086C0 00                    5698 	.db 0x00
      0086C1 00                    5699 	.db 0x00
      0086C2 00                    5700 	.db 0x00
      0086C3 00                    5701 	.db 0x00
      0086C4 00                    5702 	.db 0x00
      0086C5 00                    5703 	.db 0x00
      0086C6 00                    5704 	.db 0x00
      0086C7 00                    5705 	.db 0x00
      0086C8 00                    5706 	.db 0x00
      0086C9 00                    5707 	.db 0x00
      0086CA 00                    5708 	.db 0x00
      0086CB 00                    5709 	.db 0x00
      0086CC 00                    5710 	.db 0x00
      0086CD 00                    5711 	.db 0x00
      0086CE 00                    5712 	.db 0x00
      0086CF 00                    5713 	.db 0x00
      0086D0 00                    5714 	.db 0x00
      0086D1 00                    5715 	.db 0x00
      0086D2 00                    5716 	.db 0x00
      0086D3 00                    5717 	.db 0x00
      0086D4 00                    5718 	.db 0x00
      0086D5 00                    5719 	.db 0x00
      0086D6 00                    5720 	.db 0x00
      0086D7 00                    5721 	.db 0x00
      0086D8 00                    5722 	.db 0x00
      0086D9 00                    5723 	.db 0x00
      0086DA 00                    5724 	.db 0x00
      0086DB 00                    5725 	.db 0x00
      0086DC 00                    5726 	.db 0x00
      0086DD 00                    5727 	.db 0x00
      0086DE 00                    5728 	.db 0x00
      0086DF 00                    5729 	.db 0x00
      0086E0 00                    5730 	.db 0x00
      0086E1 00                    5731 	.db 0x00
      0086E2 00                    5732 	.db 0x00
      0086E3 00                    5733 	.db 0x00
      0086E4 00                    5734 	.db 0x00
      0086E5 00                    5735 	.db 0x00
      0086E6 00                    5736 	.db 0x00
      0086E7 00                    5737 	.db 0x00
      0086E8 00                    5738 	.db 0x00
      0086E9 00                    5739 	.db 0x00
      0086EA 00                    5740 	.db 0x00
      0086EB 00                    5741 	.db 0x00
      0086EC 00                    5742 	.db 0x00
      0086ED 00                    5743 	.db 0x00
      0086EE 00                    5744 	.db 0x00
      0086EF 00                    5745 	.db 0x00
      0086F0 00                    5746 	.db 0x00
      0086F1 00                    5747 	.db 0x00
      0086F2 00                    5748 	.db 0x00
      0086F3 00                    5749 	.db 0x00
      0086F4 00                    5750 	.db 0x00
      0086F5 00                    5751 	.db 0x00
      0086F6 00                    5752 	.db 0x00
      0086F7 00                    5753 	.db 0x00
      0086F8 00                    5754 	.db 0x00
      0086F9 00                    5755 	.db 0x00
      0086FA 00                    5756 	.db 0x00
      0086FB 00                    5757 	.db 0x00
      0086FC 00                    5758 	.db 0x00
      0086FD 00                    5759 	.db 0x00
      0086FE 00                    5760 	.db 0x00
      0086FF 00                    5761 	.db 0x00
      008700 00                    5762 	.db 0x00
      008701 00                    5763 	.db 0x00
      008702 00                    5764 	.db 0x00
      008703 00                    5765 	.db 0x00
      008704 00                    5766 	.db 0x00
      008705 00                    5767 	.db 0x00
      008706 00                    5768 	.db 0x00
      008707 00                    5769 	.db 0x00
      008708 00                    5770 	.db 0x00
      008709 00                    5771 	.db 0x00
      00870A 00                    5772 	.db 0x00
      00870B 00                    5773 	.db 0x00
      00870C 00                    5774 	.db 0x00
      00870D 00                    5775 	.db 0x00
      00870E 00                    5776 	.db 0x00
      00870F 00                    5777 	.db 0x00
      008710 00                    5778 	.db 0x00
      008711 00                    5779 	.db 0x00
      008712 00                    5780 	.db 0x00
      008713 00                    5781 	.db 0x00
      008714 00                    5782 	.db 0x00
      008715 00                    5783 	.db 0x00
      008716 00                    5784 	.db 0x00
      008717 00                    5785 	.db 0x00
      008718 00                    5786 	.db 0x00
      008719 00                    5787 	.db 0x00
      00871A 00                    5788 	.db 0x00
      00871B 00                    5789 	.db 0x00
      00871C 00                    5790 	.db 0x00
      00871D 00                    5791 	.db 0x00
      00871E 00                    5792 	.db 0x00
      00871F 00                    5793 	.db 0x00
      008720 00                    5794 	.db 0x00
      008721 00                    5795 	.db 0x00
      008722 00                    5796 	.db 0x00
      008723 00                    5797 	.db 0x00
      008724 00                    5798 	.db 0x00
      008725 00                    5799 	.db 0x00
      008726 00                    5800 	.db 0x00
      008727 00                    5801 	.db 0x00
      008728 00                    5802 	.db 0x00
      008729 00                    5803 	.db 0x00
      00872A 00                    5804 	.db 0x00
      00872B 00                    5805 	.db 0x00
      00872C 00                    5806 	.db 0x00
      00872D 00                    5807 	.db 0x00
      00872E 00                    5808 	.db 0x00
      00872F 00                    5809 	.db 0x00
      008730 00                    5810 	.db 0x00
      008731 00                    5811 	.db 0x00
      008732 00                    5812 	.db 0x00
      008733 00                    5813 	.db 0x00
      008734 00                    5814 	.db 0x00
      008735 00                    5815 	.db 0x00
      008736 00                    5816 	.db 0x00
      008737 00                    5817 	.db 0x00
      008738 00                    5818 	.db 0x00
      008739 00                    5819 	.db 0x00
      00873A 00                    5820 	.db 0x00
      00873B 00                    5821 	.db 0x00
      00873C 00                    5822 	.db 0x00
      00873D 00                    5823 	.db 0x00
      00873E 00                    5824 	.db 0x00
      00873F 00                    5825 	.db 0x00
      008740 00                    5826 	.db 0x00
      008741 00                    5827 	.db 0x00
      008742 00                    5828 	.db 0x00
      008743 00                    5829 	.db 0x00
      008744 00                    5830 	.db 0x00
      008745 00                    5831 	.db 0x00
      008746 00                    5832 	.db 0x00
      008747 00                    5833 	.db 0x00
      008748 00                    5834 	.db 0x00
      008749 00                    5835 	.db 0x00
      00874A 00                    5836 	.db 0x00
      00874B 00                    5837 	.db 0x00
      00874C 00                    5838 	.db 0x00
      00874D 00                    5839 	.db 0x00
      00874E 00                    5840 	.db 0x00
      00874F 00                    5841 	.db 0x00
      008750 00                    5842 	.db 0x00
      008751 00                    5843 	.db 0x00
      008752 00                    5844 	.db 0x00
      008753 00                    5845 	.db 0x00
      008754 00                    5846 	.db 0x00
      008755 00                    5847 	.db 0x00
      008756 00                    5848 	.db 0x00
      008757 00                    5849 	.db 0x00
      008758 00                    5850 	.db 0x00
      008759 00                    5851 	.db 0x00
      00875A 00                    5852 	.db 0x00
      00875B 00                    5853 	.db 0x00
      00875C 00                    5854 	.db 0x00
      00875D 00                    5855 	.db 0x00
      00875E 00                    5856 	.db 0x00
      00875F 00                    5857 	.db 0x00
      008760 00                    5858 	.db 0x00
      008761 00                    5859 	.db 0x00
      008762 00                    5860 	.db 0x00
      008763 00                    5861 	.db 0x00
      008764 00                    5862 	.db 0x00
      008765 00                    5863 	.db 0x00
      008766 00                    5864 	.db 0x00
      008767 00                    5865 	.db 0x00
      008768 00                    5866 	.db 0x00
      008769 00                    5867 	.db 0x00
      00876A 00                    5868 	.db 0x00
      00876B 00                    5869 	.db 0x00
      00876C 00                    5870 	.db 0x00
      00876D 00                    5871 	.db 0x00
      00876E 00                    5872 	.db 0x00
      00876F 00                    5873 	.db 0x00
      008770 00                    5874 	.db 0x00
      008771 00                    5875 	.db 0x00
      008772 00                    5876 	.db 0x00
      008773 00                    5877 	.db 0x00
      008774 00                    5878 	.db 0x00
      008775 00                    5879 	.db 0x00
      008776 00                    5880 	.db 0x00
      008777 00                    5881 	.db 0x00
      008778 00                    5882 	.db 0x00
      008779 00                    5883 	.db 0x00
      00877A 00                    5884 	.db 0x00
      00877B 00                    5885 	.db 0x00
      00877C 00                    5886 	.db 0x00
      00877D 00                    5887 	.db 0x00
      00877E 00                    5888 	.db 0x00
      00877F 00                    5889 	.db 0x00
      008780 00                    5890 	.db 0x00
      008781 00                    5891 	.db 0x00
      008782 00                    5892 	.db 0x00
      008783 00                    5893 	.db 0x00
      008784 00                    5894 	.db 0x00
      008785 00                    5895 	.db 0x00
      008786 00                    5896 	.db 0x00
      008787 00                    5897 	.db 0x00
      008788 00                    5898 	.db 0x00
      008789 00                    5899 	.db 0x00
      00878A 00                    5900 	.db 0x00
      00878B 00                    5901 	.db 0x00
      00878C 00                    5902 	.db 0x00
      00878D 00                    5903 	.db 0x00
      00878E 00                    5904 	.db 0x00
      00878F 00                    5905 	.db 0x00
      008790 00                    5906 	.db 0x00
      008791 00                    5907 	.db 0x00
      008792 00                    5908 	.db 0x00
      008793 00                    5909 	.db 0x00
      008794 00                    5910 	.db 0x00
      008795 00                    5911 	.db 0x00
      008796 00                    5912 	.db 0x00
      008797 00                    5913 	.db 0x00
      008798 00                    5914 	.db 0x00
      008799 00                    5915 	.db 0x00
      00879A 00                    5916 	.db 0x00
      00879B 00                    5917 	.db 0x00
      00879C 00                    5918 	.db 0x00
      00879D 00                    5919 	.db 0x00
      00879E 00                    5920 	.db 0x00
      00879F 00                    5921 	.db 0x00
      0087A0 00                    5922 	.db 0x00
      0087A1 00                    5923 	.db 0x00
      0087A2 00                    5924 	.db 0x00
      0087A3 00                    5925 	.db 0x00
      0087A4 00                    5926 	.db 0x00
      0087A5 00                    5927 	.db 0x00
      0087A6 00                    5928 	.db 0x00
      0087A7 00                    5929 	.db 0x00
      0087A8 00                    5930 	.db 0x00
      0087A9 00                    5931 	.db 0x00
      0087AA 00                    5932 	.db 0x00
      0087AB 00                    5933 	.db 0x00
      0087AC 00                    5934 	.db 0x00
      0087AD 00                    5935 	.db 0x00
      0087AE 00                    5936 	.db 0x00
      0087AF 00                    5937 	.db 0x00
      0087B0 00                    5938 	.db 0x00
      0087B1 00                    5939 	.db 0x00
      0087B2 00                    5940 	.db 0x00
      0087B3 00                    5941 	.db 0x00
      0087B4 00                    5942 	.db 0x00
      0087B5 00                    5943 	.db 0x00
      0087B6 00                    5944 	.db 0x00
      0087B7 00                    5945 	.db 0x00
      0087B8 00                    5946 	.db 0x00
      0087B9 00                    5947 	.db 0x00
      0087BA 00                    5948 	.db 0x00
      0087BB 00                    5949 	.db 0x00
      0087BC 00                    5950 	.db 0x00
      0087BD 00                    5951 	.db 0x00
      0087BE 00                    5952 	.db 0x00
      0087BF 00                    5953 	.db 0x00
      0087C0 00                    5954 	.db 0x00
      0087C1 00                    5955 	.db 0x00
      0087C2 00                    5956 	.db 0x00
      0087C3 00                    5957 	.db 0x00
      0087C4 00                    5958 	.db 0x00
      0087C5 00                    5959 	.db 0x00
      0087C6 00                    5960 	.db 0x00
      0087C7 00                    5961 	.db 0x00
      0087C8 00                    5962 	.db 0x00
      0087C9 00                    5963 	.db 0x00
      0087CA 00                    5964 	.db 0x00
      0087CB 00                    5965 	.db 0x00
      0087CC 00                    5966 	.db 0x00
      0087CD 00                    5967 	.db 0x00
      0087CE 00                    5968 	.db 0x00
      0087CF 00                    5969 	.db 0x00
      0087D0 00                    5970 	.db 0x00
      0087D1 00                    5971 	.db 0x00
      0087D2 00                    5972 	.db 0x00
      0087D3 00                    5973 	.db 0x00
      0087D4 00                    5974 	.db 0x00
      0087D5 00                    5975 	.db 0x00
      0087D6 00                    5976 	.db 0x00
      0087D7 00                    5977 	.db 0x00
      0087D8 00                    5978 	.db 0x00
      0087D9 00                    5979 	.db 0x00
      0087DA 00                    5980 	.db 0x00
      0087DB 00                    5981 	.db 0x00
      0087DC 00                    5982 	.db 0x00
      0087DD 00                    5983 	.db 0x00
      0087DE 00                    5984 	.db 0x00
      0087DF 00                    5985 	.db 0x00
      0087E0 00                    5986 	.db 0x00
      0087E1 00                    5987 	.db 0x00
      0087E2 00                    5988 	.db 0x00
      0087E3 00                    5989 	.db 0x00
      0087E4 00                    5990 	.db 0x00
      0087E5 00                    5991 	.db 0x00
      0087E6 00                    5992 	.db 0x00
      0087E7 00                    5993 	.db 0x00
      0087E8 00                    5994 	.db 0x00
      0087E9 00                    5995 	.db 0x00
      0087EA 00                    5996 	.db 0x00
      0087EB 00                    5997 	.db 0x00
      0087EC 00                    5998 	.db 0x00
      0087ED 00                    5999 	.db 0x00
      0087EE 00                    6000 	.db 0x00
      0087EF 00                    6001 	.db 0x00
      0087F0 00                    6002 	.db 0x00
      0087F1 00                    6003 	.db 0x00
      0087F2 00                    6004 	.db 0x00
      0087F3 00                    6005 	.db 0x00
      0087F4 00                    6006 	.db 0x00
      0087F5 00                    6007 	.db 0x00
      0087F6 00                    6008 	.db 0x00
      0087F7 00                    6009 	.db 0x00
      0087F8 00                    6010 	.db 0x00
      0087F9 00                    6011 	.db 0x00
      0087FA 00                    6012 	.db 0x00
      0087FB 00                    6013 	.db 0x00
      0087FC 00                    6014 	.db 0x00
      0087FD 00                    6015 	.db 0x00
      0087FE 00                    6016 	.db 0x00
      0087FF 00                    6017 	.db 0x00
      008800 00                    6018 	.db 0x00
      008801 00                    6019 	.db 0x00
      008802 00                    6020 	.db 0x00
      008803 00                    6021 	.db 0x00
      008804 00                    6022 	.db 0x00
      008805 00                    6023 	.db 0x00
      008806 00                    6024 	.db 0x00
      008807 00                    6025 	.db 0x00
      008808 00                    6026 	.db 0x00
      008809 00                    6027 	.db 0x00
      00880A 00                    6028 	.db 0x00
      00880B 00                    6029 	.db 0x00
      00880C 00                    6030 	.db 0x00
      00880D 00                    6031 	.db 0x00
      00880E 00                    6032 	.db 0x00
      00880F 00                    6033 	.db 0x00
      008810 00                    6034 	.db 0x00
      008811 00                    6035 	.db 0x00
      008812 00                    6036 	.db 0x00
      008813 00                    6037 	.db 0x00
      008814 00                    6038 	.db 0x00
      008815 00                    6039 	.db 0x00
      008816 00                    6040 	.db 0x00
      008817 00                    6041 	.db 0x00
      008818 00                    6042 	.db 0x00
      008819 00                    6043 	.db 0x00
      00881A 00                    6044 	.db 0x00
      00881B 00                    6045 	.db 0x00
      00881C 00                    6046 	.db 0x00
      00881D 00                    6047 	.db 0x00
      00881E 00                    6048 	.db 0x00
      00881F 00                    6049 	.db 0x00
      008820 00                    6050 	.db 0x00
      008821 00                    6051 	.db 0x00
      008822 00                    6052 	.db 0x00
      008823 00                    6053 	.db 0x00
      008824 00                    6054 	.db 0x00
      008825 00                    6055 	.db 0x00
      008826 00                    6056 	.db 0x00
      008827 00                    6057 	.db 0x00
      008828 00                    6058 	.db 0x00
      008829 00                    6059 	.db 0x00
      00882A 00                    6060 	.db 0x00
      00882B 00                    6061 	.db 0x00
      00882C 00                    6062 	.db 0x00
      00882D 00                    6063 	.db 0x00
      00882E 00                    6064 	.db 0x00
      00882F 00                    6065 	.db 0x00
      008830 00                    6066 	.db 0x00
      008831 00                    6067 	.db 0x00
      008832 00                    6068 	.db 0x00
      008833 00                    6069 	.db 0x00
      008834 00                    6070 	.db 0x00
      008835 00                    6071 	.db 0x00
      008836 00                    6072 	.db 0x00
      008837 00                    6073 	.db 0x00
      008838 00                    6074 	.db 0x00
      008839 00                    6075 	.db 0x00
      00883A 00                    6076 	.db 0x00
      00883B 00                    6077 	.db 0x00
      00883C 00                    6078 	.db 0x00
      00883D 00                    6079 	.db 0x00
      00883E 00                    6080 	.db 0x00
      00883F 00                    6081 	.db 0x00
      008840 00                    6082 	.db 0x00
      008841 00                    6083 	.db 0x00
      008842 00                    6084 	.db 0x00
      008843 00                    6085 	.db 0x00
      008844 00                    6086 	.db 0x00
      008845 00                    6087 	.db 0x00
      008846 00                    6088 	.db 0x00
      008847 00                    6089 	.db 0x00
      008848 00                    6090 	.db 0x00
      008849 00                    6091 	.db 0x00
      00884A 00                    6092 	.db 0x00
      00884B 00                    6093 	.db 0x00
      00884C 00                    6094 	.db 0x00
      00884D 00                    6095 	.db 0x00
      00884E 00                    6096 	.db 0x00
      00884F 00                    6097 	.db 0x00
      008850 00                    6098 	.db 0x00
      008851 00                    6099 	.db 0x00
      008852 00                    6100 	.db 0x00
      008853 00                    6101 	.db 0x00
      008854 00                    6102 	.db 0x00
      008855 00                    6103 	.db 0x00
      008856 00                    6104 	.db 0x00
      008857 00                    6105 	.db 0x00
      008858 00                    6106 	.db 0x00
      008859 00                    6107 	.db 0x00
      00885A 00                    6108 	.db 0x00
      00885B 00                    6109 	.db 0x00
      00885C 00                    6110 	.db 0x00
      00885D 00                    6111 	.db 0x00
      00885E 00                    6112 	.db 0x00
      00885F 00                    6113 	.db 0x00
      008860 00                    6114 	.db 0x00
      008861 00                    6115 	.db 0x00
      008862 00                    6116 	.db 0x00
      008863 00                    6117 	.db 0x00
      008864 00                    6118 	.db 0x00
      008865 00                    6119 	.db 0x00
      008866 00                    6120 	.db 0x00
      008867 00                    6121 	.db 0x00
      008868 00                    6122 	.db 0x00
      008869 00                    6123 	.db 0x00
      00886A 00                    6124 	.db 0x00
      00886B 00                    6125 	.db 0x00
      00886C 00                    6126 	.db 0x00
      00886D 00                    6127 	.db 0x00
      00886E 00                    6128 	.db 0x00
      00886F 00                    6129 	.db 0x00
      008870 00                    6130 	.db 0x00
      008871 00                    6131 	.db 0x00
      008872 00                    6132 	.db 0x00
      008873 00                    6133 	.db 0x00
      008874 00                    6134 	.db 0x00
      008875 00                    6135 	.db 0x00
      008876 00                    6136 	.db 0x00
      008877 00                    6137 	.db 0x00
      008878 00                    6138 	.db 0x00
      008879 00                    6139 	.db 0x00
      00887A 00                    6140 	.db 0x00
      00887B 00                    6141 	.db 0x00
      00887C 00                    6142 	.db 0x00
      00887D 00                    6143 	.db 0x00
      00887E 00                    6144 	.db 0x00
      00887F 00                    6145 	.db 0x00
      008880 00                    6146 	.db 0x00
      008881 00                    6147 	.db 0x00
      008882 00                    6148 	.db 0x00
      008883 00                    6149 	.db 0x00
      008884 00                    6150 	.db 0x00
      008885 00                    6151 	.db 0x00
      008886 00                    6152 	.db 0x00
      008887 00                    6153 	.db 0x00
      008888 00                    6154 	.db 0x00
      008889 00                    6155 	.db 0x00
      00888A 00                    6156 	.db 0x00
      00888B 00                    6157 	.db 0x00
      00888C 00                    6158 	.db 0x00
      00888D 00                    6159 	.db 0x00
      00888E 00                    6160 	.db 0x00
      00888F 00                    6161 	.db 0x00
      008890 00                    6162 	.db 0x00
      008891 00                    6163 	.db 0x00
      008892 00                    6164 	.db 0x00
      008893 00                    6165 	.db 0x00
      008894 00                    6166 	.db 0x00
      008895 00                    6167 	.db 0x00
      008896 00                    6168 	.db 0x00
      008897 00                    6169 	.db 0x00
      008898 00                    6170 	.db 0x00
      008899 00                    6171 	.db 0x00
      00889A 00                    6172 	.db 0x00
      00889B 00                    6173 	.db 0x00
      00889C 00                    6174 	.db 0x00
      00889D 00                    6175 	.db 0x00
      00889E 00                    6176 	.db 0x00
      00889F 00                    6177 	.db 0x00
      0088A0 00                    6178 	.db 0x00
      0088A1 00                    6179 	.db 0x00
      0088A2 00                    6180 	.db 0x00
      0088A3 00                    6181 	.db 0x00
      0088A4 00                    6182 	.db 0x00
      0088A5 00                    6183 	.db 0x00
      0088A6 00                    6184 	.db 0x00
      0088A7 00                    6185 	.db 0x00
      0088A8 00                    6186 	.db 0x00
      0088A9 00                    6187 	.db 0x00
      0088AA 00                    6188 	.db 0x00
      0088AB 00                    6189 	.db 0x00
      0088AC 00                    6190 	.db 0x00
      0088AD 00                    6191 	.db 0x00
      0088AE 00                    6192 	.db 0x00
      0088AF 00                    6193 	.db 0x00
      0088B0 00                    6194 	.db 0x00
      0088B1 00                    6195 	.db 0x00
      0088B2 00                    6196 	.db 0x00
      0088B3 00                    6197 	.db 0x00
      0088B4 00                    6198 	.db 0x00
      0088B5 00                    6199 	.db 0x00
      0088B6 00                    6200 	.db 0x00
      0088B7 00                    6201 	.db 0x00
      0088B8 00                    6202 	.db 0x00
      0088B9 00                    6203 	.db 0x00
      0088BA 00                    6204 	.db 0x00
      0088BB 00                    6205 	.db 0x00
      0088BC 00                    6206 	.db 0x00
      0088BD 00                    6207 	.db 0x00
      0088BE 00                    6208 	.db 0x00
      0088BF 00                    6209 	.db 0x00
      0088C0 00                    6210 	.db 0x00
      0088C1 00                    6211 	.db 0x00
      0088C2 00                    6212 	.db 0x00
      0088C3 00                    6213 	.db 0x00
      0088C4 00                    6214 	.db 0x00
      0088C5 00                    6215 	.db 0x00
      0088C6 00                    6216 	.db 0x00
      0088C7 00                    6217 	.db 0x00
      0088C8 00                    6218 	.db 0x00
      0088C9 00                    6219 	.db 0x00
      0088CA 00                    6220 	.db 0x00
      0088CB 00                    6221 	.db 0x00
      0088CC 00                    6222 	.db 0x00
      0088CD 00                    6223 	.db 0x00
      0088CE 00                    6224 	.db 0x00
      0088CF 00                    6225 	.db 0x00
      0088D0 00                    6226 	.db 0x00
      0088D1 00                    6227 	.db 0x00
      0088D2 00                    6228 	.db 0x00
      0088D3 00                    6229 	.db 0x00
      0088D4 00                    6230 	.db 0x00
      0088D5 00                    6231 	.db 0x00
      0088D6 00                    6232 	.db 0x00
      0088D7 00                    6233 	.db 0x00
      0088D8 00                    6234 	.db 0x00
      0088D9 00                    6235 	.db 0x00
      0088DA 00                    6236 	.db 0x00
      0088DB 00                    6237 	.db 0x00
      0088DC 00                    6238 	.db 0x00
      0088DD 00                    6239 	.db 0x00
      0088DE 00                    6240 	.db 0x00
      0088DF 00                    6241 	.db 0x00
      0088E0 00                    6242 	.db 0x00
      0088E1 00                    6243 	.db 0x00
      0088E2 00                    6244 	.db 0x00
      0088E3 00                    6245 	.db 0x00
      0088E4 00                    6246 	.db 0x00
      0088E5 00                    6247 	.db 0x00
      0088E6 00                    6248 	.db 0x00
      0088E7 00                    6249 	.db 0x00
      0088E8 00                    6250 	.db 0x00
      0088E9 00                    6251 	.db 0x00
      0088EA 00                    6252 	.db 0x00
      0088EB 00                    6253 	.db 0x00
      0088EC 00                    6254 	.db 0x00
      0088ED 00                    6255 	.db 0x00
      0088EE 00                    6256 	.db 0x00
      0088EF 00                    6257 	.db 0x00
      0088F0 00                    6258 	.db 0x00
      0088F1 00                    6259 	.db 0x00
      0088F2 00                    6260 	.db 0x00
      0088F3 00                    6261 	.db 0x00
      0088F4 00                    6262 	.db 0x00
      0088F5 00                    6263 	.db 0x00
      0088F6 00                    6264 	.db 0x00
      0088F7 00                    6265 	.db 0x00
      0088F8 00                    6266 	.db 0x00
      0088F9 00                    6267 	.db 0x00
      0088FA 00                    6268 	.db 0x00
      0088FB 00                    6269 	.db 0x00
      0088FC 00                    6270 	.db 0x00
      0088FD 00                    6271 	.db 0x00
      0088FE 00                    6272 	.db 0x00
      0088FF 00                    6273 	.db 0x00
      008900 00                    6274 	.db 0x00
      008901 00                    6275 	.db 0x00
      008902 00                    6276 	.db 0x00
      008903 00                    6277 	.db 0x00
      008904 00                    6278 	.db 0x00
      008905 00                    6279 	.db 0x00
      008906 00                    6280 	.db 0x00
      008907 00                    6281 	.db 0x00
      008908 00                    6282 	.db 0x00
      008909 00                    6283 	.db 0x00
      00890A 00                    6284 	.db 0x00
      00890B 00                    6285 	.db 0x00
      00890C 00                    6286 	.db 0x00
      00890D 00                    6287 	.db 0x00
      00890E 00                    6288 	.db 0x00
      00890F 00                    6289 	.db 0x00
      008910 00                    6290 	.db 0x00
      008911 00                    6291 	.db 0x00
      008912 00                    6292 	.db 0x00
      008913 00                    6293 	.db 0x00
      008914 00                    6294 	.db 0x00
      008915 00                    6295 	.db 0x00
      008916 00                    6296 	.db 0x00
      008917 00                    6297 	.db 0x00
      008918 00                    6298 	.db 0x00
      008919 00                    6299 	.db 0x00
      00891A 00                    6300 	.db 0x00
      00891B 00                    6301 	.db 0x00
      00891C 00                    6302 	.db 0x00
      00891D 00                    6303 	.db 0x00
      00891E 00                    6304 	.db 0x00
      00891F 00                    6305 	.db 0x00
      008920 00                    6306 	.db 0x00
      008921 00                    6307 	.db 0x00
      008922 00                    6308 	.db 0x00
      008923 00                    6309 	.db 0x00
      008924 00                    6310 	.db 0x00
      008925 00                    6311 	.db 0x00
      008926 00                    6312 	.db 0x00
      008927 00                    6313 	.db 0x00
      008928 00                    6314 	.db 0x00
      008929 00                    6315 	.db 0x00
      00892A 00                    6316 	.db 0x00
      00892B 00                    6317 	.db 0x00
      00892C 00                    6318 	.db 0x00
      00892D 00                    6319 	.db 0x00
      00892E 00                    6320 	.db 0x00
      00892F 00                    6321 	.db 0x00
      008930 00                    6322 	.db 0x00
      008931 00                    6323 	.db 0x00
      008932 00                    6324 	.db 0x00
      008933 00                    6325 	.db 0x00
      008934 00                    6326 	.db 0x00
      008935 00                    6327 	.db 0x00
      008936 00                    6328 	.db 0x00
      008937 00                    6329 	.db 0x00
      008938 00                    6330 	.db 0x00
      008939 00                    6331 	.db 0x00
      00893A 00                    6332 	.db 0x00
      00893B 00                    6333 	.db 0x00
      00893C 00                    6334 	.db 0x00
      00893D 00                    6335 	.db 0x00
      00893E 00                    6336 	.db 0x00
      00893F 00                    6337 	.db 0x00
      008940 00                    6338 	.db 0x00
      008941 00                    6339 	.db 0x00
      008942 00                    6340 	.db 0x00
      008943 00                    6341 	.db 0x00
      008944 00                    6342 	.db 0x00
      008945 00                    6343 	.db 0x00
      008946 00                    6344 	.db 0x00
      008947 00                    6345 	.db 0x00
      008948 00                    6346 	.db 0x00
      008949 00                    6347 	.db 0x00
      00894A 00                    6348 	.db 0x00
      00894B 00                    6349 	.db 0x00
      00894C 00                    6350 	.db 0x00
      00894D 00                    6351 	.db 0x00
      00894E 00                    6352 	.db 0x00
      00894F 00                    6353 	.db 0x00
      008950 00                    6354 	.db 0x00
      008951 00                    6355 	.db 0x00
      008952 00                    6356 	.db 0x00
      008953 00                    6357 	.db 0x00
      008954 00                    6358 	.db 0x00
      008955 00                    6359 	.db 0x00
      008956 00                    6360 	.db 0x00
      008957 00                    6361 	.db 0x00
      008958 00                    6362 	.db 0x00
      008959 00                    6363 	.db 0x00
      00895A 00                    6364 	.db 0x00
      00895B 00                    6365 	.db 0x00
      00895C 00                    6366 	.db 0x00
      00895D 00                    6367 	.db 0x00
      00895E 00                    6368 	.db 0x00
      00895F 00                    6369 	.db 0x00
      008960 00                    6370 	.db 0x00
      008961 00                    6371 	.db 0x00
      008962 00                    6372 	.db 0x00
      008963 00                    6373 	.db 0x00
      008964 00                    6374 	.db 0x00
      008965 00                    6375 	.db 0x00
      008966 00                    6376 	.db 0x00
      008967 00                    6377 	.db 0x00
      008968 00                    6378 	.db 0x00
      008969 00                    6379 	.db 0x00
      00896A 00                    6380 	.db 0x00
      00896B 00                    6381 	.db 0x00
      00896C 00                    6382 	.db 0x00
      00896D 00                    6383 	.db 0x00
      00896E 00                    6384 	.db 0x00
      00896F 00                    6385 	.db 0x00
      008970 00                    6386 	.db 0x00
      008971 00                    6387 	.db 0x00
      008972 00                    6388 	.db 0x00
      008973 00                    6389 	.db 0x00
      008974 00                    6390 	.db 0x00
      008975 00                    6391 	.db 0x00
      008976 00                    6392 	.db 0x00
      008977 00                    6393 	.db 0x00
      008978 00                    6394 	.db 0x00
      008979 00                    6395 	.db 0x00
      00897A 00                    6396 	.db 0x00
      00897B 00                    6397 	.db 0x00
      00897C 00                    6398 	.db 0x00
      00897D 00                    6399 	.db 0x00
      00897E 00                    6400 	.db 0x00
      00897F 00                    6401 	.db 0x00
      008980 00                    6402 	.db 0x00
      008981 00                    6403 	.db 0x00
      008982 00                    6404 	.db 0x00
      008983 00                    6405 	.db 0x00
      008984 00                    6406 	.db 0x00
      008985 00                    6407 	.db 0x00
      008986 00                    6408 	.db 0x00
      008987 00                    6409 	.db 0x00
      008988 00                    6410 	.db 0x00
      008989 00                    6411 	.db 0x00
      00898A 00                    6412 	.db 0x00
      00898B 00                    6413 	.db 0x00
      00898C 00                    6414 	.db 0x00
      00898D 00                    6415 	.db 0x00
      00898E 00                    6416 	.db 0x00
      00898F 00                    6417 	.db 0x00
      008990 00                    6418 	.db 0x00
      008991 00                    6419 	.db 0x00
      008992 00                    6420 	.db 0x00
      008993 00                    6421 	.db 0x00
      008994 00                    6422 	.db 0x00
      008995 00                    6423 	.db 0x00
      008996 00                    6424 	.db 0x00
      008997 00                    6425 	.db 0x00
      008998 00                    6426 	.db 0x00
      008999 00                    6427 	.db 0x00
      00899A 00                    6428 	.db 0x00
      00899B 00                    6429 	.db 0x00
      00899C 00                    6430 	.db 0x00
      00899D 00                    6431 	.db 0x00
      00899E 00                    6432 	.db 0x00
      00899F 00                    6433 	.db 0x00
      0089A0 00                    6434 	.db 0x00
      0089A1 00                    6435 	.db 0x00
      0089A2 00                    6436 	.db 0x00
      0089A3 00                    6437 	.db 0x00
                                   6438 	.area CABS    (ABS,CODE)
