;--------------------------------------------------------
; File Created by SDCC : free open source ANSI-C Compiler
; Version 3.5.0 #9253 (Sep  7 2022) (Linux)
; This file was generated Wed Sep  7 10:05:03 2022
;--------------------------------------------------------
	.module golay
	.optsdcc -mmcs51 --model-large
	
;--------------------------------------------------------
; Public variables in this module
;--------------------------------------------------------
	.globl _golay_decode
	.globl _golay_encode
	.globl _NSS1
	.globl _IRQ
	.globl _PA_ENABLE
	.globl _PIN_ENABLE
	.globl _PIN_CONFIG
	.globl _LED_GREEN
	.globl _LED_RED
	.globl _SPI0EN
	.globl _TXBMT0
	.globl _NSS0MD0
	.globl _NSS0MD1
	.globl _RXOVRN0
	.globl _MODF0
	.globl _WCOL0
	.globl _SPIF0
	.globl _AD0CM0
	.globl _AD0CM1
	.globl _AD0CM2
	.globl _AD0WINT
	.globl _AD0BUSY
	.globl _AD0INT
	.globl _BURSTEN
	.globl _AD0EN
	.globl _CCF0
	.globl _CCF1
	.globl _CCF2
	.globl _CCF3
	.globl _CCF4
	.globl _CCF5
	.globl _CR
	.globl _CF
	.globl _P
	.globl _F1
	.globl _OV
	.globl _RS0
	.globl _RS1
	.globl _F0
	.globl _AC
	.globl _CY
	.globl _T2XCLK
	.globl _T2RCLK
	.globl _TR2
	.globl _T2SPLIT
	.globl _TF2CEN
	.globl _TF2LEN
	.globl _TF2L
	.globl _TF2H
	.globl _SI
	.globl _ACK
	.globl _ARBLOST
	.globl _ACKRQ
	.globl _STO
	.globl _STA
	.globl _TXMODE
	.globl _MASTER
	.globl _PX0
	.globl _PT0
	.globl _PX1
	.globl _PT1
	.globl _PS0
	.globl _PT2
	.globl _PSPI0
	.globl _SPI1EN
	.globl _TXBMT1
	.globl _NSS1MD0
	.globl _NSS1MD1
	.globl _RXOVRN1
	.globl _MODF1
	.globl _WCOL1
	.globl _SPIF1
	.globl _EX0
	.globl _ET0
	.globl _EX1
	.globl _ET1
	.globl _ES0
	.globl _ET2
	.globl _ESPI0
	.globl _EA
	.globl _RI0
	.globl _TI0
	.globl _RB80
	.globl _TB80
	.globl _REN0
	.globl _MCE0
	.globl _S0MODE
	.globl _CRC0VAL
	.globl _CRC0INIT
	.globl _CRC0SEL
	.globl _IT0
	.globl _IE0
	.globl _IT1
	.globl _IE1
	.globl _TR0
	.globl _TF0
	.globl _TR1
	.globl _TF1
	.globl _PCA0CP4
	.globl _PCA0CP0
	.globl _PCA0
	.globl _PCA0CP3
	.globl _PCA0CP2
	.globl _PCA0CP1
	.globl _PCA0CP5
	.globl _TMR2
	.globl _TMR2RL
	.globl _ADC0LT
	.globl _ADC0GT
	.globl _ADC0
	.globl _TMR3
	.globl _TMR3RL
	.globl _TOFF
	.globl _DP
	.globl _VDM0CN
	.globl _PCA0CPH4
	.globl _PCA0CPL4
	.globl _PCA0CPH0
	.globl _PCA0CPL0
	.globl _PCA0H
	.globl _PCA0L
	.globl _SPI0CN
	.globl _EIP2
	.globl _EIP1
	.globl _SMB0ADM
	.globl _SMB0ADR
	.globl _P2MDIN
	.globl _P1MDIN
	.globl _P0MDIN
	.globl _B
	.globl _RSTSRC
	.globl _PCA0CPH3
	.globl _PCA0CPL3
	.globl _PCA0CPH2
	.globl _PCA0CPL2
	.globl _PCA0CPH1
	.globl _PCA0CPL1
	.globl _ADC0CN
	.globl _EIE2
	.globl _EIE1
	.globl _FLWR
	.globl _IT01CF
	.globl _XBR2
	.globl _XBR1
	.globl _XBR0
	.globl _ACC
	.globl _PCA0PWM
	.globl _PCA0CPM4
	.globl _PCA0CPM3
	.globl _PCA0CPM2
	.globl _PCA0CPM1
	.globl _PCA0CPM0
	.globl _PCA0MD
	.globl _PCA0CN
	.globl _P0MAT
	.globl _P2SKIP
	.globl _P1SKIP
	.globl _P0SKIP
	.globl _PCA0CPH5
	.globl _PCA0CPL5
	.globl _REF0CN
	.globl _PSW
	.globl _P1MAT
	.globl _PCA0CPM5
	.globl _TMR2H
	.globl _TMR2L
	.globl _TMR2RLH
	.globl _TMR2RLL
	.globl _REG0CN
	.globl _TMR2CN
	.globl _P0MASK
	.globl _ADC0LTH
	.globl _ADC0LTL
	.globl _ADC0GTH
	.globl _ADC0GTL
	.globl _SMB0DAT
	.globl _SMB0CF
	.globl _SMB0CN
	.globl _P1MASK
	.globl _ADC0H
	.globl _ADC0L
	.globl _ADC0TK
	.globl _ADC0CF
	.globl _ADC0MX
	.globl _ADC0PWR
	.globl _ADC0AC
	.globl _IREF0CN
	.globl _IP
	.globl _FLKEY
	.globl _FLSCL
	.globl _PMU0CF
	.globl _OSCICL
	.globl _OSCICN
	.globl _OSCXCN
	.globl _SPI1CN
	.globl _ONESHOT
	.globl _EMI0TC
	.globl _RTC0KEY
	.globl _RTC0DAT
	.globl _RTC0ADR
	.globl _EMI0CF
	.globl _EMI0CN
	.globl _CLKSEL
	.globl _IE
	.globl _SFRPAGE
	.globl _P2DRV
	.globl _P2MDOUT
	.globl _P1DRV
	.globl _P1MDOUT
	.globl _P0DRV
	.globl _P0MDOUT
	.globl _SPI0DAT
	.globl _SPI0CKR
	.globl _SPI0CFG
	.globl _P2
	.globl _CPT0MX
	.globl _CPT1MX
	.globl _CPT0MD
	.globl _CPT1MD
	.globl _CPT0CN
	.globl _CPT1CN
	.globl _SBUF0
	.globl _SCON0
	.globl _CRC0CNT
	.globl _DC0CN
	.globl _CRC0AUTO
	.globl _DC0CF
	.globl _TMR3H
	.globl _CRC0FLIP
	.globl _TMR3L
	.globl _CRC0IN
	.globl _TMR3RLH
	.globl _CRC0CN
	.globl _TMR3RLL
	.globl _CRC0DAT
	.globl _TMR3CN
	.globl _P1
	.globl _PSCTL
	.globl _CKCON
	.globl _TH1
	.globl _TH0
	.globl _TL1
	.globl _TL0
	.globl _TMOD
	.globl _TCON
	.globl _PCON
	.globl _TOFFH
	.globl _SPI1DAT
	.globl _TOFFL
	.globl _SPI1CKR
	.globl _SPI1CFG
	.globl _DPH
	.globl _DPL
	.globl _SP
	.globl _P0
	.globl _golay_decode_PARM_3
	.globl _golay_decode_PARM_2
	.globl _golay_encode_PARM_3
	.globl _golay_encode_PARM_2
;--------------------------------------------------------
; special function registers
;--------------------------------------------------------
	.area RSEG    (ABS,DATA)
	.org 0x0000
_P0	=	0x0080
_SP	=	0x0081
_DPL	=	0x0082
_DPH	=	0x0083
_SPI1CFG	=	0x0084
_SPI1CKR	=	0x0085
_TOFFL	=	0x0085
_SPI1DAT	=	0x0086
_TOFFH	=	0x0086
_PCON	=	0x0087
_TCON	=	0x0088
_TMOD	=	0x0089
_TL0	=	0x008a
_TL1	=	0x008b
_TH0	=	0x008c
_TH1	=	0x008d
_CKCON	=	0x008e
_PSCTL	=	0x008f
_P1	=	0x0090
_TMR3CN	=	0x0091
_CRC0DAT	=	0x0091
_TMR3RLL	=	0x0092
_CRC0CN	=	0x0092
_TMR3RLH	=	0x0093
_CRC0IN	=	0x0093
_TMR3L	=	0x0094
_CRC0FLIP	=	0x0095
_TMR3H	=	0x0095
_DC0CF	=	0x0096
_CRC0AUTO	=	0x0096
_DC0CN	=	0x0097
_CRC0CNT	=	0x0097
_SCON0	=	0x0098
_SBUF0	=	0x0099
_CPT1CN	=	0x009a
_CPT0CN	=	0x009b
_CPT1MD	=	0x009c
_CPT0MD	=	0x009d
_CPT1MX	=	0x009e
_CPT0MX	=	0x009f
_P2	=	0x00a0
_SPI0CFG	=	0x00a1
_SPI0CKR	=	0x00a2
_SPI0DAT	=	0x00a3
_P0MDOUT	=	0x00a4
_P0DRV	=	0x00a4
_P1MDOUT	=	0x00a5
_P1DRV	=	0x00a5
_P2MDOUT	=	0x00a6
_P2DRV	=	0x00a6
_SFRPAGE	=	0x00a7
_IE	=	0x00a8
_CLKSEL	=	0x00a9
_EMI0CN	=	0x00aa
_EMI0CF	=	0x00ab
_RTC0ADR	=	0x00ac
_RTC0DAT	=	0x00ad
_RTC0KEY	=	0x00ae
_EMI0TC	=	0x00af
_ONESHOT	=	0x00af
_SPI1CN	=	0x00b0
_OSCXCN	=	0x00b1
_OSCICN	=	0x00b2
_OSCICL	=	0x00b3
_PMU0CF	=	0x00b5
_FLSCL	=	0x00b6
_FLKEY	=	0x00b7
_IP	=	0x00b8
_IREF0CN	=	0x00b9
_ADC0AC	=	0x00ba
_ADC0PWR	=	0x00ba
_ADC0MX	=	0x00bb
_ADC0CF	=	0x00bc
_ADC0TK	=	0x00bd
_ADC0L	=	0x00bd
_ADC0H	=	0x00be
_P1MASK	=	0x00bf
_SMB0CN	=	0x00c0
_SMB0CF	=	0x00c1
_SMB0DAT	=	0x00c2
_ADC0GTL	=	0x00c3
_ADC0GTH	=	0x00c4
_ADC0LTL	=	0x00c5
_ADC0LTH	=	0x00c6
_P0MASK	=	0x00c7
_TMR2CN	=	0x00c8
_REG0CN	=	0x00c9
_TMR2RLL	=	0x00ca
_TMR2RLH	=	0x00cb
_TMR2L	=	0x00cc
_TMR2H	=	0x00cd
_PCA0CPM5	=	0x00ce
_P1MAT	=	0x00cf
_PSW	=	0x00d0
_REF0CN	=	0x00d1
_PCA0CPL5	=	0x00d2
_PCA0CPH5	=	0x00d3
_P0SKIP	=	0x00d4
_P1SKIP	=	0x00d5
_P2SKIP	=	0x00d6
_P0MAT	=	0x00d7
_PCA0CN	=	0x00d8
_PCA0MD	=	0x00d9
_PCA0CPM0	=	0x00da
_PCA0CPM1	=	0x00db
_PCA0CPM2	=	0x00dc
_PCA0CPM3	=	0x00dd
_PCA0CPM4	=	0x00de
_PCA0PWM	=	0x00df
_ACC	=	0x00e0
_XBR0	=	0x00e1
_XBR1	=	0x00e2
_XBR2	=	0x00e3
_IT01CF	=	0x00e4
_FLWR	=	0x00e5
_EIE1	=	0x00e6
_EIE2	=	0x00e7
_ADC0CN	=	0x00e8
_PCA0CPL1	=	0x00e9
_PCA0CPH1	=	0x00ea
_PCA0CPL2	=	0x00eb
_PCA0CPH2	=	0x00ec
_PCA0CPL3	=	0x00ed
_PCA0CPH3	=	0x00ee
_RSTSRC	=	0x00ef
_B	=	0x00f0
_P0MDIN	=	0x00f1
_P1MDIN	=	0x00f2
_P2MDIN	=	0x00f3
_SMB0ADR	=	0x00f4
_SMB0ADM	=	0x00f5
_EIP1	=	0x00f6
_EIP2	=	0x00f7
_SPI0CN	=	0x00f8
_PCA0L	=	0x00f9
_PCA0H	=	0x00fa
_PCA0CPL0	=	0x00fb
_PCA0CPH0	=	0x00fc
_PCA0CPL4	=	0x00fd
_PCA0CPH4	=	0x00fe
_VDM0CN	=	0x00ff
_DP	=	0x8382
_TOFF	=	0x8685
_TMR3RL	=	0x9392
_TMR3	=	0x9594
_ADC0	=	0xbebd
_ADC0GT	=	0xc4c3
_ADC0LT	=	0xc6c5
_TMR2RL	=	0xcbca
_TMR2	=	0xcdcc
_PCA0CP5	=	0xd3d2
_PCA0CP1	=	0xeae9
_PCA0CP2	=	0xeceb
_PCA0CP3	=	0xeeed
_PCA0	=	0xfaf9
_PCA0CP0	=	0xfcfb
_PCA0CP4	=	0xfefd
;--------------------------------------------------------
; special function bits
;--------------------------------------------------------
	.area RSEG    (ABS,DATA)
	.org 0x0000
_TF1	=	0x008f
_TR1	=	0x008e
_TF0	=	0x008d
_TR0	=	0x008c
_IE1	=	0x008b
_IT1	=	0x008a
_IE0	=	0x0089
_IT0	=	0x0088
_CRC0SEL	=	0x0096
_CRC0INIT	=	0x0095
_CRC0VAL	=	0x0094
_S0MODE	=	0x009f
_MCE0	=	0x009d
_REN0	=	0x009c
_TB80	=	0x009b
_RB80	=	0x009a
_TI0	=	0x0099
_RI0	=	0x0098
_EA	=	0x00af
_ESPI0	=	0x00ae
_ET2	=	0x00ad
_ES0	=	0x00ac
_ET1	=	0x00ab
_EX1	=	0x00aa
_ET0	=	0x00a9
_EX0	=	0x00a8
_SPIF1	=	0x00b7
_WCOL1	=	0x00b6
_MODF1	=	0x00b5
_RXOVRN1	=	0x00b4
_NSS1MD1	=	0x00b3
_NSS1MD0	=	0x00b2
_TXBMT1	=	0x00b1
_SPI1EN	=	0x00b0
_PSPI0	=	0x00be
_PT2	=	0x00bd
_PS0	=	0x00bc
_PT1	=	0x00bb
_PX1	=	0x00ba
_PT0	=	0x00b9
_PX0	=	0x00b8
_MASTER	=	0x00c7
_TXMODE	=	0x00c6
_STA	=	0x00c5
_STO	=	0x00c4
_ACKRQ	=	0x00c3
_ARBLOST	=	0x00c2
_ACK	=	0x00c1
_SI	=	0x00c0
_TF2H	=	0x00cf
_TF2L	=	0x00ce
_TF2LEN	=	0x00cd
_TF2CEN	=	0x00cc
_T2SPLIT	=	0x00cb
_TR2	=	0x00ca
_T2RCLK	=	0x00c9
_T2XCLK	=	0x00c8
_CY	=	0x00d7
_AC	=	0x00d6
_F0	=	0x00d5
_RS1	=	0x00d4
_RS0	=	0x00d3
_OV	=	0x00d2
_F1	=	0x00d1
_P	=	0x00d0
_CF	=	0x00df
_CR	=	0x00de
_CCF5	=	0x00dd
_CCF4	=	0x00dc
_CCF3	=	0x00db
_CCF2	=	0x00da
_CCF1	=	0x00d9
_CCF0	=	0x00d8
_AD0EN	=	0x00ef
_BURSTEN	=	0x00ee
_AD0INT	=	0x00ed
_AD0BUSY	=	0x00ec
_AD0WINT	=	0x00eb
_AD0CM2	=	0x00ea
_AD0CM1	=	0x00e9
_AD0CM0	=	0x00e8
_SPIF0	=	0x00ff
_WCOL0	=	0x00fe
_MODF0	=	0x00fd
_RXOVRN0	=	0x00fc
_NSS0MD1	=	0x00fb
_NSS0MD0	=	0x00fa
_TXBMT0	=	0x00f9
_SPI0EN	=	0x00f8
_LED_RED	=	0x0096
_LED_GREEN	=	0x0095
_PIN_CONFIG	=	0x0082
_PIN_ENABLE	=	0x0083
_PA_ENABLE	=	0x00a5
_IRQ	=	0x0087
_NSS1	=	0x0094
;--------------------------------------------------------
; overlayable register banks
;--------------------------------------------------------
	.area REG_BANK_0	(REL,OVR,DATA)
	.ds 8
;--------------------------------------------------------
; internal ram data
;--------------------------------------------------------
	.area DSEG    (DATA)
;--------------------------------------------------------
; overlayable items in internal ram 
;--------------------------------------------------------
	.area	OSEG    (OVR,DATA)
_golay_encode24_sloc0_1_0:
	.ds 1
_golay_encode24_sloc1_1_0:
	.ds 2
	.area	OSEG    (OVR,DATA)
_golay_decode24_v_1_139:
	.ds 2
_golay_decode24_syn_1_139:
	.ds 2
_golay_decode24_sloc0_1_0:
	.ds 2
;--------------------------------------------------------
; indirectly addressable internal ram data
;--------------------------------------------------------
	.area ISEG    (DATA)
;--------------------------------------------------------
; absolute internal ram data
;--------------------------------------------------------
	.area IABS    (ABS,DATA)
	.area IABS    (ABS,DATA)
;--------------------------------------------------------
; bit data
;--------------------------------------------------------
	.area BSEG    (BIT)
;--------------------------------------------------------
; paged external ram data
;--------------------------------------------------------
	.area PSEG    (PAG,XDATA)
_g3:
	.ds 3
_g6:
	.ds 6
_golay_encode_PARM_2:
	.ds 2
_golay_encode_PARM_3:
	.ds 2
_golay_decode_PARM_2:
	.ds 2
_golay_decode_PARM_3:
	.ds 2
_golay_decode_errcount_1_143:
	.ds 1
;--------------------------------------------------------
; external ram data
;--------------------------------------------------------
	.area XSEG    (XDATA)
;--------------------------------------------------------
; absolute external ram data
;--------------------------------------------------------
	.area XABS    (ABS,XDATA)
;--------------------------------------------------------
; external initialized ram data
;--------------------------------------------------------
	.area XISEG   (XDATA)
	.area HOME    (CODE)
	.area GSINIT0 (CODE)
	.area GSINIT1 (CODE)
	.area GSINIT2 (CODE)
	.area GSINIT3 (CODE)
	.area GSINIT4 (CODE)
	.area GSINIT5 (CODE)
	.area GSINIT  (CODE)
	.area GSFINAL (CODE)
	.area CSEG    (CODE)
;--------------------------------------------------------
; global & static initialisations
;--------------------------------------------------------
	.area HOME    (CODE)
	.area GSINIT  (CODE)
	.area GSFINAL (CODE)
	.area GSINIT  (CODE)
;--------------------------------------------------------
; Home
;--------------------------------------------------------
	.area HOME    (CODE)
	.area HOME    (CODE)
;--------------------------------------------------------
; code
;--------------------------------------------------------
	.area CSEG    (CODE)
;------------------------------------------------------------
;Allocation info for local variables in function 'golay_encode24'
;------------------------------------------------------------
;sloc0                     Allocated with name '_golay_encode24_sloc0_1_0'
;sloc1                     Allocated with name '_golay_encode24_sloc1_1_0'
;------------------------------------------------------------
;	radio/golay.c:49: golay_encode24(void)
;	-----------------------------------------
;	 function golay_encode24
;	-----------------------------------------
_golay_encode24:
	ar7 = 0x07
	ar6 = 0x06
	ar5 = 0x05
	ar4 = 0x04
	ar3 = 0x03
	ar2 = 0x02
	ar1 = 0x01
	ar0 = 0x00
;	radio/golay.c:54: v = g3[0] | ((uint16_t)g3[1] & 0x0F) << 8;
	mov	r0,#_g3
	movx	a,@r0
	mov	r7,a
	mov	r0,#(_g3 + 0x0001)
	movx	a,@r0
	mov	r6,a
	anl	ar6,#0x0F
	mov	ar5,r6
	clr	a
	mov	r6,a
	mov	r4,a
	mov	a,r7
	orl	ar6,a
	mov	a,r4
	orl	ar5,a
;	radio/golay.c:55: syn = golay23_encode[v];
	mov	ar4,r6
	mov	a,r5
	xch	a,r4
	add	a,acc
	xch	a,r4
	rlc	a
	mov	r7,a
	mov	a,r4
	add	a,#_golay23_encode
	mov	dpl,a
	mov	a,r7
	addc	a,#(_golay23_encode >> 8)
	mov	dph,a
	clr	a
	movc	a,@a+dptr
	mov	r4,a
	inc	dptr
	clr	a
	movc	a,@a+dptr
	mov	r7,a
;	radio/golay.c:56: g6[0] = syn & 0xFF;
	mov	ar2,r4
	mov	r0,#_g6
	mov	a,r2
	movx	@r0,a
;	radio/golay.c:57: g6[1] = (g3[0] & 0x1F) << 3 | syn >> 8;
	mov	r0,#_g3
	movx	a,@r0
	anl	a,#0x1F
	swap	a
	rr	a
	anl	a,#0xF8
	mov	r3,a
	mov	ar2,r7
	mov	a,r2
	orl	a,r3
	mov	r0,#(_g6 + 0x0001)
	movx	@r0,a
;	radio/golay.c:58: g6[2] = (g3[0] & 0xE0) >> 5 | (g3[1] & 0x0F) << 3;
	mov	r0,#_g3
	movx	a,@r0
	anl	a,#0xE0
	swap	a
	rr	a
	anl	a,#0x07
	mov	r3,a
	mov	r0,#(_g3 + 0x0001)
	movx	a,@r0
	anl	a,#0x0F
	swap	a
	rr	a
	anl	a,#0xF8
	orl	a,r3
	mov	r0,#(_g6 + 0x0002)
	movx	@r0,a
;	radio/golay.c:60: v = g3[2] | ((uint16_t)g3[1] & 0xF0) << 4;
	mov	r0,#(_g3 + 0x0002)
	movx	a,@r0
	mov	_golay_encode24_sloc0_1_0,a
	mov	r0,#(_g3 + 0x0001)
	movx	a,@r0
	mov	r2,a
	anl	ar2,#0xF0
	mov	r3,#0x00
	mov	_golay_encode24_sloc1_1_0,r2
	mov	a,r3
	swap	a
	anl	a,#0xF0
	xch	a,_golay_encode24_sloc1_1_0
	swap	a
	xch	a,_golay_encode24_sloc1_1_0
	xrl	a,_golay_encode24_sloc1_1_0
	xch	a,_golay_encode24_sloc1_1_0
	anl	a,#0xF0
	xch	a,_golay_encode24_sloc1_1_0
	xrl	a,_golay_encode24_sloc1_1_0
	mov	(_golay_encode24_sloc1_1_0 + 1),a
	mov	r2,_golay_encode24_sloc0_1_0
	mov	r3,#0x00
	mov	a,_golay_encode24_sloc1_1_0
	orl	a,r2
	mov	r6,a
	mov	a,(_golay_encode24_sloc1_1_0 + 1)
	orl	a,r3
;	radio/golay.c:61: syn = golay23_encode[v];
	xch	a,r6
	add	a,acc
	xch	a,r6
	rlc	a
	mov	r5,a
	mov	a,r6
	add	a,#_golay23_encode
	mov	dpl,a
	mov	a,r5
	addc	a,#(_golay23_encode >> 8)
	mov	dph,a
	clr	a
	movc	a,@a+dptr
	mov	r4,a
	inc	dptr
	clr	a
	movc	a,@a+dptr
	mov	r7,a
;	radio/golay.c:62: g6[3] = syn & 0xFF;
	mov	ar5,r4
	mov	r0,#(_g6 + 0x0003)
	mov	a,r5
	movx	@r0,a
;	radio/golay.c:63: g6[4] = (g3[2] & 0x1F) << 3 | syn >> 8;
	mov	r0,#(_g3 + 0x0002)
	movx	a,@r0
	anl	a,#0x1F
	swap	a
	rr	a
	anl	a,#0xF8
	mov	r6,a
	mov	ar4,r7
	mov	a,r4
	orl	a,r6
	mov	r0,#(_g6 + 0x0004)
	movx	@r0,a
;	radio/golay.c:64: g6[5] = (g3[2] & 0xE0) >> 5 | (g3[1] & 0xF0) >> 1;
	mov	r0,#(_g3 + 0x0002)
	movx	a,@r0
	anl	a,#0xE0
	swap	a
	rr	a
	anl	a,#0x07
	mov	r7,a
	mov	r0,#(_g3 + 0x0001)
	movx	a,@r0
	anl	a,#0xF0
	clr	c
	rrc	a
	orl	a,r7
	mov	r0,#(_g6 + 0x0005)
	movx	@r0,a
	ret
;------------------------------------------------------------
;Allocation info for local variables in function 'golay_encode'
;------------------------------------------------------------
;	radio/golay.c:70: golay_encode(__pdata uint8_t n, __xdata uint8_t * __pdata in, __xdata uint8_t * __pdata out)
;	-----------------------------------------
;	 function golay_encode
;	-----------------------------------------
_golay_encode:
	mov	r7,dpl
;	radio/golay.c:72: while (n >= 3) {
	mov	r0,#_golay_encode_PARM_2
	movx	a,@r0
	mov	r5,a
	inc	r0
	movx	a,@r0
	mov	r6,a
	mov	r0,#_golay_encode_PARM_3
	movx	a,@r0
	mov	r3,a
	inc	r0
	movx	a,@r0
	mov	r4,a
00101$:
	cjne	r7,#0x03,00113$
00113$:
	jnc	00114$
	ret
00114$:
;	radio/golay.c:73: g3[0] = in[0]; g3[1] = in[1]; g3[2] = in[2];
	mov	dpl,r5
	mov	dph,r6
	movx	a,@dptr
	mov	r2,a
	mov	r0,#_g3
	mov	a,r2
	movx	@r0,a
	mov	dpl,r5
	mov	dph,r6
	inc	dptr
	movx	a,@dptr
	mov	r2,a
	mov	r0,#(_g3 + 0x0001)
	mov	a,r2
	movx	@r0,a
	mov	dpl,r5
	mov	dph,r6
	inc	dptr
	inc	dptr
	movx	a,@dptr
	mov	r2,a
	mov	r0,#(_g3 + 0x0002)
	mov	a,r2
	movx	@r0,a
;	radio/golay.c:74: golay_encode24();
	push	ar7
	push	ar6
	push	ar5
	push	ar4
	push	ar3
	lcall	_golay_encode24
	pop	ar3
	pop	ar4
	pop	ar5
	pop	ar6
	pop	ar7
;	radio/golay.c:75: out[0] = g6[0]; out[1] = g6[1]; out[2] = g6[2]; 
	mov	r0,#_g6
	movx	a,@r0
	mov	dpl,r3
	mov	dph,r4
	movx	@dptr,a
	mov	dpl,r3
	mov	dph,r4
	inc	dptr
	mov	r0,#(_g6 + 0x0001)
	movx	a,@r0
	movx	@dptr,a
	mov	dpl,r3
	mov	dph,r4
	inc	dptr
	inc	dptr
	mov	r0,#(_g6 + 0x0002)
	movx	a,@r0
	movx	@dptr,a
;	radio/golay.c:76: out[3] = g6[3]; out[4] = g6[4]; out[5] = g6[5]; 
	mov	dpl,r3
	mov	dph,r4
	inc	dptr
	inc	dptr
	inc	dptr
	mov	r0,#(_g6 + 0x0003)
	movx	a,@r0
	movx	@dptr,a
	mov	dpl,r3
	mov	dph,r4
	inc	dptr
	inc	dptr
	inc	dptr
	inc	dptr
	mov	r0,#(_g6 + 0x0004)
	movx	a,@r0
	movx	@dptr,a
	mov	dpl,r3
	mov	dph,r4
	inc	dptr
	inc	dptr
	inc	dptr
	inc	dptr
	inc	dptr
	mov	r0,#(_g6 + 0x0005)
	movx	a,@r0
	mov	r2,a
	movx	@dptr,a
;	radio/golay.c:77: in += 3;
	mov	a,#0x03
	add	a,r5
	mov	r5,a
	clr	a
	addc	a,r6
	mov	r6,a
;	radio/golay.c:78: out += 6;
	mov	a,#0x06
	add	a,r3
	mov	r3,a
	clr	a
	addc	a,r4
	mov	r4,a
;	radio/golay.c:79: n -= 3;
	dec	r7
	dec	r7
	dec	r7
	ljmp	00101$
;------------------------------------------------------------
;Allocation info for local variables in function 'golay_decode24'
;------------------------------------------------------------
;v                         Allocated with name '_golay_decode24_v_1_139'
;syn                       Allocated with name '_golay_decode24_syn_1_139'
;e                         Allocated to registers r5 r6 
;sloc0                     Allocated with name '_golay_decode24_sloc0_1_0'
;------------------------------------------------------------
;	radio/golay.c:87: golay_decode24(void)
;	-----------------------------------------
;	 function golay_decode24
;	-----------------------------------------
_golay_decode24:
;	radio/golay.c:92: __pdata uint8_t errcount = 0;
	mov	r7,#0x00
;	radio/golay.c:94: v = (g6[2] & 0x7F) << 5 | (g6[1] & 0xF8) >> 3;
	mov	r0,#(_g6 + 0x0002)
	movx	a,@r0
	mov	r6,a
	anl	ar6,#0x7F
	clr	a
	rl	a
	anl	a,#0xE0
	xch	a,r6
	swap	a
	rl	a
	xch	a,r6
	xrl	a,r6
	xch	a,r6
	anl	a,#0xE0
	xch	a,r6
	xrl	a,r6
	mov	r5,a
	mov	r0,#(_g6 + 0x0001)
	movx	a,@r0
	mov	r4,a
	mov	a,#0xF8
	anl	a,r4
	swap	a
	rl	a
	anl	a,#0x1F
	mov	r2,#0x00
	orl	a,r6
	mov	_golay_decode24_v_1_139,a
	mov	a,r2
	orl	a,r5
;	radio/golay.c:95: syn = golay23_encode[v];
	mov	(_golay_decode24_v_1_139 + 1),a
	mov	r2,_golay_decode24_v_1_139
	xch	a,r2
	add	a,acc
	xch	a,r2
	rlc	a
	mov	r3,a
	mov	a,r2
	add	a,#_golay23_encode
	mov	dpl,a
	mov	a,r3
	addc	a,#(_golay23_encode >> 8)
	mov	dph,a
	clr	a
	movc	a,@a+dptr
	mov	_golay_decode24_syn_1_139,a
	inc	dptr
	clr	a
	movc	a,@a+dptr
	mov	(_golay_decode24_syn_1_139 + 1),a
;	radio/golay.c:96: syn ^= g6[0] | (g6[1] & 0x07) << 8;
	mov	r0,#_g6
	movx	a,@r0
	mov	r3,a
	anl	ar4,#0x07
	mov	ar2,r4
	clr	a
	mov	r4,a
	mov	r6,a
	mov	a,r3
	orl	ar4,a
	mov	a,r6
	orl	ar2,a
	mov	a,r4
	xrl	_golay_decode24_syn_1_139,a
	mov	a,r2
	xrl	(_golay_decode24_syn_1_139 + 1),a
;	radio/golay.c:97: e = golay23_decode[syn];
	mov	a,_golay_decode24_syn_1_139
	add	a,_golay_decode24_syn_1_139
	mov	r5,a
	mov	a,(_golay_decode24_syn_1_139 + 1)
	rlc	a
	mov	r6,a
	mov	a,r5
	add	a,#_golay23_decode
	mov	dpl,a
	mov	a,r6
	addc	a,#(_golay23_decode >> 8)
	mov	dph,a
	clr	a
	movc	a,@a+dptr
	mov	r5,a
	inc	dptr
	clr	a
	movc	a,@a+dptr
;	radio/golay.c:98: if (e) {
	mov	r6,a
	orl	a,r5
	jz	00102$
;	radio/golay.c:99: errcount++;
	mov	r7,#0x01
;	radio/golay.c:100: v ^= e;
	mov	a,r5
	xrl	_golay_decode24_v_1_139,a
	mov	a,r6
	xrl	(_golay_decode24_v_1_139 + 1),a
00102$:
;	radio/golay.c:102: g3[0] = v & 0xFF;
	push	ar7
	mov	r3,_golay_decode24_v_1_139
	mov	r0,#_g3
	mov	a,r3
	movx	@r0,a
;	radio/golay.c:103: g3[1] = v >> 8;
	mov	r4,(_golay_decode24_v_1_139 + 1)
	mov	r0,#(_g3 + 0x0001)
	mov	a,r4
	movx	@r0,a
;	radio/golay.c:105: v = (g6[5] & 0x7F) << 5 | (g6[4] & 0xF8) >> 3;
	mov	r0,#(_g6 + 0x0005)
	movx	a,@r0
	mov	r4,a
	anl	ar4,#0x7F
	mov	r3,#0x00
	mov	_golay_decode24_sloc0_1_0,r4
	mov	a,r3
	swap	a
	rl	a
	anl	a,#0xE0
	xch	a,_golay_decode24_sloc0_1_0
	swap	a
	rl	a
	xch	a,_golay_decode24_sloc0_1_0
	xrl	a,_golay_decode24_sloc0_1_0
	xch	a,_golay_decode24_sloc0_1_0
	anl	a,#0xE0
	xch	a,_golay_decode24_sloc0_1_0
	xrl	a,_golay_decode24_sloc0_1_0
	mov	(_golay_decode24_sloc0_1_0 + 1),a
	mov	r0,#(_g6 + 0x0004)
	movx	a,@r0
	mov	r2,a
	mov	a,#0xF8
	anl	a,r2
	swap	a
	rl	a
	anl	a,#0x1F
	mov	r7,#0x00
	orl	a,_golay_decode24_sloc0_1_0
	mov	_golay_decode24_v_1_139,a
	mov	a,r7
	orl	a,(_golay_decode24_sloc0_1_0 + 1)
;	radio/golay.c:106: syn = golay23_encode[v];
	mov	(_golay_decode24_v_1_139 + 1),a
	mov	r4,_golay_decode24_v_1_139
	xch	a,r4
	add	a,acc
	xch	a,r4
	rlc	a
	mov	r7,a
	mov	a,r4
	add	a,#_golay23_encode
	mov	dpl,a
	mov	a,r7
	addc	a,#(_golay23_encode >> 8)
	mov	dph,a
	clr	a
	movc	a,@a+dptr
	mov	_golay_decode24_syn_1_139,a
	inc	dptr
	clr	a
	movc	a,@a+dptr
	mov	(_golay_decode24_syn_1_139 + 1),a
;	radio/golay.c:107: syn ^= g6[3] | (g6[4] & 0x07) << 8;
	mov	r0,#(_g6 + 0x0003)
	movx	a,@r0
	mov	r7,a
	anl	ar2,#0x07
	mov	ar4,r2
	clr	a
	mov	r2,a
	mov	r3,a
	mov	a,r7
	orl	ar2,a
	mov	a,r3
	orl	ar4,a
	mov	a,r2
	xrl	_golay_decode24_syn_1_139,a
	mov	a,r4
	xrl	(_golay_decode24_syn_1_139 + 1),a
;	radio/golay.c:108: e = golay23_decode[syn];
	mov	a,_golay_decode24_syn_1_139
	add	a,_golay_decode24_syn_1_139
	mov	r4,a
	mov	a,(_golay_decode24_syn_1_139 + 1)
	rlc	a
	mov	r7,a
	mov	a,r4
	add	a,#_golay23_decode
	mov	dpl,a
	mov	a,r7
	addc	a,#(_golay23_decode >> 8)
	mov	dph,a
	clr	a
	movc	a,@a+dptr
	mov	r5,a
	inc	dptr
	clr	a
	movc	a,@a+dptr
	mov	r6,a
;	radio/golay.c:109: if (e) {
	pop	ar7
	mov	a,r5
	orl	a,r6
	jz	00104$
;	radio/golay.c:110: errcount++;
	inc	r7
;	radio/golay.c:111: v ^= e;
	mov	a,r5
	xrl	_golay_decode24_v_1_139,a
	mov	a,r6
	xrl	(_golay_decode24_v_1_139 + 1),a
00104$:
;	radio/golay.c:113: g3[1] |= (v >> 4) & 0xF0;
	mov	r0,#(_g3 + 0x0001)
	movx	a,@r0
	mov	r6,a
	mov	r4,_golay_decode24_v_1_139
	mov	a,(_golay_decode24_v_1_139 + 1)
	swap	a
	xch	a,r4
	swap	a
	anl	a,#0x0F
	xrl	a,r4
	xch	a,r4
	anl	a,#0x0F
	xch	a,r4
	xrl	a,r4
	xch	a,r4
	anl	ar4,#0xF0
	clr	a
	mov	r5,a
	mov	r3,a
	mov	a,r6
	orl	ar4,a
	mov	a,r3
	orl	ar5,a
	mov	r0,#(_g3 + 0x0001)
	mov	a,r4
	movx	@r0,a
;	radio/golay.c:114: g3[2] = v & 0xFF;
	mov	r5,_golay_decode24_v_1_139
	mov	r0,#(_g3 + 0x0002)
	mov	a,r5
	movx	@r0,a
;	radio/golay.c:116: return errcount;
	mov	dpl,r7
	ret
;------------------------------------------------------------
;Allocation info for local variables in function 'golay_decode'
;------------------------------------------------------------
;	radio/golay.c:124: golay_decode(__pdata uint8_t n, __xdata uint8_t * __pdata in, __xdata uint8_t * __pdata out)
;	-----------------------------------------
;	 function golay_decode
;	-----------------------------------------
_golay_decode:
	mov	r7,dpl
;	radio/golay.c:126: __pdata uint8_t errcount = 0;
	mov	r0,#_golay_decode_errcount_1_143
	clr	a
	movx	@r0,a
;	radio/golay.c:127: while (n >= 6) {
	mov	r0,#_golay_decode_PARM_2
	movx	a,@r0
	mov	r4,a
	inc	r0
	movx	a,@r0
	mov	r5,a
	mov	r0,#_golay_decode_PARM_3
	movx	a,@r0
	mov	r2,a
	inc	r0
	movx	a,@r0
	mov	r3,a
00101$:
	cjne	r7,#0x06,00113$
00113$:
	jnc	00114$
	ljmp	00103$
00114$:
;	radio/golay.c:128: g6[0] = in[0]; g6[1] = in[1]; g6[2] = in[2];
	mov	dpl,r4
	mov	dph,r5
	movx	a,@dptr
	mov	r6,a
	mov	r0,#_g6
	mov	a,r6
	movx	@r0,a
	mov	dpl,r4
	mov	dph,r5
	inc	dptr
	movx	a,@dptr
	mov	r6,a
	mov	r0,#(_g6 + 0x0001)
	mov	a,r6
	movx	@r0,a
	mov	dpl,r4
	mov	dph,r5
	inc	dptr
	inc	dptr
	movx	a,@dptr
	mov	r6,a
	mov	r0,#(_g6 + 0x0002)
	mov	a,r6
	movx	@r0,a
;	radio/golay.c:129: g6[3] = in[3]; g6[4] = in[4]; g6[5] = in[5];
	mov	dpl,r4
	mov	dph,r5
	inc	dptr
	inc	dptr
	inc	dptr
	movx	a,@dptr
	mov	r6,a
	mov	r0,#(_g6 + 0x0003)
	mov	a,r6
	movx	@r0,a
	mov	dpl,r4
	mov	dph,r5
	inc	dptr
	inc	dptr
	inc	dptr
	inc	dptr
	movx	a,@dptr
	mov	r6,a
	mov	r0,#(_g6 + 0x0004)
	mov	a,r6
	movx	@r0,a
	mov	dpl,r4
	mov	dph,r5
	inc	dptr
	inc	dptr
	inc	dptr
	inc	dptr
	inc	dptr
	movx	a,@dptr
	mov	r6,a
	mov	r0,#(_g6 + 0x0005)
	mov	a,r6
	movx	@r0,a
;	radio/golay.c:130: errcount += golay_decode24();
	push	ar7
	push	ar5
	push	ar4
	push	ar3
	push	ar2
	lcall	_golay_decode24
	mov	r6,dpl
	pop	ar2
	pop	ar3
	pop	ar4
	pop	ar5
	pop	ar7
	mov	r0,#_golay_decode_errcount_1_143
	movx	a,@r0
	add	a,r6
	movx	@r0,a
;	radio/golay.c:131: out[0] = g3[0]; out[1] = g3[1]; out[2] = g3[2];
	mov	r0,#_g3
	movx	a,@r0
	mov	dpl,r2
	mov	dph,r3
	movx	@dptr,a
	mov	dpl,r2
	mov	dph,r3
	inc	dptr
	mov	r0,#(_g3 + 0x0001)
	movx	a,@r0
	movx	@dptr,a
	mov	dpl,r2
	mov	dph,r3
	inc	dptr
	inc	dptr
	mov	r0,#(_g3 + 0x0002)
	movx	a,@r0
	mov	r6,a
	movx	@dptr,a
;	radio/golay.c:132: in += 6;
	mov	a,#0x06
	add	a,r4
	mov	r4,a
	clr	a
	addc	a,r5
	mov	r5,a
;	radio/golay.c:133: out += 3;
	mov	a,#0x03
	add	a,r2
	mov	r2,a
	clr	a
	addc	a,r3
	mov	r3,a
;	radio/golay.c:134: n -= 6;
	mov	a,r7
	add	a,#0xFA
	mov	r7,a
	ljmp	00101$
00103$:
;	radio/golay.c:136: return errcount;
	mov	r0,#_golay_decode_errcount_1_143
	movx	a,@r0
	mov	dpl,a
	ret
	.area CSEG    (CODE)
	.area CONST   (CODE)
_golay23_encode:
	.byte #0x00,#0x00	; 0
	.byte #0x75,#0x04	; 1141
	.byte #0x9F,#0x04	; 1183
	.byte #0xEA,#0x00	; 234
	.byte #0x4B,#0x05	; 1355
	.byte #0x3E,#0x01	; 318
	.byte #0xD4,#0x01	; 468
	.byte #0xA1,#0x05	; 1441
	.byte #0xE3,#0x06	; 1763
	.byte #0x96,#0x02	; 662
	.byte #0x7C,#0x02	; 636
	.byte #0x09,#0x06	; 1545
	.byte #0xA8,#0x03	; 936
	.byte #0xDD,#0x07	; 2013
	.byte #0x37,#0x07	; 1847
	.byte #0x42,#0x03	; 834
	.byte #0xB3,#0x01	; 435
	.byte #0xC6,#0x05	; 1478
	.byte #0x2C,#0x05	; 1324
	.byte #0x59,#0x01	; 345
	.byte #0xF8,#0x04	; 1272
	.byte #0x8D,#0x00	; 141
	.byte #0x67,#0x00	; 103
	.byte #0x12,#0x04	; 1042
	.byte #0x50,#0x07	; 1872
	.byte #0x25,#0x03	; 805
	.byte #0xCF,#0x03	; 975
	.byte #0xBA,#0x07	; 1978
	.byte #0x1B,#0x02	; 539
	.byte #0x6E,#0x06	; 1646
	.byte #0x84,#0x06	; 1668
	.byte #0xF1,#0x02	; 753
	.byte #0x66,#0x03	; 870
	.byte #0x13,#0x07	; 1811
	.byte #0xF9,#0x07	; 2041
	.byte #0x8C,#0x03	; 908
	.byte #0x2D,#0x06	; 1581
	.byte #0x58,#0x02	; 600
	.byte #0xB2,#0x02	; 690
	.byte #0xC7,#0x06	; 1735
	.byte #0x85,#0x05	; 1413
	.byte #0xF0,#0x01	; 496
	.byte #0x1A,#0x01	; 282
	.byte #0x6F,#0x05	; 1391
	.byte #0xCE,#0x00	; 206
	.byte #0xBB,#0x04	; 1211
	.byte #0x51,#0x04	; 1105
	.byte #0x24,#0x00	; 36
	.byte #0xD5,#0x02	; 725
	.byte #0xA0,#0x06	; 1696
	.byte #0x4A,#0x06	; 1610
	.byte #0x3F,#0x02	; 575
	.byte #0x9E,#0x07	; 1950
	.byte #0xEB,#0x03	; 1003
	.byte #0x01,#0x03	; 769
	.byte #0x74,#0x07	; 1908
	.byte #0x36,#0x04	; 1078
	.byte #0x43,#0x00	; 67
	.byte #0xA9,#0x00	; 169
	.byte #0xDC,#0x04	; 1244
	.byte #0x7D,#0x01	; 381
	.byte #0x08,#0x05	; 1288
	.byte #0xE2,#0x05	; 1506
	.byte #0x97,#0x01	; 407
	.byte #0xCC,#0x06	; 1740
	.byte #0xB9,#0x02	; 697
	.byte #0x53,#0x02	; 595
	.byte #0x26,#0x06	; 1574
	.byte #0x87,#0x03	; 903
	.byte #0xF2,#0x07	; 2034
	.byte #0x18,#0x07	; 1816
	.byte #0x6D,#0x03	; 877
	.byte #0x2F,#0x00	; 47
	.byte #0x5A,#0x04	; 1114
	.byte #0xB0,#0x04	; 1200
	.byte #0xC5,#0x00	; 197
	.byte #0x64,#0x05	; 1380
	.byte #0x11,#0x01	; 273
	.byte #0xFB,#0x01	; 507
	.byte #0x8E,#0x05	; 1422
	.byte #0x7F,#0x07	; 1919
	.byte #0x0A,#0x03	; 778
	.byte #0xE0,#0x03	; 992
	.byte #0x95,#0x07	; 1941
	.byte #0x34,#0x02	; 564
	.byte #0x41,#0x06	; 1601
	.byte #0xAB,#0x06	; 1707
	.byte #0xDE,#0x02	; 734
	.byte #0x9C,#0x01	; 412
	.byte #0xE9,#0x05	; 1513
	.byte #0x03,#0x05	; 1283
	.byte #0x76,#0x01	; 374
	.byte #0xD7,#0x04	; 1239
	.byte #0xA2,#0x00	; 162
	.byte #0x48,#0x00	; 72
	.byte #0x3D,#0x04	; 1085
	.byte #0xAA,#0x05	; 1450
	.byte #0xDF,#0x01	; 479
	.byte #0x35,#0x01	; 309
	.byte #0x40,#0x05	; 1344
	.byte #0xE1,#0x00	; 225
	.byte #0x94,#0x04	; 1172
	.byte #0x7E,#0x04	; 1150
	.byte #0x0B,#0x00	; 11
	.byte #0x49,#0x03	; 841
	.byte #0x3C,#0x07	; 1852
	.byte #0xD6,#0x07	; 2006
	.byte #0xA3,#0x03	; 931
	.byte #0x02,#0x06	; 1538
	.byte #0x77,#0x02	; 631
	.byte #0x9D,#0x02	; 669
	.byte #0xE8,#0x06	; 1768
	.byte #0x19,#0x04	; 1049
	.byte #0x6C,#0x00	; 108
	.byte #0x86,#0x00	; 134
	.byte #0xF3,#0x04	; 1267
	.byte #0x52,#0x01	; 338
	.byte #0x27,#0x05	; 1319
	.byte #0xCD,#0x05	; 1485
	.byte #0xB8,#0x01	; 440
	.byte #0xFA,#0x02	; 762
	.byte #0x8F,#0x06	; 1679
	.byte #0x65,#0x06	; 1637
	.byte #0x10,#0x02	; 528
	.byte #0xB1,#0x07	; 1969
	.byte #0xC4,#0x03	; 964
	.byte #0x2E,#0x03	; 814
	.byte #0x5B,#0x07	; 1883
	.byte #0xED,#0x01	; 493
	.byte #0x98,#0x05	; 1432
	.byte #0x72,#0x05	; 1394
	.byte #0x07,#0x01	; 263
	.byte #0xA6,#0x04	; 1190
	.byte #0xD3,#0x00	; 211
	.byte #0x39,#0x00	; 57
	.byte #0x4C,#0x04	; 1100
	.byte #0x0E,#0x07	; 1806
	.byte #0x7B,#0x03	; 891
	.byte #0x91,#0x03	; 913
	.byte #0xE4,#0x07	; 2020
	.byte #0x45,#0x02	; 581
	.byte #0x30,#0x06	; 1584
	.byte #0xDA,#0x06	; 1754
	.byte #0xAF,#0x02	; 687
	.byte #0x5E,#0x00	; 94
	.byte #0x2B,#0x04	; 1067
	.byte #0xC1,#0x04	; 1217
	.byte #0xB4,#0x00	; 180
	.byte #0x15,#0x05	; 1301
	.byte #0x60,#0x01	; 352
	.byte #0x8A,#0x01	; 394
	.byte #0xFF,#0x05	; 1535
	.byte #0xBD,#0x06	; 1725
	.byte #0xC8,#0x02	; 712
	.byte #0x22,#0x02	; 546
	.byte #0x57,#0x06	; 1623
	.byte #0xF6,#0x03	; 1014
	.byte #0x83,#0x07	; 1923
	.byte #0x69,#0x07	; 1897
	.byte #0x1C,#0x03	; 796
	.byte #0x8B,#0x02	; 651
	.byte #0xFE,#0x06	; 1790
	.byte #0x14,#0x06	; 1556
	.byte #0x61,#0x02	; 609
	.byte #0xC0,#0x07	; 1984
	.byte #0xB5,#0x03	; 949
	.byte #0x5F,#0x03	; 863
	.byte #0x2A,#0x07	; 1834
	.byte #0x68,#0x04	; 1128
	.byte #0x1D,#0x00	; 29
	.byte #0xF7,#0x00	; 247
	.byte #0x82,#0x04	; 1154
	.byte #0x23,#0x01	; 291
	.byte #0x56,#0x05	; 1366
	.byte #0xBC,#0x05	; 1468
	.byte #0xC9,#0x01	; 457
	.byte #0x38,#0x03	; 824
	.byte #0x4D,#0x07	; 1869
	.byte #0xA7,#0x07	; 1959
	.byte #0xD2,#0x03	; 978
	.byte #0x73,#0x06	; 1651
	.byte #0x06,#0x02	; 518
	.byte #0xEC,#0x02	; 748
	.byte #0x99,#0x06	; 1689
	.byte #0xDB,#0x05	; 1499
	.byte #0xAE,#0x01	; 430
	.byte #0x44,#0x01	; 324
	.byte #0x31,#0x05	; 1329
	.byte #0x90,#0x00	; 144
	.byte #0xE5,#0x04	; 1253
	.byte #0x0F,#0x04	; 1039
	.byte #0x7A,#0x00	; 122
	.byte #0x21,#0x07	; 1825
	.byte #0x54,#0x03	; 852
	.byte #0xBE,#0x03	; 958
	.byte #0xCB,#0x07	; 1995
	.byte #0x6A,#0x02	; 618
	.byte #0x1F,#0x06	; 1567
	.byte #0xF5,#0x06	; 1781
	.byte #0x80,#0x02	; 640
	.byte #0xC2,#0x01	; 450
	.byte #0xB7,#0x05	; 1463
	.byte #0x5D,#0x05	; 1373
	.byte #0x28,#0x01	; 296
	.byte #0x89,#0x04	; 1161
	.byte #0xFC,#0x00	; 252
	.byte #0x16,#0x00	; 22
	.byte #0x63,#0x04	; 1123
	.byte #0x92,#0x06	; 1682
	.byte #0xE7,#0x02	; 743
	.byte #0x0D,#0x02	; 525
	.byte #0x78,#0x06	; 1656
	.byte #0xD9,#0x03	; 985
	.byte #0xAC,#0x07	; 1964
	.byte #0x46,#0x07	; 1862
	.byte #0x33,#0x03	; 819
	.byte #0x71,#0x00	; 113
	.byte #0x04,#0x04	; 1028
	.byte #0xEE,#0x04	; 1262
	.byte #0x9B,#0x00	; 155
	.byte #0x3A,#0x05	; 1338
	.byte #0x4F,#0x01	; 335
	.byte #0xA5,#0x01	; 421
	.byte #0xD0,#0x05	; 1488
	.byte #0x47,#0x04	; 1095
	.byte #0x32,#0x00	; 50
	.byte #0xD8,#0x00	; 216
	.byte #0xAD,#0x04	; 1197
	.byte #0x0C,#0x01	; 268
	.byte #0x79,#0x05	; 1401
	.byte #0x93,#0x05	; 1427
	.byte #0xE6,#0x01	; 486
	.byte #0xA4,#0x02	; 676
	.byte #0xD1,#0x06	; 1745
	.byte #0x3B,#0x06	; 1595
	.byte #0x4E,#0x02	; 590
	.byte #0xEF,#0x07	; 2031
	.byte #0x9A,#0x03	; 922
	.byte #0x70,#0x03	; 880
	.byte #0x05,#0x07	; 1797
	.byte #0xF4,#0x05	; 1524
	.byte #0x81,#0x01	; 385
	.byte #0x6B,#0x01	; 363
	.byte #0x1E,#0x05	; 1310
	.byte #0xBF,#0x00	; 191
	.byte #0xCA,#0x04	; 1226
	.byte #0x20,#0x04	; 1056
	.byte #0x55,#0x00	; 85
	.byte #0x17,#0x03	; 791
	.byte #0x62,#0x07	; 1890
	.byte #0x88,#0x07	; 1928
	.byte #0xFD,#0x03	; 1021
	.byte #0x5C,#0x06	; 1628
	.byte #0x29,#0x02	; 553
	.byte #0xC3,#0x02	; 707
	.byte #0xB6,#0x06	; 1718
	.byte #0xDA,#0x03	; 986
	.byte #0xAF,#0x07	; 1967
	.byte #0x45,#0x07	; 1861
	.byte #0x30,#0x03	; 816
	.byte #0x91,#0x06	; 1681
	.byte #0xE4,#0x02	; 740
	.byte #0x0E,#0x02	; 526
	.byte #0x7B,#0x06	; 1659
	.byte #0x39,#0x05	; 1337
	.byte #0x4C,#0x01	; 332
	.byte #0xA6,#0x01	; 422
	.byte #0xD3,#0x05	; 1491
	.byte #0x72,#0x00	; 114
	.byte #0x07,#0x04	; 1031
	.byte #0xED,#0x04	; 1261
	.byte #0x98,#0x00	; 152
	.byte #0x69,#0x02	; 617
	.byte #0x1C,#0x06	; 1564
	.byte #0xF6,#0x06	; 1782
	.byte #0x83,#0x02	; 643
	.byte #0x22,#0x07	; 1826
	.byte #0x57,#0x03	; 855
	.byte #0xBD,#0x03	; 957
	.byte #0xC8,#0x07	; 1992
	.byte #0x8A,#0x04	; 1162
	.byte #0xFF,#0x00	; 255
	.byte #0x15,#0x00	; 21
	.byte #0x60,#0x04	; 1120
	.byte #0xC1,#0x01	; 449
	.byte #0xB4,#0x05	; 1460
	.byte #0x5E,#0x05	; 1374
	.byte #0x2B,#0x01	; 299
	.byte #0xBC,#0x00	; 188
	.byte #0xC9,#0x04	; 1225
	.byte #0x23,#0x04	; 1059
	.byte #0x56,#0x00	; 86
	.byte #0xF7,#0x05	; 1527
	.byte #0x82,#0x01	; 386
	.byte #0x68,#0x01	; 360
	.byte #0x1D,#0x05	; 1309
	.byte #0x5F,#0x06	; 1631
	.byte #0x2A,#0x02	; 554
	.byte #0xC0,#0x02	; 704
	.byte #0xB5,#0x06	; 1717
	.byte #0x14,#0x03	; 788
	.byte #0x61,#0x07	; 1889
	.byte #0x8B,#0x07	; 1931
	.byte #0xFE,#0x03	; 1022
	.byte #0x0F,#0x01	; 271
	.byte #0x7A,#0x05	; 1402
	.byte #0x90,#0x05	; 1424
	.byte #0xE5,#0x01	; 485
	.byte #0x44,#0x04	; 1092
	.byte #0x31,#0x00	; 49
	.byte #0xDB,#0x00	; 219
	.byte #0xAE,#0x04	; 1198
	.byte #0xEC,#0x07	; 2028
	.byte #0x99,#0x03	; 921
	.byte #0x73,#0x03	; 883
	.byte #0x06,#0x07	; 1798
	.byte #0xA7,#0x02	; 679
	.byte #0xD2,#0x06	; 1746
	.byte #0x38,#0x06	; 1592
	.byte #0x4D,#0x02	; 589
	.byte #0x16,#0x05	; 1302
	.byte #0x63,#0x01	; 355
	.byte #0x89,#0x01	; 393
	.byte #0xFC,#0x05	; 1532
	.byte #0x5D,#0x00	; 93
	.byte #0x28,#0x04	; 1064
	.byte #0xC2,#0x04	; 1218
	.byte #0xB7,#0x00	; 183
	.byte #0xF5,#0x03	; 1013
	.byte #0x80,#0x07	; 1920
	.byte #0x6A,#0x07	; 1898
	.byte #0x1F,#0x03	; 799
	.byte #0xBE,#0x06	; 1726
	.byte #0xCB,#0x02	; 715
	.byte #0x21,#0x02	; 545
	.byte #0x54,#0x06	; 1620
	.byte #0xA5,#0x04	; 1189
	.byte #0xD0,#0x00	; 208
	.byte #0x3A,#0x00	; 58
	.byte #0x4F,#0x04	; 1103
	.byte #0xEE,#0x01	; 494
	.byte #0x9B,#0x05	; 1435
	.byte #0x71,#0x05	; 1393
	.byte #0x04,#0x01	; 260
	.byte #0x46,#0x02	; 582
	.byte #0x33,#0x06	; 1587
	.byte #0xD9,#0x06	; 1753
	.byte #0xAC,#0x02	; 684
	.byte #0x0D,#0x07	; 1805
	.byte #0x78,#0x03	; 888
	.byte #0x92,#0x03	; 914
	.byte #0xE7,#0x07	; 2023
	.byte #0x70,#0x06	; 1648
	.byte #0x05,#0x02	; 517
	.byte #0xEF,#0x02	; 751
	.byte #0x9A,#0x06	; 1690
	.byte #0x3B,#0x03	; 827
	.byte #0x4E,#0x07	; 1870
	.byte #0xA4,#0x07	; 1956
	.byte #0xD1,#0x03	; 977
	.byte #0x93,#0x00	; 147
	.byte #0xE6,#0x04	; 1254
	.byte #0x0C,#0x04	; 1036
	.byte #0x79,#0x00	; 121
	.byte #0xD8,#0x05	; 1496
	.byte #0xAD,#0x01	; 429
	.byte #0x47,#0x01	; 327
	.byte #0x32,#0x05	; 1330
	.byte #0xC3,#0x07	; 1987
	.byte #0xB6,#0x03	; 950
	.byte #0x5C,#0x03	; 860
	.byte #0x29,#0x07	; 1833
	.byte #0x88,#0x02	; 648
	.byte #0xFD,#0x06	; 1789
	.byte #0x17,#0x06	; 1559
	.byte #0x62,#0x02	; 610
	.byte #0x20,#0x01	; 288
	.byte #0x55,#0x05	; 1365
	.byte #0xBF,#0x05	; 1471
	.byte #0xCA,#0x01	; 458
	.byte #0x6B,#0x04	; 1131
	.byte #0x1E,#0x00	; 30
	.byte #0xF4,#0x00	; 244
	.byte #0x81,#0x04	; 1153
	.byte #0x37,#0x02	; 567
	.byte #0x42,#0x06	; 1602
	.byte #0xA8,#0x06	; 1704
	.byte #0xDD,#0x02	; 733
	.byte #0x7C,#0x07	; 1916
	.byte #0x09,#0x03	; 777
	.byte #0xE3,#0x03	; 995
	.byte #0x96,#0x07	; 1942
	.byte #0xD4,#0x04	; 1236
	.byte #0xA1,#0x00	; 161
	.byte #0x4B,#0x00	; 75
	.byte #0x3E,#0x04	; 1086
	.byte #0x9F,#0x01	; 415
	.byte #0xEA,#0x05	; 1514
	.byte #0x00,#0x05	; 1280
	.byte #0x75,#0x01	; 373
	.byte #0x84,#0x03	; 900
	.byte #0xF1,#0x07	; 2033
	.byte #0x1B,#0x07	; 1819
	.byte #0x6E,#0x03	; 878
	.byte #0xCF,#0x06	; 1743
	.byte #0xBA,#0x02	; 698
	.byte #0x50,#0x02	; 592
	.byte #0x25,#0x06	; 1573
	.byte #0x67,#0x05	; 1383
	.byte #0x12,#0x01	; 274
	.byte #0xF8,#0x01	; 504
	.byte #0x8D,#0x05	; 1421
	.byte #0x2C,#0x00	; 44
	.byte #0x59,#0x04	; 1113
	.byte #0xB3,#0x04	; 1203
	.byte #0xC6,#0x00	; 198
	.byte #0x51,#0x01	; 337
	.byte #0x24,#0x05	; 1316
	.byte #0xCE,#0x05	; 1486
	.byte #0xBB,#0x01	; 443
	.byte #0x1A,#0x04	; 1050
	.byte #0x6F,#0x00	; 111
	.byte #0x85,#0x00	; 133
	.byte #0xF0,#0x04	; 1264
	.byte #0xB2,#0x07	; 1970
	.byte #0xC7,#0x03	; 967
	.byte #0x2D,#0x03	; 813
	.byte #0x58,#0x07	; 1880
	.byte #0xF9,#0x02	; 761
	.byte #0x8C,#0x06	; 1676
	.byte #0x66,#0x06	; 1638
	.byte #0x13,#0x02	; 531
	.byte #0xE2,#0x00	; 226
	.byte #0x97,#0x04	; 1175
	.byte #0x7D,#0x04	; 1149
	.byte #0x08,#0x00	; 8
	.byte #0xA9,#0x05	; 1449
	.byte #0xDC,#0x01	; 476
	.byte #0x36,#0x01	; 310
	.byte #0x43,#0x05	; 1347
	.byte #0x01,#0x06	; 1537
	.byte #0x74,#0x02	; 628
	.byte #0x9E,#0x02	; 670
	.byte #0xEB,#0x06	; 1771
	.byte #0x4A,#0x03	; 842
	.byte #0x3F,#0x07	; 1855
	.byte #0xD5,#0x07	; 2005
	.byte #0xA0,#0x03	; 928
	.byte #0xFB,#0x04	; 1275
	.byte #0x8E,#0x00	; 142
	.byte #0x64,#0x00	; 100
	.byte #0x11,#0x04	; 1041
	.byte #0xB0,#0x01	; 432
	.byte #0xC5,#0x05	; 1477
	.byte #0x2F,#0x05	; 1327
	.byte #0x5A,#0x01	; 346
	.byte #0x18,#0x02	; 536
	.byte #0x6D,#0x06	; 1645
	.byte #0x87,#0x06	; 1671
	.byte #0xF2,#0x02	; 754
	.byte #0x53,#0x07	; 1875
	.byte #0x26,#0x03	; 806
	.byte #0xCC,#0x03	; 972
	.byte #0xB9,#0x07	; 1977
	.byte #0x48,#0x05	; 1352
	.byte #0x3D,#0x01	; 317
	.byte #0xD7,#0x01	; 471
	.byte #0xA2,#0x05	; 1442
	.byte #0x03,#0x00	; 3
	.byte #0x76,#0x04	; 1142
	.byte #0x9C,#0x04	; 1180
	.byte #0xE9,#0x00	; 233
	.byte #0xAB,#0x03	; 939
	.byte #0xDE,#0x07	; 2014
	.byte #0x34,#0x07	; 1844
	.byte #0x41,#0x03	; 833
	.byte #0xE0,#0x06	; 1760
	.byte #0x95,#0x02	; 661
	.byte #0x7F,#0x02	; 639
	.byte #0x0A,#0x06	; 1546
	.byte #0x9D,#0x07	; 1949
	.byte #0xE8,#0x03	; 1000
	.byte #0x02,#0x03	; 770
	.byte #0x77,#0x07	; 1911
	.byte #0xD6,#0x02	; 726
	.byte #0xA3,#0x06	; 1699
	.byte #0x49,#0x06	; 1609
	.byte #0x3C,#0x02	; 572
	.byte #0x7E,#0x01	; 382
	.byte #0x0B,#0x05	; 1291
	.byte #0xE1,#0x05	; 1505
	.byte #0x94,#0x01	; 404
	.byte #0x35,#0x04	; 1077
	.byte #0x40,#0x00	; 64
	.byte #0xAA,#0x00	; 170
	.byte #0xDF,#0x04	; 1247
	.byte #0x2E,#0x06	; 1582
	.byte #0x5B,#0x02	; 603
	.byte #0xB1,#0x02	; 689
	.byte #0xC4,#0x06	; 1732
	.byte #0x65,#0x03	; 869
	.byte #0x10,#0x07	; 1808
	.byte #0xFA,#0x07	; 2042
	.byte #0x8F,#0x03	; 911
	.byte #0xCD,#0x00	; 205
	.byte #0xB8,#0x04	; 1208
	.byte #0x52,#0x04	; 1106
	.byte #0x27,#0x00	; 39
	.byte #0x86,#0x05	; 1414
	.byte #0xF3,#0x01	; 499
	.byte #0x19,#0x01	; 281
	.byte #0x6C,#0x05	; 1388
	.byte #0xB4,#0x07	; 1972
	.byte #0xC1,#0x03	; 961
	.byte #0x2B,#0x03	; 811
	.byte #0x5E,#0x07	; 1886
	.byte #0xFF,#0x02	; 767
	.byte #0x8A,#0x06	; 1674
	.byte #0x60,#0x06	; 1632
	.byte #0x15,#0x02	; 533
	.byte #0x57,#0x01	; 343
	.byte #0x22,#0x05	; 1314
	.byte #0xC8,#0x05	; 1480
	.byte #0xBD,#0x01	; 445
	.byte #0x1C,#0x04	; 1052
	.byte #0x69,#0x00	; 105
	.byte #0x83,#0x00	; 131
	.byte #0xF6,#0x04	; 1270
	.byte #0x07,#0x06	; 1543
	.byte #0x72,#0x02	; 626
	.byte #0x98,#0x02	; 664
	.byte #0xED,#0x06	; 1773
	.byte #0x4C,#0x03	; 844
	.byte #0x39,#0x07	; 1849
	.byte #0xD3,#0x07	; 2003
	.byte #0xA6,#0x03	; 934
	.byte #0xE4,#0x00	; 228
	.byte #0x91,#0x04	; 1169
	.byte #0x7B,#0x04	; 1147
	.byte #0x0E,#0x00	; 14
	.byte #0xAF,#0x05	; 1455
	.byte #0xDA,#0x01	; 474
	.byte #0x30,#0x01	; 304
	.byte #0x45,#0x05	; 1349
	.byte #0xD2,#0x04	; 1234
	.byte #0xA7,#0x00	; 167
	.byte #0x4D,#0x00	; 77
	.byte #0x38,#0x04	; 1080
	.byte #0x99,#0x01	; 409
	.byte #0xEC,#0x05	; 1516
	.byte #0x06,#0x05	; 1286
	.byte #0x73,#0x01	; 371
	.byte #0x31,#0x02	; 561
	.byte #0x44,#0x06	; 1604
	.byte #0xAE,#0x06	; 1710
	.byte #0xDB,#0x02	; 731
	.byte #0x7A,#0x07	; 1914
	.byte #0x0F,#0x03	; 783
	.byte #0xE5,#0x03	; 997
	.byte #0x90,#0x07	; 1936
	.byte #0x61,#0x05	; 1377
	.byte #0x14,#0x01	; 276
	.byte #0xFE,#0x01	; 510
	.byte #0x8B,#0x05	; 1419
	.byte #0x2A,#0x00	; 42
	.byte #0x5F,#0x04	; 1119
	.byte #0xB5,#0x04	; 1205
	.byte #0xC0,#0x00	; 192
	.byte #0x82,#0x03	; 898
	.byte #0xF7,#0x07	; 2039
	.byte #0x1D,#0x07	; 1821
	.byte #0x68,#0x03	; 872
	.byte #0xC9,#0x06	; 1737
	.byte #0xBC,#0x02	; 700
	.byte #0x56,#0x02	; 598
	.byte #0x23,#0x06	; 1571
	.byte #0x78,#0x01	; 376
	.byte #0x0D,#0x05	; 1293
	.byte #0xE7,#0x05	; 1511
	.byte #0x92,#0x01	; 402
	.byte #0x33,#0x04	; 1075
	.byte #0x46,#0x00	; 70
	.byte #0xAC,#0x00	; 172
	.byte #0xD9,#0x04	; 1241
	.byte #0x9B,#0x07	; 1947
	.byte #0xEE,#0x03	; 1006
	.byte #0x04,#0x03	; 772
	.byte #0x71,#0x07	; 1905
	.byte #0xD0,#0x02	; 720
	.byte #0xA5,#0x06	; 1701
	.byte #0x4F,#0x06	; 1615
	.byte #0x3A,#0x02	; 570
	.byte #0xCB,#0x00	; 203
	.byte #0xBE,#0x04	; 1214
	.byte #0x54,#0x04	; 1108
	.byte #0x21,#0x00	; 33
	.byte #0x80,#0x05	; 1408
	.byte #0xF5,#0x01	; 501
	.byte #0x1F,#0x01	; 287
	.byte #0x6A,#0x05	; 1386
	.byte #0x28,#0x06	; 1576
	.byte #0x5D,#0x02	; 605
	.byte #0xB7,#0x02	; 695
	.byte #0xC2,#0x06	; 1730
	.byte #0x63,#0x03	; 867
	.byte #0x16,#0x07	; 1814
	.byte #0xFC,#0x07	; 2044
	.byte #0x89,#0x03	; 905
	.byte #0x1E,#0x02	; 542
	.byte #0x6B,#0x06	; 1643
	.byte #0x81,#0x06	; 1665
	.byte #0xF4,#0x02	; 756
	.byte #0x55,#0x07	; 1877
	.byte #0x20,#0x03	; 800
	.byte #0xCA,#0x03	; 970
	.byte #0xBF,#0x07	; 1983
	.byte #0xFD,#0x04	; 1277
	.byte #0x88,#0x00	; 136
	.byte #0x62,#0x00	; 98
	.byte #0x17,#0x04	; 1047
	.byte #0xB6,#0x01	; 438
	.byte #0xC3,#0x05	; 1475
	.byte #0x29,#0x05	; 1321
	.byte #0x5C,#0x01	; 348
	.byte #0xAD,#0x03	; 941
	.byte #0xD8,#0x07	; 2008
	.byte #0x32,#0x07	; 1842
	.byte #0x47,#0x03	; 839
	.byte #0xE6,#0x06	; 1766
	.byte #0x93,#0x02	; 659
	.byte #0x79,#0x02	; 633
	.byte #0x0C,#0x06	; 1548
	.byte #0x4E,#0x05	; 1358
	.byte #0x3B,#0x01	; 315
	.byte #0xD1,#0x01	; 465
	.byte #0xA4,#0x05	; 1444
	.byte #0x05,#0x00	; 5
	.byte #0x70,#0x04	; 1136
	.byte #0x9A,#0x04	; 1178
	.byte #0xEF,#0x00	; 239
	.byte #0x59,#0x06	; 1625
	.byte #0x2C,#0x02	; 556
	.byte #0xC6,#0x02	; 710
	.byte #0xB3,#0x06	; 1715
	.byte #0x12,#0x03	; 786
	.byte #0x67,#0x07	; 1895
	.byte #0x8D,#0x07	; 1933
	.byte #0xF8,#0x03	; 1016
	.byte #0xBA,#0x00	; 186
	.byte #0xCF,#0x04	; 1231
	.byte #0x25,#0x04	; 1061
	.byte #0x50,#0x00	; 80
	.byte #0xF1,#0x05	; 1521
	.byte #0x84,#0x01	; 388
	.byte #0x6E,#0x01	; 366
	.byte #0x1B,#0x05	; 1307
	.byte #0xEA,#0x07	; 2026
	.byte #0x9F,#0x03	; 927
	.byte #0x75,#0x03	; 885
	.byte #0x00,#0x07	; 1792
	.byte #0xA1,#0x02	; 673
	.byte #0xD4,#0x06	; 1748
	.byte #0x3E,#0x06	; 1598
	.byte #0x4B,#0x02	; 587
	.byte #0x09,#0x01	; 265
	.byte #0x7C,#0x05	; 1404
	.byte #0x96,#0x05	; 1430
	.byte #0xE3,#0x01	; 483
	.byte #0x42,#0x04	; 1090
	.byte #0x37,#0x00	; 55
	.byte #0xDD,#0x00	; 221
	.byte #0xA8,#0x04	; 1192
	.byte #0x3F,#0x05	; 1343
	.byte #0x4A,#0x01	; 330
	.byte #0xA0,#0x01	; 416
	.byte #0xD5,#0x05	; 1493
	.byte #0x74,#0x00	; 116
	.byte #0x01,#0x04	; 1025
	.byte #0xEB,#0x04	; 1259
	.byte #0x9E,#0x00	; 158
	.byte #0xDC,#0x03	; 988
	.byte #0xA9,#0x07	; 1961
	.byte #0x43,#0x07	; 1859
	.byte #0x36,#0x03	; 822
	.byte #0x97,#0x06	; 1687
	.byte #0xE2,#0x02	; 738
	.byte #0x08,#0x02	; 520
	.byte #0x7D,#0x06	; 1661
	.byte #0x8C,#0x04	; 1164
	.byte #0xF9,#0x00	; 249
	.byte #0x13,#0x00	; 19
	.byte #0x66,#0x04	; 1126
	.byte #0xC7,#0x01	; 455
	.byte #0xB2,#0x05	; 1458
	.byte #0x58,#0x05	; 1368
	.byte #0x2D,#0x01	; 301
	.byte #0x6F,#0x02	; 623
	.byte #0x1A,#0x06	; 1562
	.byte #0xF0,#0x06	; 1776
	.byte #0x85,#0x02	; 645
	.byte #0x24,#0x07	; 1828
	.byte #0x51,#0x03	; 849
	.byte #0xBB,#0x03	; 955
	.byte #0xCE,#0x07	; 1998
	.byte #0x95,#0x00	; 149
	.byte #0xE0,#0x04	; 1248
	.byte #0x0A,#0x04	; 1034
	.byte #0x7F,#0x00	; 127
	.byte #0xDE,#0x05	; 1502
	.byte #0xAB,#0x01	; 427
	.byte #0x41,#0x01	; 321
	.byte #0x34,#0x05	; 1332
	.byte #0x76,#0x06	; 1654
	.byte #0x03,#0x02	; 515
	.byte #0xE9,#0x02	; 745
	.byte #0x9C,#0x06	; 1692
	.byte #0x3D,#0x03	; 829
	.byte #0x48,#0x07	; 1864
	.byte #0xA2,#0x07	; 1954
	.byte #0xD7,#0x03	; 983
	.byte #0x26,#0x01	; 294
	.byte #0x53,#0x05	; 1363
	.byte #0xB9,#0x05	; 1465
	.byte #0xCC,#0x01	; 460
	.byte #0x6D,#0x04	; 1133
	.byte #0x18,#0x00	; 24
	.byte #0xF2,#0x00	; 242
	.byte #0x87,#0x04	; 1159
	.byte #0xC5,#0x07	; 1989
	.byte #0xB0,#0x03	; 944
	.byte #0x5A,#0x03	; 858
	.byte #0x2F,#0x07	; 1839
	.byte #0x8E,#0x02	; 654
	.byte #0xFB,#0x06	; 1787
	.byte #0x11,#0x06	; 1553
	.byte #0x64,#0x02	; 612
	.byte #0xF3,#0x03	; 1011
	.byte #0x86,#0x07	; 1926
	.byte #0x6C,#0x07	; 1900
	.byte #0x19,#0x03	; 793
	.byte #0xB8,#0x06	; 1720
	.byte #0xCD,#0x02	; 717
	.byte #0x27,#0x02	; 551
	.byte #0x52,#0x06	; 1618
	.byte #0x10,#0x05	; 1296
	.byte #0x65,#0x01	; 357
	.byte #0x8F,#0x01	; 399
	.byte #0xFA,#0x05	; 1530
	.byte #0x5B,#0x00	; 91
	.byte #0x2E,#0x04	; 1070
	.byte #0xC4,#0x04	; 1220
	.byte #0xB1,#0x00	; 177
	.byte #0x40,#0x02	; 576
	.byte #0x35,#0x06	; 1589
	.byte #0xDF,#0x06	; 1759
	.byte #0xAA,#0x02	; 682
	.byte #0x0B,#0x07	; 1803
	.byte #0x7E,#0x03	; 894
	.byte #0x94,#0x03	; 916
	.byte #0xE1,#0x07	; 2017
	.byte #0xA3,#0x04	; 1187
	.byte #0xD6,#0x00	; 214
	.byte #0x3C,#0x00	; 60
	.byte #0x49,#0x04	; 1097
	.byte #0xE8,#0x01	; 488
	.byte #0x9D,#0x05	; 1437
	.byte #0x77,#0x05	; 1399
	.byte #0x02,#0x01	; 258
	.byte #0x6E,#0x04	; 1134
	.byte #0x1B,#0x00	; 27
	.byte #0xF1,#0x00	; 241
	.byte #0x84,#0x04	; 1156
	.byte #0x25,#0x01	; 293
	.byte #0x50,#0x05	; 1360
	.byte #0xBA,#0x05	; 1466
	.byte #0xCF,#0x01	; 463
	.byte #0x8D,#0x02	; 653
	.byte #0xF8,#0x06	; 1784
	.byte #0x12,#0x06	; 1554
	.byte #0x67,#0x02	; 615
	.byte #0xC6,#0x07	; 1990
	.byte #0xB3,#0x03	; 947
	.byte #0x59,#0x03	; 857
	.byte #0x2C,#0x07	; 1836
	.byte #0xDD,#0x05	; 1501
	.byte #0xA8,#0x01	; 424
	.byte #0x42,#0x01	; 322
	.byte #0x37,#0x05	; 1335
	.byte #0x96,#0x00	; 150
	.byte #0xE3,#0x04	; 1251
	.byte #0x09,#0x04	; 1033
	.byte #0x7C,#0x00	; 124
	.byte #0x3E,#0x03	; 830
	.byte #0x4B,#0x07	; 1867
	.byte #0xA1,#0x07	; 1953
	.byte #0xD4,#0x03	; 980
	.byte #0x75,#0x06	; 1653
	.byte #0x00,#0x02	; 512
	.byte #0xEA,#0x02	; 746
	.byte #0x9F,#0x06	; 1695
	.byte #0x08,#0x07	; 1800
	.byte #0x7D,#0x03	; 893
	.byte #0x97,#0x03	; 919
	.byte #0xE2,#0x07	; 2018
	.byte #0x43,#0x02	; 579
	.byte #0x36,#0x06	; 1590
	.byte #0xDC,#0x06	; 1756
	.byte #0xA9,#0x02	; 681
	.byte #0xEB,#0x01	; 491
	.byte #0x9E,#0x05	; 1438
	.byte #0x74,#0x05	; 1396
	.byte #0x01,#0x01	; 257
	.byte #0xA0,#0x04	; 1184
	.byte #0xD5,#0x00	; 213
	.byte #0x3F,#0x00	; 63
	.byte #0x4A,#0x04	; 1098
	.byte #0xBB,#0x06	; 1723
	.byte #0xCE,#0x02	; 718
	.byte #0x24,#0x02	; 548
	.byte #0x51,#0x06	; 1617
	.byte #0xF0,#0x03	; 1008
	.byte #0x85,#0x07	; 1925
	.byte #0x6F,#0x07	; 1903
	.byte #0x1A,#0x03	; 794
	.byte #0x58,#0x00	; 88
	.byte #0x2D,#0x04	; 1069
	.byte #0xC7,#0x04	; 1223
	.byte #0xB2,#0x00	; 178
	.byte #0x13,#0x05	; 1299
	.byte #0x66,#0x01	; 358
	.byte #0x8C,#0x01	; 396
	.byte #0xF9,#0x05	; 1529
	.byte #0xA2,#0x02	; 674
	.byte #0xD7,#0x06	; 1751
	.byte #0x3D,#0x06	; 1597
	.byte #0x48,#0x02	; 584
	.byte #0xE9,#0x07	; 2025
	.byte #0x9C,#0x03	; 924
	.byte #0x76,#0x03	; 886
	.byte #0x03,#0x07	; 1795
	.byte #0x41,#0x04	; 1089
	.byte #0x34,#0x00	; 52
	.byte #0xDE,#0x00	; 222
	.byte #0xAB,#0x04	; 1195
	.byte #0x0A,#0x01	; 266
	.byte #0x7F,#0x05	; 1407
	.byte #0x95,#0x05	; 1429
	.byte #0xE0,#0x01	; 480
	.byte #0x11,#0x03	; 785
	.byte #0x64,#0x07	; 1892
	.byte #0x8E,#0x07	; 1934
	.byte #0xFB,#0x03	; 1019
	.byte #0x5A,#0x06	; 1626
	.byte #0x2F,#0x02	; 559
	.byte #0xC5,#0x02	; 709
	.byte #0xB0,#0x06	; 1712
	.byte #0xF2,#0x05	; 1522
	.byte #0x87,#0x01	; 391
	.byte #0x6D,#0x01	; 365
	.byte #0x18,#0x05	; 1304
	.byte #0xB9,#0x00	; 185
	.byte #0xCC,#0x04	; 1228
	.byte #0x26,#0x04	; 1062
	.byte #0x53,#0x00	; 83
	.byte #0xC4,#0x01	; 452
	.byte #0xB1,#0x05	; 1457
	.byte #0x5B,#0x05	; 1371
	.byte #0x2E,#0x01	; 302
	.byte #0x8F,#0x04	; 1167
	.byte #0xFA,#0x00	; 250
	.byte #0x10,#0x00	; 16
	.byte #0x65,#0x04	; 1125
	.byte #0x27,#0x07	; 1831
	.byte #0x52,#0x03	; 850
	.byte #0xB8,#0x03	; 952
	.byte #0xCD,#0x07	; 1997
	.byte #0x6C,#0x02	; 620
	.byte #0x19,#0x06	; 1561
	.byte #0xF3,#0x06	; 1779
	.byte #0x86,#0x02	; 646
	.byte #0x77,#0x00	; 119
	.byte #0x02,#0x04	; 1026
	.byte #0xE8,#0x04	; 1256
	.byte #0x9D,#0x00	; 157
	.byte #0x3C,#0x05	; 1340
	.byte #0x49,#0x01	; 329
	.byte #0xA3,#0x01	; 419
	.byte #0xD6,#0x05	; 1494
	.byte #0x94,#0x06	; 1684
	.byte #0xE1,#0x02	; 737
	.byte #0x0B,#0x02	; 523
	.byte #0x7E,#0x06	; 1662
	.byte #0xDF,#0x03	; 991
	.byte #0xAA,#0x07	; 1962
	.byte #0x40,#0x07	; 1856
	.byte #0x35,#0x03	; 821
	.byte #0x83,#0x05	; 1411
	.byte #0xF6,#0x01	; 502
	.byte #0x1C,#0x01	; 284
	.byte #0x69,#0x05	; 1385
	.byte #0xC8,#0x00	; 200
	.byte #0xBD,#0x04	; 1213
	.byte #0x57,#0x04	; 1111
	.byte #0x22,#0x00	; 34
	.byte #0x60,#0x03	; 864
	.byte #0x15,#0x07	; 1813
	.byte #0xFF,#0x07	; 2047
	.byte #0x8A,#0x03	; 906
	.byte #0x2B,#0x06	; 1579
	.byte #0x5E,#0x02	; 606
	.byte #0xB4,#0x02	; 692
	.byte #0xC1,#0x06	; 1729
	.byte #0x30,#0x04	; 1072
	.byte #0x45,#0x00	; 69
	.byte #0xAF,#0x00	; 175
	.byte #0xDA,#0x04	; 1242
	.byte #0x7B,#0x01	; 379
	.byte #0x0E,#0x05	; 1294
	.byte #0xE4,#0x05	; 1508
	.byte #0x91,#0x01	; 401
	.byte #0xD3,#0x02	; 723
	.byte #0xA6,#0x06	; 1702
	.byte #0x4C,#0x06	; 1612
	.byte #0x39,#0x02	; 569
	.byte #0x98,#0x07	; 1944
	.byte #0xED,#0x03	; 1005
	.byte #0x07,#0x03	; 775
	.byte #0x72,#0x07	; 1906
	.byte #0xE5,#0x06	; 1765
	.byte #0x90,#0x02	; 656
	.byte #0x7A,#0x02	; 634
	.byte #0x0F,#0x06	; 1551
	.byte #0xAE,#0x03	; 942
	.byte #0xDB,#0x07	; 2011
	.byte #0x31,#0x07	; 1841
	.byte #0x44,#0x03	; 836
	.byte #0x06,#0x00	; 6
	.byte #0x73,#0x04	; 1139
	.byte #0x99,#0x04	; 1177
	.byte #0xEC,#0x00	; 236
	.byte #0x4D,#0x05	; 1357
	.byte #0x38,#0x01	; 312
	.byte #0xD2,#0x01	; 466
	.byte #0xA7,#0x05	; 1447
	.byte #0x56,#0x07	; 1878
	.byte #0x23,#0x03	; 803
	.byte #0xC9,#0x03	; 969
	.byte #0xBC,#0x07	; 1980
	.byte #0x1D,#0x02	; 541
	.byte #0x68,#0x06	; 1640
	.byte #0x82,#0x06	; 1666
	.byte #0xF7,#0x02	; 759
	.byte #0xB5,#0x01	; 437
	.byte #0xC0,#0x05	; 1472
	.byte #0x2A,#0x05	; 1322
	.byte #0x5F,#0x01	; 351
	.byte #0xFE,#0x04	; 1278
	.byte #0x8B,#0x00	; 139
	.byte #0x61,#0x00	; 97
	.byte #0x14,#0x04	; 1044
	.byte #0x4F,#0x03	; 847
	.byte #0x3A,#0x07	; 1850
	.byte #0xD0,#0x07	; 2000
	.byte #0xA5,#0x03	; 933
	.byte #0x04,#0x06	; 1540
	.byte #0x71,#0x02	; 625
	.byte #0x9B,#0x02	; 667
	.byte #0xEE,#0x06	; 1774
	.byte #0xAC,#0x05	; 1452
	.byte #0xD9,#0x01	; 473
	.byte #0x33,#0x01	; 307
	.byte #0x46,#0x05	; 1350
	.byte #0xE7,#0x00	; 231
	.byte #0x92,#0x04	; 1170
	.byte #0x78,#0x04	; 1144
	.byte #0x0D,#0x00	; 13
	.byte #0xFC,#0x02	; 764
	.byte #0x89,#0x06	; 1673
	.byte #0x63,#0x06	; 1635
	.byte #0x16,#0x02	; 534
	.byte #0xB7,#0x07	; 1975
	.byte #0xC2,#0x03	; 962
	.byte #0x28,#0x03	; 808
	.byte #0x5D,#0x07	; 1885
	.byte #0x1F,#0x04	; 1055
	.byte #0x6A,#0x00	; 106
	.byte #0x80,#0x00	; 128
	.byte #0xF5,#0x04	; 1269
	.byte #0x54,#0x01	; 340
	.byte #0x21,#0x05	; 1313
	.byte #0xCB,#0x05	; 1483
	.byte #0xBE,#0x01	; 446
	.byte #0x29,#0x00	; 41
	.byte #0x5C,#0x04	; 1116
	.byte #0xB6,#0x04	; 1206
	.byte #0xC3,#0x00	; 195
	.byte #0x62,#0x05	; 1378
	.byte #0x17,#0x01	; 279
	.byte #0xFD,#0x01	; 509
	.byte #0x88,#0x05	; 1416
	.byte #0xCA,#0x06	; 1738
	.byte #0xBF,#0x02	; 703
	.byte #0x55,#0x02	; 597
	.byte #0x20,#0x06	; 1568
	.byte #0x81,#0x03	; 897
	.byte #0xF4,#0x07	; 2036
	.byte #0x1E,#0x07	; 1822
	.byte #0x6B,#0x03	; 875
	.byte #0x9A,#0x01	; 410
	.byte #0xEF,#0x05	; 1519
	.byte #0x05,#0x05	; 1285
	.byte #0x70,#0x01	; 368
	.byte #0xD1,#0x04	; 1233
	.byte #0xA4,#0x00	; 164
	.byte #0x4E,#0x00	; 78
	.byte #0x3B,#0x04	; 1083
	.byte #0x79,#0x07	; 1913
	.byte #0x0C,#0x03	; 780
	.byte #0xE6,#0x03	; 998
	.byte #0x93,#0x07	; 1939
	.byte #0x32,#0x02	; 562
	.byte #0x47,#0x06	; 1607
	.byte #0xAD,#0x06	; 1709
	.byte #0xD8,#0x02	; 728
	.byte #0x1D,#0x03	; 797
	.byte #0x68,#0x07	; 1896
	.byte #0x82,#0x07	; 1922
	.byte #0xF7,#0x03	; 1015
	.byte #0x56,#0x06	; 1622
	.byte #0x23,#0x02	; 547
	.byte #0xC9,#0x02	; 713
	.byte #0xBC,#0x06	; 1724
	.byte #0xFE,#0x05	; 1534
	.byte #0x8B,#0x01	; 395
	.byte #0x61,#0x01	; 353
	.byte #0x14,#0x05	; 1300
	.byte #0xB5,#0x00	; 181
	.byte #0xC0,#0x04	; 1216
	.byte #0x2A,#0x04	; 1066
	.byte #0x5F,#0x00	; 95
	.byte #0xAE,#0x02	; 686
	.byte #0xDB,#0x06	; 1755
	.byte #0x31,#0x06	; 1585
	.byte #0x44,#0x02	; 580
	.byte #0xE5,#0x07	; 2021
	.byte #0x90,#0x03	; 912
	.byte #0x7A,#0x03	; 890
	.byte #0x0F,#0x07	; 1807
	.byte #0x4D,#0x04	; 1101
	.byte #0x38,#0x00	; 56
	.byte #0xD2,#0x00	; 210
	.byte #0xA7,#0x04	; 1191
	.byte #0x06,#0x01	; 262
	.byte #0x73,#0x05	; 1395
	.byte #0x99,#0x05	; 1433
	.byte #0xEC,#0x01	; 492
	.byte #0x7B,#0x00	; 123
	.byte #0x0E,#0x04	; 1038
	.byte #0xE4,#0x04	; 1252
	.byte #0x91,#0x00	; 145
	.byte #0x30,#0x05	; 1328
	.byte #0x45,#0x01	; 325
	.byte #0xAF,#0x01	; 431
	.byte #0xDA,#0x05	; 1498
	.byte #0x98,#0x06	; 1688
	.byte #0xED,#0x02	; 749
	.byte #0x07,#0x02	; 519
	.byte #0x72,#0x06	; 1650
	.byte #0xD3,#0x03	; 979
	.byte #0xA6,#0x07	; 1958
	.byte #0x4C,#0x07	; 1868
	.byte #0x39,#0x03	; 825
	.byte #0xC8,#0x01	; 456
	.byte #0xBD,#0x05	; 1469
	.byte #0x57,#0x05	; 1367
	.byte #0x22,#0x01	; 290
	.byte #0x83,#0x04	; 1155
	.byte #0xF6,#0x00	; 246
	.byte #0x1C,#0x00	; 28
	.byte #0x69,#0x04	; 1129
	.byte #0x2B,#0x07	; 1835
	.byte #0x5E,#0x03	; 862
	.byte #0xB4,#0x03	; 948
	.byte #0xC1,#0x07	; 1985
	.byte #0x60,#0x02	; 608
	.byte #0x15,#0x06	; 1557
	.byte #0xFF,#0x06	; 1791
	.byte #0x8A,#0x02	; 650
	.byte #0xD1,#0x05	; 1489
	.byte #0xA4,#0x01	; 420
	.byte #0x4E,#0x01	; 334
	.byte #0x3B,#0x05	; 1339
	.byte #0x9A,#0x00	; 154
	.byte #0xEF,#0x04	; 1263
	.byte #0x05,#0x04	; 1029
	.byte #0x70,#0x00	; 112
	.byte #0x32,#0x03	; 818
	.byte #0x47,#0x07	; 1863
	.byte #0xAD,#0x07	; 1965
	.byte #0xD8,#0x03	; 984
	.byte #0x79,#0x06	; 1657
	.byte #0x0C,#0x02	; 524
	.byte #0xE6,#0x02	; 742
	.byte #0x93,#0x06	; 1683
	.byte #0x62,#0x04	; 1122
	.byte #0x17,#0x00	; 23
	.byte #0xFD,#0x00	; 253
	.byte #0x88,#0x04	; 1160
	.byte #0x29,#0x01	; 297
	.byte #0x5C,#0x05	; 1372
	.byte #0xB6,#0x05	; 1462
	.byte #0xC3,#0x01	; 451
	.byte #0x81,#0x02	; 641
	.byte #0xF4,#0x06	; 1780
	.byte #0x1E,#0x06	; 1566
	.byte #0x6B,#0x02	; 619
	.byte #0xCA,#0x07	; 1994
	.byte #0xBF,#0x03	; 959
	.byte #0x55,#0x03	; 853
	.byte #0x20,#0x07	; 1824
	.byte #0xB7,#0x06	; 1719
	.byte #0xC2,#0x02	; 706
	.byte #0x28,#0x02	; 552
	.byte #0x5D,#0x06	; 1629
	.byte #0xFC,#0x03	; 1020
	.byte #0x89,#0x07	; 1929
	.byte #0x63,#0x07	; 1891
	.byte #0x16,#0x03	; 790
	.byte #0x54,#0x00	; 84
	.byte #0x21,#0x04	; 1057
	.byte #0xCB,#0x04	; 1227
	.byte #0xBE,#0x00	; 190
	.byte #0x1F,#0x05	; 1311
	.byte #0x6A,#0x01	; 362
	.byte #0x80,#0x01	; 384
	.byte #0xF5,#0x05	; 1525
	.byte #0x04,#0x07	; 1796
	.byte #0x71,#0x03	; 881
	.byte #0x9B,#0x03	; 923
	.byte #0xEE,#0x07	; 2030
	.byte #0x4F,#0x02	; 591
	.byte #0x3A,#0x06	; 1594
	.byte #0xD0,#0x06	; 1744
	.byte #0xA5,#0x02	; 677
	.byte #0xE7,#0x01	; 487
	.byte #0x92,#0x05	; 1426
	.byte #0x78,#0x05	; 1400
	.byte #0x0D,#0x01	; 269
	.byte #0xAC,#0x04	; 1196
	.byte #0xD9,#0x00	; 217
	.byte #0x33,#0x00	; 51
	.byte #0x46,#0x04	; 1094
	.byte #0xF0,#0x02	; 752
	.byte #0x85,#0x06	; 1669
	.byte #0x6F,#0x06	; 1647
	.byte #0x1A,#0x02	; 538
	.byte #0xBB,#0x07	; 1979
	.byte #0xCE,#0x03	; 974
	.byte #0x24,#0x03	; 804
	.byte #0x51,#0x07	; 1873
	.byte #0x13,#0x04	; 1043
	.byte #0x66,#0x00	; 102
	.byte #0x8C,#0x00	; 140
	.byte #0xF9,#0x04	; 1273
	.byte #0x58,#0x01	; 344
	.byte #0x2D,#0x05	; 1325
	.byte #0xC7,#0x05	; 1479
	.byte #0xB2,#0x01	; 434
	.byte #0x43,#0x03	; 835
	.byte #0x36,#0x07	; 1846
	.byte #0xDC,#0x07	; 2012
	.byte #0xA9,#0x03	; 937
	.byte #0x08,#0x06	; 1544
	.byte #0x7D,#0x02	; 637
	.byte #0x97,#0x02	; 663
	.byte #0xE2,#0x06	; 1762
	.byte #0xA0,#0x05	; 1440
	.byte #0xD5,#0x01	; 469
	.byte #0x3F,#0x01	; 319
	.byte #0x4A,#0x05	; 1354
	.byte #0xEB,#0x00	; 235
	.byte #0x9E,#0x04	; 1182
	.byte #0x74,#0x04	; 1140
	.byte #0x01,#0x00	; 1
	.byte #0x96,#0x01	; 406
	.byte #0xE3,#0x05	; 1507
	.byte #0x09,#0x05	; 1289
	.byte #0x7C,#0x01	; 380
	.byte #0xDD,#0x04	; 1245
	.byte #0xA8,#0x00	; 168
	.byte #0x42,#0x00	; 66
	.byte #0x37,#0x04	; 1079
	.byte #0x75,#0x07	; 1909
	.byte #0x00,#0x03	; 768
	.byte #0xEA,#0x03	; 1002
	.byte #0x9F,#0x07	; 1951
	.byte #0x3E,#0x02	; 574
	.byte #0x4B,#0x06	; 1611
	.byte #0xA1,#0x06	; 1697
	.byte #0xD4,#0x02	; 724
	.byte #0x25,#0x00	; 37
	.byte #0x50,#0x04	; 1104
	.byte #0xBA,#0x04	; 1210
	.byte #0xCF,#0x00	; 207
	.byte #0x6E,#0x05	; 1390
	.byte #0x1B,#0x01	; 283
	.byte #0xF1,#0x01	; 497
	.byte #0x84,#0x05	; 1412
	.byte #0xC6,#0x06	; 1734
	.byte #0xB3,#0x02	; 691
	.byte #0x59,#0x02	; 601
	.byte #0x2C,#0x06	; 1580
	.byte #0x8D,#0x03	; 909
	.byte #0xF8,#0x07	; 2040
	.byte #0x12,#0x07	; 1810
	.byte #0x67,#0x03	; 871
	.byte #0x3C,#0x04	; 1084
	.byte #0x49,#0x00	; 73
	.byte #0xA3,#0x00	; 163
	.byte #0xD6,#0x04	; 1238
	.byte #0x77,#0x01	; 375
	.byte #0x02,#0x05	; 1282
	.byte #0xE8,#0x05	; 1512
	.byte #0x9D,#0x01	; 413
	.byte #0xDF,#0x02	; 735
	.byte #0xAA,#0x06	; 1706
	.byte #0x40,#0x06	; 1600
	.byte #0x35,#0x02	; 565
	.byte #0x94,#0x07	; 1940
	.byte #0xE1,#0x03	; 993
	.byte #0x0B,#0x03	; 779
	.byte #0x7E,#0x07	; 1918
	.byte #0x8F,#0x05	; 1423
	.byte #0xFA,#0x01	; 506
	.byte #0x10,#0x01	; 272
	.byte #0x65,#0x05	; 1381
	.byte #0xC4,#0x00	; 196
	.byte #0xB1,#0x04	; 1201
	.byte #0x5B,#0x04	; 1115
	.byte #0x2E,#0x00	; 46
	.byte #0x6C,#0x03	; 876
	.byte #0x19,#0x07	; 1817
	.byte #0xF3,#0x07	; 2035
	.byte #0x86,#0x03	; 902
	.byte #0x27,#0x06	; 1575
	.byte #0x52,#0x02	; 594
	.byte #0xB8,#0x02	; 696
	.byte #0xCD,#0x06	; 1741
	.byte #0x5A,#0x07	; 1882
	.byte #0x2F,#0x03	; 815
	.byte #0xC5,#0x03	; 965
	.byte #0xB0,#0x07	; 1968
	.byte #0x11,#0x02	; 529
	.byte #0x64,#0x06	; 1636
	.byte #0x8E,#0x06	; 1678
	.byte #0xFB,#0x02	; 763
	.byte #0xB9,#0x01	; 441
	.byte #0xCC,#0x05	; 1484
	.byte #0x26,#0x05	; 1318
	.byte #0x53,#0x01	; 339
	.byte #0xF2,#0x04	; 1266
	.byte #0x87,#0x00	; 135
	.byte #0x6D,#0x00	; 109
	.byte #0x18,#0x04	; 1048
	.byte #0xE9,#0x06	; 1769
	.byte #0x9C,#0x02	; 668
	.byte #0x76,#0x02	; 630
	.byte #0x03,#0x06	; 1539
	.byte #0xA2,#0x03	; 930
	.byte #0xD7,#0x07	; 2007
	.byte #0x3D,#0x07	; 1853
	.byte #0x48,#0x03	; 840
	.byte #0x0A,#0x00	; 10
	.byte #0x7F,#0x04	; 1151
	.byte #0x95,#0x04	; 1173
	.byte #0xE0,#0x00	; 224
	.byte #0x41,#0x05	; 1345
	.byte #0x34,#0x01	; 308
	.byte #0xDE,#0x01	; 478
	.byte #0xAB,#0x05	; 1451
	.byte #0xC7,#0x00	; 199
	.byte #0xB2,#0x04	; 1202
	.byte #0x58,#0x04	; 1112
	.byte #0x2D,#0x00	; 45
	.byte #0x8C,#0x05	; 1420
	.byte #0xF9,#0x01	; 505
	.byte #0x13,#0x01	; 275
	.byte #0x66,#0x05	; 1382
	.byte #0x24,#0x06	; 1572
	.byte #0x51,#0x02	; 593
	.byte #0xBB,#0x02	; 699
	.byte #0xCE,#0x06	; 1742
	.byte #0x6F,#0x03	; 879
	.byte #0x1A,#0x07	; 1818
	.byte #0xF0,#0x07	; 2032
	.byte #0x85,#0x03	; 901
	.byte #0x74,#0x01	; 372
	.byte #0x01,#0x05	; 1281
	.byte #0xEB,#0x05	; 1515
	.byte #0x9E,#0x01	; 414
	.byte #0x3F,#0x04	; 1087
	.byte #0x4A,#0x00	; 74
	.byte #0xA0,#0x00	; 160
	.byte #0xD5,#0x04	; 1237
	.byte #0x97,#0x07	; 1943
	.byte #0xE2,#0x03	; 994
	.byte #0x08,#0x03	; 776
	.byte #0x7D,#0x07	; 1917
	.byte #0xDC,#0x02	; 732
	.byte #0xA9,#0x06	; 1705
	.byte #0x43,#0x06	; 1603
	.byte #0x36,#0x02	; 566
	.byte #0xA1,#0x03	; 929
	.byte #0xD4,#0x07	; 2004
	.byte #0x3E,#0x07	; 1854
	.byte #0x4B,#0x03	; 843
	.byte #0xEA,#0x06	; 1770
	.byte #0x9F,#0x02	; 671
	.byte #0x75,#0x02	; 629
	.byte #0x00,#0x06	; 1536
	.byte #0x42,#0x05	; 1346
	.byte #0x37,#0x01	; 311
	.byte #0xDD,#0x01	; 477
	.byte #0xA8,#0x05	; 1448
	.byte #0x09,#0x00	; 9
	.byte #0x7C,#0x04	; 1148
	.byte #0x96,#0x04	; 1174
	.byte #0xE3,#0x00	; 227
	.byte #0x12,#0x02	; 530
	.byte #0x67,#0x06	; 1639
	.byte #0x8D,#0x06	; 1677
	.byte #0xF8,#0x02	; 760
	.byte #0x59,#0x07	; 1881
	.byte #0x2C,#0x03	; 812
	.byte #0xC6,#0x03	; 966
	.byte #0xB3,#0x07	; 1971
	.byte #0xF1,#0x04	; 1265
	.byte #0x84,#0x00	; 132
	.byte #0x6E,#0x00	; 110
	.byte #0x1B,#0x04	; 1051
	.byte #0xBA,#0x01	; 442
	.byte #0xCF,#0x05	; 1487
	.byte #0x25,#0x05	; 1317
	.byte #0x50,#0x01	; 336
	.byte #0x0B,#0x06	; 1547
	.byte #0x7E,#0x02	; 638
	.byte #0x94,#0x02	; 660
	.byte #0xE1,#0x06	; 1761
	.byte #0x40,#0x03	; 832
	.byte #0x35,#0x07	; 1845
	.byte #0xDF,#0x07	; 2015
	.byte #0xAA,#0x03	; 938
	.byte #0xE8,#0x00	; 232
	.byte #0x9D,#0x04	; 1181
	.byte #0x77,#0x04	; 1143
	.byte #0x02,#0x00	; 2
	.byte #0xA3,#0x05	; 1443
	.byte #0xD6,#0x01	; 470
	.byte #0x3C,#0x01	; 316
	.byte #0x49,#0x05	; 1353
	.byte #0xB8,#0x07	; 1976
	.byte #0xCD,#0x03	; 973
	.byte #0x27,#0x03	; 807
	.byte #0x52,#0x07	; 1874
	.byte #0xF3,#0x02	; 755
	.byte #0x86,#0x06	; 1670
	.byte #0x6C,#0x06	; 1644
	.byte #0x19,#0x02	; 537
	.byte #0x5B,#0x01	; 347
	.byte #0x2E,#0x05	; 1326
	.byte #0xC4,#0x05	; 1476
	.byte #0xB1,#0x01	; 433
	.byte #0x10,#0x04	; 1040
	.byte #0x65,#0x00	; 101
	.byte #0x8F,#0x00	; 143
	.byte #0xFA,#0x04	; 1274
	.byte #0x6D,#0x05	; 1389
	.byte #0x18,#0x01	; 280
	.byte #0xF2,#0x01	; 498
	.byte #0x87,#0x05	; 1415
	.byte #0x26,#0x00	; 38
	.byte #0x53,#0x04	; 1107
	.byte #0xB9,#0x04	; 1209
	.byte #0xCC,#0x00	; 204
	.byte #0x8E,#0x03	; 910
	.byte #0xFB,#0x07	; 2043
	.byte #0x11,#0x07	; 1809
	.byte #0x64,#0x03	; 868
	.byte #0xC5,#0x06	; 1733
	.byte #0xB0,#0x02	; 688
	.byte #0x5A,#0x02	; 602
	.byte #0x2F,#0x06	; 1583
	.byte #0xDE,#0x04	; 1246
	.byte #0xAB,#0x00	; 171
	.byte #0x41,#0x00	; 65
	.byte #0x34,#0x04	; 1076
	.byte #0x95,#0x01	; 405
	.byte #0xE0,#0x05	; 1504
	.byte #0x0A,#0x05	; 1290
	.byte #0x7F,#0x01	; 383
	.byte #0x3D,#0x02	; 573
	.byte #0x48,#0x06	; 1608
	.byte #0xA2,#0x06	; 1698
	.byte #0xD7,#0x02	; 727
	.byte #0x76,#0x07	; 1910
	.byte #0x03,#0x03	; 771
	.byte #0xE9,#0x03	; 1001
	.byte #0x9C,#0x07	; 1948
	.byte #0x2A,#0x01	; 298
	.byte #0x5F,#0x05	; 1375
	.byte #0xB5,#0x05	; 1461
	.byte #0xC0,#0x01	; 448
	.byte #0x61,#0x04	; 1121
	.byte #0x14,#0x00	; 20
	.byte #0xFE,#0x00	; 254
	.byte #0x8B,#0x04	; 1163
	.byte #0xC9,#0x07	; 1993
	.byte #0xBC,#0x03	; 956
	.byte #0x56,#0x03	; 854
	.byte #0x23,#0x07	; 1827
	.byte #0x82,#0x02	; 642
	.byte #0xF7,#0x06	; 1783
	.byte #0x1D,#0x06	; 1565
	.byte #0x68,#0x02	; 616
	.byte #0x99,#0x00	; 153
	.byte #0xEC,#0x04	; 1260
	.byte #0x06,#0x04	; 1030
	.byte #0x73,#0x00	; 115
	.byte #0xD2,#0x05	; 1490
	.byte #0xA7,#0x01	; 423
	.byte #0x4D,#0x01	; 333
	.byte #0x38,#0x05	; 1336
	.byte #0x7A,#0x06	; 1658
	.byte #0x0F,#0x02	; 527
	.byte #0xE5,#0x02	; 741
	.byte #0x90,#0x06	; 1680
	.byte #0x31,#0x03	; 817
	.byte #0x44,#0x07	; 1860
	.byte #0xAE,#0x07	; 1966
	.byte #0xDB,#0x03	; 987
	.byte #0x4C,#0x02	; 588
	.byte #0x39,#0x06	; 1593
	.byte #0xD3,#0x06	; 1747
	.byte #0xA6,#0x02	; 678
	.byte #0x07,#0x07	; 1799
	.byte #0x72,#0x03	; 882
	.byte #0x98,#0x03	; 920
	.byte #0xED,#0x07	; 2029
	.byte #0xAF,#0x04	; 1199
	.byte #0xDA,#0x00	; 218
	.byte #0x30,#0x00	; 48
	.byte #0x45,#0x04	; 1093
	.byte #0xE4,#0x01	; 484
	.byte #0x91,#0x05	; 1425
	.byte #0x7B,#0x05	; 1403
	.byte #0x0E,#0x01	; 270
	.byte #0xFF,#0x03	; 1023
	.byte #0x8A,#0x07	; 1930
	.byte #0x60,#0x07	; 1888
	.byte #0x15,#0x03	; 789
	.byte #0xB4,#0x06	; 1716
	.byte #0xC1,#0x02	; 705
	.byte #0x2B,#0x02	; 555
	.byte #0x5E,#0x06	; 1630
	.byte #0x1C,#0x05	; 1308
	.byte #0x69,#0x01	; 361
	.byte #0x83,#0x01	; 387
	.byte #0xF6,#0x05	; 1526
	.byte #0x57,#0x00	; 87
	.byte #0x22,#0x04	; 1058
	.byte #0xC8,#0x04	; 1224
	.byte #0xBD,#0x00	; 189
	.byte #0xE6,#0x07	; 2022
	.byte #0x93,#0x03	; 915
	.byte #0x79,#0x03	; 889
	.byte #0x0C,#0x07	; 1804
	.byte #0xAD,#0x02	; 685
	.byte #0xD8,#0x06	; 1752
	.byte #0x32,#0x06	; 1586
	.byte #0x47,#0x02	; 583
	.byte #0x05,#0x01	; 261
	.byte #0x70,#0x05	; 1392
	.byte #0x9A,#0x05	; 1434
	.byte #0xEF,#0x01	; 495
	.byte #0x4E,#0x04	; 1102
	.byte #0x3B,#0x00	; 59
	.byte #0xD1,#0x00	; 209
	.byte #0xA4,#0x04	; 1188
	.byte #0x55,#0x06	; 1621
	.byte #0x20,#0x02	; 544
	.byte #0xCA,#0x02	; 714
	.byte #0xBF,#0x06	; 1727
	.byte #0x1E,#0x03	; 798
	.byte #0x6B,#0x07	; 1899
	.byte #0x81,#0x07	; 1921
	.byte #0xF4,#0x03	; 1012
	.byte #0xB6,#0x00	; 182
	.byte #0xC3,#0x04	; 1219
	.byte #0x29,#0x04	; 1065
	.byte #0x5C,#0x00	; 92
	.byte #0xFD,#0x05	; 1533
	.byte #0x88,#0x01	; 392
	.byte #0x62,#0x01	; 354
	.byte #0x17,#0x05	; 1303
	.byte #0x80,#0x04	; 1152
	.byte #0xF5,#0x00	; 245
	.byte #0x1F,#0x00	; 31
	.byte #0x6A,#0x04	; 1130
	.byte #0xCB,#0x01	; 459
	.byte #0xBE,#0x05	; 1470
	.byte #0x54,#0x05	; 1364
	.byte #0x21,#0x01	; 289
	.byte #0x63,#0x02	; 611
	.byte #0x16,#0x06	; 1558
	.byte #0xFC,#0x06	; 1788
	.byte #0x89,#0x02	; 649
	.byte #0x28,#0x07	; 1832
	.byte #0x5D,#0x03	; 861
	.byte #0xB7,#0x03	; 951
	.byte #0xC2,#0x07	; 1986
	.byte #0x33,#0x05	; 1331
	.byte #0x46,#0x01	; 326
	.byte #0xAC,#0x01	; 428
	.byte #0xD9,#0x05	; 1497
	.byte #0x78,#0x00	; 120
	.byte #0x0D,#0x04	; 1037
	.byte #0xE7,#0x04	; 1255
	.byte #0x92,#0x00	; 146
	.byte #0xD0,#0x03	; 976
	.byte #0xA5,#0x07	; 1957
	.byte #0x4F,#0x07	; 1871
	.byte #0x3A,#0x03	; 826
	.byte #0x9B,#0x06	; 1691
	.byte #0xEE,#0x02	; 750
	.byte #0x04,#0x02	; 516
	.byte #0x71,#0x06	; 1649
	.byte #0xA9,#0x04	; 1193
	.byte #0xDC,#0x00	; 220
	.byte #0x36,#0x00	; 54
	.byte #0x43,#0x04	; 1091
	.byte #0xE2,#0x01	; 482
	.byte #0x97,#0x05	; 1431
	.byte #0x7D,#0x05	; 1405
	.byte #0x08,#0x01	; 264
	.byte #0x4A,#0x02	; 586
	.byte #0x3F,#0x06	; 1599
	.byte #0xD5,#0x06	; 1749
	.byte #0xA0,#0x02	; 672
	.byte #0x01,#0x07	; 1793
	.byte #0x74,#0x03	; 884
	.byte #0x9E,#0x03	; 926
	.byte #0xEB,#0x07	; 2027
	.byte #0x1A,#0x05	; 1306
	.byte #0x6F,#0x01	; 367
	.byte #0x85,#0x01	; 389
	.byte #0xF0,#0x05	; 1520
	.byte #0x51,#0x00	; 81
	.byte #0x24,#0x04	; 1060
	.byte #0xCE,#0x04	; 1230
	.byte #0xBB,#0x00	; 187
	.byte #0xF9,#0x03	; 1017
	.byte #0x8C,#0x07	; 1932
	.byte #0x66,#0x07	; 1894
	.byte #0x13,#0x03	; 787
	.byte #0xB2,#0x06	; 1714
	.byte #0xC7,#0x02	; 711
	.byte #0x2D,#0x02	; 557
	.byte #0x58,#0x06	; 1624
	.byte #0xCF,#0x07	; 1999
	.byte #0xBA,#0x03	; 954
	.byte #0x50,#0x03	; 848
	.byte #0x25,#0x07	; 1829
	.byte #0x84,#0x02	; 644
	.byte #0xF1,#0x06	; 1777
	.byte #0x1B,#0x06	; 1563
	.byte #0x6E,#0x02	; 622
	.byte #0x2C,#0x01	; 300
	.byte #0x59,#0x05	; 1369
	.byte #0xB3,#0x05	; 1459
	.byte #0xC6,#0x01	; 454
	.byte #0x67,#0x04	; 1127
	.byte #0x12,#0x00	; 18
	.byte #0xF8,#0x00	; 248
	.byte #0x8D,#0x04	; 1165
	.byte #0x7C,#0x06	; 1660
	.byte #0x09,#0x02	; 521
	.byte #0xE3,#0x02	; 739
	.byte #0x96,#0x06	; 1686
	.byte #0x37,#0x03	; 823
	.byte #0x42,#0x07	; 1858
	.byte #0xA8,#0x07	; 1960
	.byte #0xDD,#0x03	; 989
	.byte #0x9F,#0x00	; 159
	.byte #0xEA,#0x04	; 1258
	.byte #0x00,#0x04	; 1024
	.byte #0x75,#0x00	; 117
	.byte #0xD4,#0x05	; 1492
	.byte #0xA1,#0x01	; 417
	.byte #0x4B,#0x01	; 331
	.byte #0x3E,#0x05	; 1342
	.byte #0x65,#0x02	; 613
	.byte #0x10,#0x06	; 1552
	.byte #0xFA,#0x06	; 1786
	.byte #0x8F,#0x02	; 655
	.byte #0x2E,#0x07	; 1838
	.byte #0x5B,#0x03	; 859
	.byte #0xB1,#0x03	; 945
	.byte #0xC4,#0x07	; 1988
	.byte #0x86,#0x04	; 1158
	.byte #0xF3,#0x00	; 243
	.byte #0x19,#0x00	; 25
	.byte #0x6C,#0x04	; 1132
	.byte #0xCD,#0x01	; 461
	.byte #0xB8,#0x05	; 1464
	.byte #0x52,#0x05	; 1362
	.byte #0x27,#0x01	; 295
	.byte #0xD6,#0x03	; 982
	.byte #0xA3,#0x07	; 1955
	.byte #0x49,#0x07	; 1865
	.byte #0x3C,#0x03	; 828
	.byte #0x9D,#0x06	; 1693
	.byte #0xE8,#0x02	; 744
	.byte #0x02,#0x02	; 514
	.byte #0x77,#0x06	; 1655
	.byte #0x35,#0x05	; 1333
	.byte #0x40,#0x01	; 320
	.byte #0xAA,#0x01	; 426
	.byte #0xDF,#0x05	; 1503
	.byte #0x7E,#0x00	; 126
	.byte #0x0B,#0x04	; 1035
	.byte #0xE1,#0x04	; 1249
	.byte #0x94,#0x00	; 148
	.byte #0x03,#0x01	; 259
	.byte #0x76,#0x05	; 1398
	.byte #0x9C,#0x05	; 1436
	.byte #0xE9,#0x01	; 489
	.byte #0x48,#0x04	; 1096
	.byte #0x3D,#0x00	; 61
	.byte #0xD7,#0x00	; 215
	.byte #0xA2,#0x04	; 1186
	.byte #0xE0,#0x07	; 2016
	.byte #0x95,#0x03	; 917
	.byte #0x7F,#0x03	; 895
	.byte #0x0A,#0x07	; 1802
	.byte #0xAB,#0x02	; 683
	.byte #0xDE,#0x06	; 1758
	.byte #0x34,#0x06	; 1588
	.byte #0x41,#0x02	; 577
	.byte #0xB0,#0x00	; 176
	.byte #0xC5,#0x04	; 1221
	.byte #0x2F,#0x04	; 1071
	.byte #0x5A,#0x00	; 90
	.byte #0xFB,#0x05	; 1531
	.byte #0x8E,#0x01	; 398
	.byte #0x64,#0x01	; 356
	.byte #0x11,#0x05	; 1297
	.byte #0x53,#0x06	; 1619
	.byte #0x26,#0x02	; 550
	.byte #0xCC,#0x02	; 716
	.byte #0xB9,#0x06	; 1721
	.byte #0x18,#0x03	; 792
	.byte #0x6D,#0x07	; 1901
	.byte #0x87,#0x07	; 1927
	.byte #0xF2,#0x03	; 1010
	.byte #0x44,#0x05	; 1348
	.byte #0x31,#0x01	; 305
	.byte #0xDB,#0x01	; 475
	.byte #0xAE,#0x05	; 1454
	.byte #0x0F,#0x00	; 15
	.byte #0x7A,#0x04	; 1146
	.byte #0x90,#0x04	; 1168
	.byte #0xE5,#0x00	; 229
	.byte #0xA7,#0x03	; 935
	.byte #0xD2,#0x07	; 2002
	.byte #0x38,#0x07	; 1848
	.byte #0x4D,#0x03	; 845
	.byte #0xEC,#0x06	; 1772
	.byte #0x99,#0x02	; 665
	.byte #0x73,#0x02	; 627
	.byte #0x06,#0x06	; 1542
	.byte #0xF7,#0x04	; 1271
	.byte #0x82,#0x00	; 130
	.byte #0x68,#0x00	; 104
	.byte #0x1D,#0x04	; 1053
	.byte #0xBC,#0x01	; 444
	.byte #0xC9,#0x05	; 1481
	.byte #0x23,#0x05	; 1315
	.byte #0x56,#0x01	; 342
	.byte #0x14,#0x02	; 532
	.byte #0x61,#0x06	; 1633
	.byte #0x8B,#0x06	; 1675
	.byte #0xFE,#0x02	; 766
	.byte #0x5F,#0x07	; 1887
	.byte #0x2A,#0x03	; 810
	.byte #0xC0,#0x03	; 960
	.byte #0xB5,#0x07	; 1973
	.byte #0x22,#0x06	; 1570
	.byte #0x57,#0x02	; 599
	.byte #0xBD,#0x02	; 701
	.byte #0xC8,#0x06	; 1736
	.byte #0x69,#0x03	; 873
	.byte #0x1C,#0x07	; 1820
	.byte #0xF6,#0x07	; 2038
	.byte #0x83,#0x03	; 899
	.byte #0xC1,#0x00	; 193
	.byte #0xB4,#0x04	; 1204
	.byte #0x5E,#0x04	; 1118
	.byte #0x2B,#0x00	; 43
	.byte #0x8A,#0x05	; 1418
	.byte #0xFF,#0x01	; 511
	.byte #0x15,#0x01	; 277
	.byte #0x60,#0x05	; 1376
	.byte #0x91,#0x07	; 1937
	.byte #0xE4,#0x03	; 996
	.byte #0x0E,#0x03	; 782
	.byte #0x7B,#0x07	; 1915
	.byte #0xDA,#0x02	; 730
	.byte #0xAF,#0x06	; 1711
	.byte #0x45,#0x06	; 1605
	.byte #0x30,#0x02	; 560
	.byte #0x72,#0x01	; 370
	.byte #0x07,#0x05	; 1287
	.byte #0xED,#0x05	; 1517
	.byte #0x98,#0x01	; 408
	.byte #0x39,#0x04	; 1081
	.byte #0x4C,#0x00	; 76
	.byte #0xA6,#0x00	; 166
	.byte #0xD3,#0x04	; 1235
	.byte #0x88,#0x03	; 904
	.byte #0xFD,#0x07	; 2045
	.byte #0x17,#0x07	; 1815
	.byte #0x62,#0x03	; 866
	.byte #0xC3,#0x06	; 1731
	.byte #0xB6,#0x02	; 694
	.byte #0x5C,#0x02	; 604
	.byte #0x29,#0x06	; 1577
	.byte #0x6B,#0x05	; 1387
	.byte #0x1E,#0x01	; 286
	.byte #0xF4,#0x01	; 500
	.byte #0x81,#0x05	; 1409
	.byte #0x20,#0x00	; 32
	.byte #0x55,#0x04	; 1109
	.byte #0xBF,#0x04	; 1215
	.byte #0xCA,#0x00	; 202
	.byte #0x3B,#0x02	; 571
	.byte #0x4E,#0x06	; 1614
	.byte #0xA4,#0x06	; 1700
	.byte #0xD1,#0x02	; 721
	.byte #0x70,#0x07	; 1904
	.byte #0x05,#0x03	; 773
	.byte #0xEF,#0x03	; 1007
	.byte #0x9A,#0x07	; 1946
	.byte #0xD8,#0x04	; 1240
	.byte #0xAD,#0x00	; 173
	.byte #0x47,#0x00	; 71
	.byte #0x32,#0x04	; 1074
	.byte #0x93,#0x01	; 403
	.byte #0xE6,#0x05	; 1510
	.byte #0x0C,#0x05	; 1292
	.byte #0x79,#0x01	; 377
	.byte #0xEE,#0x00	; 238
	.byte #0x9B,#0x04	; 1179
	.byte #0x71,#0x04	; 1137
	.byte #0x04,#0x00	; 4
	.byte #0xA5,#0x05	; 1445
	.byte #0xD0,#0x01	; 464
	.byte #0x3A,#0x01	; 314
	.byte #0x4F,#0x05	; 1359
	.byte #0x0D,#0x06	; 1549
	.byte #0x78,#0x02	; 632
	.byte #0x92,#0x02	; 658
	.byte #0xE7,#0x06	; 1767
	.byte #0x46,#0x03	; 838
	.byte #0x33,#0x07	; 1843
	.byte #0xD9,#0x07	; 2009
	.byte #0xAC,#0x03	; 940
	.byte #0x5D,#0x01	; 349
	.byte #0x28,#0x05	; 1320
	.byte #0xC2,#0x05	; 1474
	.byte #0xB7,#0x01	; 439
	.byte #0x16,#0x04	; 1046
	.byte #0x63,#0x00	; 99
	.byte #0x89,#0x00	; 137
	.byte #0xFC,#0x04	; 1276
	.byte #0xBE,#0x07	; 1982
	.byte #0xCB,#0x03	; 971
	.byte #0x21,#0x03	; 801
	.byte #0x54,#0x07	; 1876
	.byte #0xF5,#0x02	; 757
	.byte #0x80,#0x06	; 1664
	.byte #0x6A,#0x06	; 1642
	.byte #0x1F,#0x02	; 543
	.byte #0x73,#0x07	; 1907
	.byte #0x06,#0x03	; 774
	.byte #0xEC,#0x03	; 1004
	.byte #0x99,#0x07	; 1945
	.byte #0x38,#0x02	; 568
	.byte #0x4D,#0x06	; 1613
	.byte #0xA7,#0x06	; 1703
	.byte #0xD2,#0x02	; 722
	.byte #0x90,#0x01	; 400
	.byte #0xE5,#0x05	; 1509
	.byte #0x0F,#0x05	; 1295
	.byte #0x7A,#0x01	; 378
	.byte #0xDB,#0x04	; 1243
	.byte #0xAE,#0x00	; 174
	.byte #0x44,#0x00	; 68
	.byte #0x31,#0x04	; 1073
	.byte #0xC0,#0x06	; 1728
	.byte #0xB5,#0x02	; 693
	.byte #0x5F,#0x02	; 607
	.byte #0x2A,#0x06	; 1578
	.byte #0x8B,#0x03	; 907
	.byte #0xFE,#0x07	; 2046
	.byte #0x14,#0x07	; 1812
	.byte #0x61,#0x03	; 865
	.byte #0x23,#0x00	; 35
	.byte #0x56,#0x04	; 1110
	.byte #0xBC,#0x04	; 1212
	.byte #0xC9,#0x00	; 201
	.byte #0x68,#0x05	; 1384
	.byte #0x1D,#0x01	; 285
	.byte #0xF7,#0x01	; 503
	.byte #0x82,#0x05	; 1410
	.byte #0x15,#0x04	; 1045
	.byte #0x60,#0x00	; 96
	.byte #0x8A,#0x00	; 138
	.byte #0xFF,#0x04	; 1279
	.byte #0x5E,#0x01	; 350
	.byte #0x2B,#0x05	; 1323
	.byte #0xC1,#0x05	; 1473
	.byte #0xB4,#0x01	; 436
	.byte #0xF6,#0x02	; 758
	.byte #0x83,#0x06	; 1667
	.byte #0x69,#0x06	; 1641
	.byte #0x1C,#0x02	; 540
	.byte #0xBD,#0x07	; 1981
	.byte #0xC8,#0x03	; 968
	.byte #0x22,#0x03	; 802
	.byte #0x57,#0x07	; 1879
	.byte #0xA6,#0x05	; 1446
	.byte #0xD3,#0x01	; 467
	.byte #0x39,#0x01	; 313
	.byte #0x4C,#0x05	; 1356
	.byte #0xED,#0x00	; 237
	.byte #0x98,#0x04	; 1176
	.byte #0x72,#0x04	; 1138
	.byte #0x07,#0x00	; 7
	.byte #0x45,#0x03	; 837
	.byte #0x30,#0x07	; 1840
	.byte #0xDA,#0x07	; 2010
	.byte #0xAF,#0x03	; 943
	.byte #0x0E,#0x06	; 1550
	.byte #0x7B,#0x02	; 635
	.byte #0x91,#0x02	; 657
	.byte #0xE4,#0x06	; 1764
	.byte #0xBF,#0x01	; 447
	.byte #0xCA,#0x05	; 1482
	.byte #0x20,#0x05	; 1312
	.byte #0x55,#0x01	; 341
	.byte #0xF4,#0x04	; 1268
	.byte #0x81,#0x00	; 129
	.byte #0x6B,#0x00	; 107
	.byte #0x1E,#0x04	; 1054
	.byte #0x5C,#0x07	; 1884
	.byte #0x29,#0x03	; 809
	.byte #0xC3,#0x03	; 963
	.byte #0xB6,#0x07	; 1974
	.byte #0x17,#0x02	; 535
	.byte #0x62,#0x06	; 1634
	.byte #0x88,#0x06	; 1672
	.byte #0xFD,#0x02	; 765
	.byte #0x0C,#0x00	; 12
	.byte #0x79,#0x04	; 1145
	.byte #0x93,#0x04	; 1171
	.byte #0xE6,#0x00	; 230
	.byte #0x47,#0x05	; 1351
	.byte #0x32,#0x01	; 306
	.byte #0xD8,#0x01	; 472
	.byte #0xAD,#0x05	; 1453
	.byte #0xEF,#0x06	; 1775
	.byte #0x9A,#0x02	; 666
	.byte #0x70,#0x02	; 624
	.byte #0x05,#0x06	; 1541
	.byte #0xA4,#0x03	; 932
	.byte #0xD1,#0x07	; 2001
	.byte #0x3B,#0x07	; 1851
	.byte #0x4E,#0x03	; 846
	.byte #0xD9,#0x02	; 729
	.byte #0xAC,#0x06	; 1708
	.byte #0x46,#0x06	; 1606
	.byte #0x33,#0x02	; 563
	.byte #0x92,#0x07	; 1938
	.byte #0xE7,#0x03	; 999
	.byte #0x0D,#0x03	; 781
	.byte #0x78,#0x07	; 1912
	.byte #0x3A,#0x04	; 1082
	.byte #0x4F,#0x00	; 79
	.byte #0xA5,#0x00	; 165
	.byte #0xD0,#0x04	; 1232
	.byte #0x71,#0x01	; 369
	.byte #0x04,#0x05	; 1284
	.byte #0xEE,#0x05	; 1518
	.byte #0x9B,#0x01	; 411
	.byte #0x6A,#0x03	; 874
	.byte #0x1F,#0x07	; 1823
	.byte #0xF5,#0x07	; 2037
	.byte #0x80,#0x03	; 896
	.byte #0x21,#0x06	; 1569
	.byte #0x54,#0x02	; 596
	.byte #0xBE,#0x02	; 702
	.byte #0xCB,#0x06	; 1739
	.byte #0x89,#0x05	; 1417
	.byte #0xFC,#0x01	; 508
	.byte #0x16,#0x01	; 278
	.byte #0x63,#0x05	; 1379
	.byte #0xC2,#0x00	; 194
	.byte #0xB7,#0x04	; 1207
	.byte #0x5D,#0x04	; 1117
	.byte #0x28,#0x00	; 40
	.byte #0x9E,#0x06	; 1694
	.byte #0xEB,#0x02	; 747
	.byte #0x01,#0x02	; 513
	.byte #0x74,#0x06	; 1652
	.byte #0xD5,#0x03	; 981
	.byte #0xA0,#0x07	; 1952
	.byte #0x4A,#0x07	; 1866
	.byte #0x3F,#0x03	; 831
	.byte #0x7D,#0x00	; 125
	.byte #0x08,#0x04	; 1032
	.byte #0xE2,#0x04	; 1250
	.byte #0x97,#0x00	; 151
	.byte #0x36,#0x05	; 1334
	.byte #0x43,#0x01	; 323
	.byte #0xA9,#0x01	; 425
	.byte #0xDC,#0x05	; 1500
	.byte #0x2D,#0x07	; 1837
	.byte #0x58,#0x03	; 856
	.byte #0xB2,#0x03	; 946
	.byte #0xC7,#0x07	; 1991
	.byte #0x66,#0x02	; 614
	.byte #0x13,#0x06	; 1555
	.byte #0xF9,#0x06	; 1785
	.byte #0x8C,#0x02	; 652
	.byte #0xCE,#0x01	; 462
	.byte #0xBB,#0x05	; 1467
	.byte #0x51,#0x05	; 1361
	.byte #0x24,#0x01	; 292
	.byte #0x85,#0x04	; 1157
	.byte #0xF0,#0x00	; 240
	.byte #0x1A,#0x00	; 26
	.byte #0x6F,#0x04	; 1135
	.byte #0xF8,#0x05	; 1528
	.byte #0x8D,#0x01	; 397
	.byte #0x67,#0x01	; 359
	.byte #0x12,#0x05	; 1298
	.byte #0xB3,#0x00	; 179
	.byte #0xC6,#0x04	; 1222
	.byte #0x2C,#0x04	; 1068
	.byte #0x59,#0x00	; 89
	.byte #0x1B,#0x03	; 795
	.byte #0x6E,#0x07	; 1902
	.byte #0x84,#0x07	; 1924
	.byte #0xF1,#0x03	; 1009
	.byte #0x50,#0x06	; 1616
	.byte #0x25,#0x02	; 549
	.byte #0xCF,#0x02	; 719
	.byte #0xBA,#0x06	; 1722
	.byte #0x4B,#0x04	; 1099
	.byte #0x3E,#0x00	; 62
	.byte #0xD4,#0x00	; 212
	.byte #0xA1,#0x04	; 1185
	.byte #0x00,#0x01	; 256
	.byte #0x75,#0x05	; 1397
	.byte #0x9F,#0x05	; 1439
	.byte #0xEA,#0x01	; 490
	.byte #0xA8,#0x02	; 680
	.byte #0xDD,#0x06	; 1757
	.byte #0x37,#0x06	; 1591
	.byte #0x42,#0x02	; 578
	.byte #0xE3,#0x07	; 2019
	.byte #0x96,#0x03	; 918
	.byte #0x7C,#0x03	; 892
	.byte #0x09,#0x07	; 1801
	.byte #0x52,#0x00	; 82
	.byte #0x27,#0x04	; 1063
	.byte #0xCD,#0x04	; 1229
	.byte #0xB8,#0x00	; 184
	.byte #0x19,#0x05	; 1305
	.byte #0x6C,#0x01	; 364
	.byte #0x86,#0x01	; 390
	.byte #0xF3,#0x05	; 1523
	.byte #0xB1,#0x06	; 1713
	.byte #0xC4,#0x02	; 708
	.byte #0x2E,#0x02	; 558
	.byte #0x5B,#0x06	; 1627
	.byte #0xFA,#0x03	; 1018
	.byte #0x8F,#0x07	; 1935
	.byte #0x65,#0x07	; 1893
	.byte #0x10,#0x03	; 784
	.byte #0xE1,#0x01	; 481
	.byte #0x94,#0x05	; 1428
	.byte #0x7E,#0x05	; 1406
	.byte #0x0B,#0x01	; 267
	.byte #0xAA,#0x04	; 1194
	.byte #0xDF,#0x00	; 223
	.byte #0x35,#0x00	; 53
	.byte #0x40,#0x04	; 1088
	.byte #0x02,#0x07	; 1794
	.byte #0x77,#0x03	; 887
	.byte #0x9D,#0x03	; 925
	.byte #0xE8,#0x07	; 2024
	.byte #0x49,#0x02	; 585
	.byte #0x3C,#0x06	; 1596
	.byte #0xD6,#0x06	; 1750
	.byte #0xA3,#0x02	; 675
	.byte #0x34,#0x03	; 820
	.byte #0x41,#0x07	; 1857
	.byte #0xAB,#0x07	; 1963
	.byte #0xDE,#0x03	; 990
	.byte #0x7F,#0x06	; 1663
	.byte #0x0A,#0x02	; 522
	.byte #0xE0,#0x02	; 736
	.byte #0x95,#0x06	; 1685
	.byte #0xD7,#0x05	; 1495
	.byte #0xA2,#0x01	; 418
	.byte #0x48,#0x01	; 328
	.byte #0x3D,#0x05	; 1341
	.byte #0x9C,#0x00	; 156
	.byte #0xE9,#0x04	; 1257
	.byte #0x03,#0x04	; 1027
	.byte #0x76,#0x00	; 118
	.byte #0x87,#0x02	; 647
	.byte #0xF2,#0x06	; 1778
	.byte #0x18,#0x06	; 1560
	.byte #0x6D,#0x02	; 621
	.byte #0xCC,#0x07	; 1996
	.byte #0xB9,#0x03	; 953
	.byte #0x53,#0x03	; 851
	.byte #0x26,#0x07	; 1830
	.byte #0x64,#0x04	; 1124
	.byte #0x11,#0x00	; 17
	.byte #0xFB,#0x00	; 251
	.byte #0x8E,#0x04	; 1166
	.byte #0x2F,#0x01	; 303
	.byte #0x5A,#0x05	; 1370
	.byte #0xB0,#0x05	; 1456
	.byte #0xC5,#0x01	; 453
	.byte #0x3A,#0x06	; 1594
	.byte #0x4F,#0x02	; 591
	.byte #0xA5,#0x02	; 677
	.byte #0xD0,#0x06	; 1744
	.byte #0x71,#0x03	; 881
	.byte #0x04,#0x07	; 1796
	.byte #0xEE,#0x07	; 2030
	.byte #0x9B,#0x03	; 923
	.byte #0xD9,#0x00	; 217
	.byte #0xAC,#0x04	; 1196
	.byte #0x46,#0x04	; 1094
	.byte #0x33,#0x00	; 51
	.byte #0x92,#0x05	; 1426
	.byte #0xE7,#0x01	; 487
	.byte #0x0D,#0x01	; 269
	.byte #0x78,#0x05	; 1400
	.byte #0x89,#0x07	; 1929
	.byte #0xFC,#0x03	; 1020
	.byte #0x16,#0x03	; 790
	.byte #0x63,#0x07	; 1891
	.byte #0xC2,#0x02	; 706
	.byte #0xB7,#0x06	; 1719
	.byte #0x5D,#0x06	; 1629
	.byte #0x28,#0x02	; 552
	.byte #0x6A,#0x01	; 362
	.byte #0x1F,#0x05	; 1311
	.byte #0xF5,#0x05	; 1525
	.byte #0x80,#0x01	; 384
	.byte #0x21,#0x04	; 1057
	.byte #0x54,#0x00	; 84
	.byte #0xBE,#0x00	; 190
	.byte #0xCB,#0x04	; 1227
	.byte #0x5C,#0x05	; 1372
	.byte #0x29,#0x01	; 297
	.byte #0xC3,#0x01	; 451
	.byte #0xB6,#0x05	; 1462
	.byte #0x17,#0x00	; 23
	.byte #0x62,#0x04	; 1122
	.byte #0x88,#0x04	; 1160
	.byte #0xFD,#0x00	; 253
	.byte #0xBF,#0x03	; 959
	.byte #0xCA,#0x07	; 1994
	.byte #0x20,#0x07	; 1824
	.byte #0x55,#0x03	; 853
	.byte #0xF4,#0x06	; 1780
	.byte #0x81,#0x02	; 641
	.byte #0x6B,#0x02	; 619
	.byte #0x1E,#0x06	; 1566
	.byte #0xEF,#0x04	; 1263
	.byte #0x9A,#0x00	; 154
	.byte #0x70,#0x00	; 112
	.byte #0x05,#0x04	; 1029
	.byte #0xA4,#0x01	; 420
	.byte #0xD1,#0x05	; 1489
	.byte #0x3B,#0x05	; 1339
	.byte #0x4E,#0x01	; 334
	.byte #0x0C,#0x02	; 524
	.byte #0x79,#0x06	; 1657
	.byte #0x93,#0x06	; 1683
	.byte #0xE6,#0x02	; 742
	.byte #0x47,#0x07	; 1863
	.byte #0x32,#0x03	; 818
	.byte #0xD8,#0x03	; 984
	.byte #0xAD,#0x07	; 1965
	.byte #0xF6,#0x00	; 246
	.byte #0x83,#0x04	; 1155
	.byte #0x69,#0x04	; 1129
	.byte #0x1C,#0x00	; 28
	.byte #0xBD,#0x05	; 1469
	.byte #0xC8,#0x01	; 456
	.byte #0x22,#0x01	; 290
	.byte #0x57,#0x05	; 1367
	.byte #0x15,#0x06	; 1557
	.byte #0x60,#0x02	; 608
	.byte #0x8A,#0x02	; 650
	.byte #0xFF,#0x06	; 1791
	.byte #0x5E,#0x03	; 862
	.byte #0x2B,#0x07	; 1835
	.byte #0xC1,#0x07	; 1985
	.byte #0xB4,#0x03	; 948
	.byte #0x45,#0x01	; 325
	.byte #0x30,#0x05	; 1328
	.byte #0xDA,#0x05	; 1498
	.byte #0xAF,#0x01	; 431
	.byte #0x0E,#0x04	; 1038
	.byte #0x7B,#0x00	; 123
	.byte #0x91,#0x00	; 145
	.byte #0xE4,#0x04	; 1252
	.byte #0xA6,#0x07	; 1958
	.byte #0xD3,#0x03	; 979
	.byte #0x39,#0x03	; 825
	.byte #0x4C,#0x07	; 1868
	.byte #0xED,#0x02	; 749
	.byte #0x98,#0x06	; 1688
	.byte #0x72,#0x06	; 1650
	.byte #0x07,#0x02	; 519
	.byte #0x90,#0x03	; 912
	.byte #0xE5,#0x07	; 2021
	.byte #0x0F,#0x07	; 1807
	.byte #0x7A,#0x03	; 890
	.byte #0xDB,#0x06	; 1755
	.byte #0xAE,#0x02	; 686
	.byte #0x44,#0x02	; 580
	.byte #0x31,#0x06	; 1585
	.byte #0x73,#0x05	; 1395
	.byte #0x06,#0x01	; 262
	.byte #0xEC,#0x01	; 492
	.byte #0x99,#0x05	; 1433
	.byte #0x38,#0x00	; 56
	.byte #0x4D,#0x04	; 1101
	.byte #0xA7,#0x04	; 1191
	.byte #0xD2,#0x00	; 210
	.byte #0x23,#0x02	; 547
	.byte #0x56,#0x06	; 1622
	.byte #0xBC,#0x06	; 1724
	.byte #0xC9,#0x02	; 713
	.byte #0x68,#0x07	; 1896
	.byte #0x1D,#0x03	; 797
	.byte #0xF7,#0x03	; 1015
	.byte #0x82,#0x07	; 1922
	.byte #0xC0,#0x04	; 1216
	.byte #0xB5,#0x00	; 181
	.byte #0x5F,#0x00	; 95
	.byte #0x2A,#0x04	; 1066
	.byte #0x8B,#0x01	; 395
	.byte #0xFE,#0x05	; 1534
	.byte #0x14,#0x05	; 1300
	.byte #0x61,#0x01	; 353
	.byte #0xD7,#0x07	; 2007
	.byte #0xA2,#0x03	; 930
	.byte #0x48,#0x03	; 840
	.byte #0x3D,#0x07	; 1853
	.byte #0x9C,#0x02	; 668
	.byte #0xE9,#0x06	; 1769
	.byte #0x03,#0x06	; 1539
	.byte #0x76,#0x02	; 630
	.byte #0x34,#0x01	; 308
	.byte #0x41,#0x05	; 1345
	.byte #0xAB,#0x05	; 1451
	.byte #0xDE,#0x01	; 478
	.byte #0x7F,#0x04	; 1151
	.byte #0x0A,#0x00	; 10
	.byte #0xE0,#0x00	; 224
	.byte #0x95,#0x04	; 1173
	.byte #0x64,#0x06	; 1636
	.byte #0x11,#0x02	; 529
	.byte #0xFB,#0x02	; 763
	.byte #0x8E,#0x06	; 1678
	.byte #0x2F,#0x03	; 815
	.byte #0x5A,#0x07	; 1882
	.byte #0xB0,#0x07	; 1968
	.byte #0xC5,#0x03	; 965
	.byte #0x87,#0x00	; 135
	.byte #0xF2,#0x04	; 1266
	.byte #0x18,#0x04	; 1048
	.byte #0x6D,#0x00	; 109
	.byte #0xCC,#0x05	; 1484
	.byte #0xB9,#0x01	; 441
	.byte #0x53,#0x01	; 339
	.byte #0x26,#0x05	; 1318
	.byte #0xB1,#0x04	; 1201
	.byte #0xC4,#0x00	; 196
	.byte #0x2E,#0x00	; 46
	.byte #0x5B,#0x04	; 1115
	.byte #0xFA,#0x01	; 506
	.byte #0x8F,#0x05	; 1423
	.byte #0x65,#0x05	; 1381
	.byte #0x10,#0x01	; 272
	.byte #0x52,#0x02	; 594
	.byte #0x27,#0x06	; 1575
	.byte #0xCD,#0x06	; 1741
	.byte #0xB8,#0x02	; 696
	.byte #0x19,#0x07	; 1817
	.byte #0x6C,#0x03	; 876
	.byte #0x86,#0x03	; 902
	.byte #0xF3,#0x07	; 2035
	.byte #0x02,#0x05	; 1282
	.byte #0x77,#0x01	; 375
	.byte #0x9D,#0x01	; 413
	.byte #0xE8,#0x05	; 1512
	.byte #0x49,#0x00	; 73
	.byte #0x3C,#0x04	; 1084
	.byte #0xD6,#0x04	; 1238
	.byte #0xA3,#0x00	; 163
	.byte #0xE1,#0x03	; 993
	.byte #0x94,#0x07	; 1940
	.byte #0x7E,#0x07	; 1918
	.byte #0x0B,#0x03	; 779
	.byte #0xAA,#0x06	; 1706
	.byte #0xDF,#0x02	; 735
	.byte #0x35,#0x02	; 565
	.byte #0x40,#0x06	; 1600
	.byte #0x1B,#0x01	; 283
	.byte #0x6E,#0x05	; 1390
	.byte #0x84,#0x05	; 1412
	.byte #0xF1,#0x01	; 497
	.byte #0x50,#0x04	; 1104
	.byte #0x25,#0x00	; 37
	.byte #0xCF,#0x00	; 207
	.byte #0xBA,#0x04	; 1210
	.byte #0xF8,#0x07	; 2040
	.byte #0x8D,#0x03	; 909
	.byte #0x67,#0x03	; 871
	.byte #0x12,#0x07	; 1810
	.byte #0xB3,#0x02	; 691
	.byte #0xC6,#0x06	; 1734
	.byte #0x2C,#0x06	; 1580
	.byte #0x59,#0x02	; 601
	.byte #0xA8,#0x00	; 168
	.byte #0xDD,#0x04	; 1245
	.byte #0x37,#0x04	; 1079
	.byte #0x42,#0x00	; 66
	.byte #0xE3,#0x05	; 1507
	.byte #0x96,#0x01	; 406
	.byte #0x7C,#0x01	; 380
	.byte #0x09,#0x05	; 1289
	.byte #0x4B,#0x06	; 1611
	.byte #0x3E,#0x02	; 574
	.byte #0xD4,#0x02	; 724
	.byte #0xA1,#0x06	; 1697
	.byte #0x00,#0x03	; 768
	.byte #0x75,#0x07	; 1909
	.byte #0x9F,#0x07	; 1951
	.byte #0xEA,#0x03	; 1002
	.byte #0x7D,#0x02	; 637
	.byte #0x08,#0x06	; 1544
	.byte #0xE2,#0x06	; 1762
	.byte #0x97,#0x02	; 663
	.byte #0x36,#0x07	; 1846
	.byte #0x43,#0x03	; 835
	.byte #0xA9,#0x03	; 937
	.byte #0xDC,#0x07	; 2012
	.byte #0x9E,#0x04	; 1182
	.byte #0xEB,#0x00	; 235
	.byte #0x01,#0x00	; 1
	.byte #0x74,#0x04	; 1140
	.byte #0xD5,#0x01	; 469
	.byte #0xA0,#0x05	; 1440
	.byte #0x4A,#0x05	; 1354
	.byte #0x3F,#0x01	; 319
	.byte #0xCE,#0x03	; 974
	.byte #0xBB,#0x07	; 1979
	.byte #0x51,#0x07	; 1873
	.byte #0x24,#0x03	; 804
	.byte #0x85,#0x06	; 1669
	.byte #0xF0,#0x02	; 752
	.byte #0x1A,#0x02	; 538
	.byte #0x6F,#0x06	; 1647
	.byte #0x2D,#0x05	; 1325
	.byte #0x58,#0x01	; 344
	.byte #0xB2,#0x01	; 434
	.byte #0xC7,#0x05	; 1479
	.byte #0x66,#0x00	; 102
	.byte #0x13,#0x04	; 1043
	.byte #0xF9,#0x04	; 1273
	.byte #0x8C,#0x00	; 140
	.byte #0xE0,#0x05	; 1504
	.byte #0x95,#0x01	; 405
	.byte #0x7F,#0x01	; 383
	.byte #0x0A,#0x05	; 1290
	.byte #0xAB,#0x00	; 171
	.byte #0xDE,#0x04	; 1246
	.byte #0x34,#0x04	; 1076
	.byte #0x41,#0x00	; 65
	.byte #0x03,#0x03	; 771
	.byte #0x76,#0x07	; 1910
	.byte #0x9C,#0x07	; 1948
	.byte #0xE9,#0x03	; 1001
	.byte #0x48,#0x06	; 1608
	.byte #0x3D,#0x02	; 573
	.byte #0xD7,#0x02	; 727
	.byte #0xA2,#0x06	; 1698
	.byte #0x53,#0x04	; 1107
	.byte #0x26,#0x00	; 38
	.byte #0xCC,#0x00	; 204
	.byte #0xB9,#0x04	; 1209
	.byte #0x18,#0x01	; 280
	.byte #0x6D,#0x05	; 1389
	.byte #0x87,#0x05	; 1415
	.byte #0xF2,#0x01	; 498
	.byte #0xB0,#0x02	; 688
	.byte #0xC5,#0x06	; 1733
	.byte #0x2F,#0x06	; 1583
	.byte #0x5A,#0x02	; 602
	.byte #0xFB,#0x07	; 2043
	.byte #0x8E,#0x03	; 910
	.byte #0x64,#0x03	; 868
	.byte #0x11,#0x07	; 1809
	.byte #0x86,#0x06	; 1670
	.byte #0xF3,#0x02	; 755
	.byte #0x19,#0x02	; 537
	.byte #0x6C,#0x06	; 1644
	.byte #0xCD,#0x03	; 973
	.byte #0xB8,#0x07	; 1976
	.byte #0x52,#0x07	; 1874
	.byte #0x27,#0x03	; 807
	.byte #0x65,#0x00	; 101
	.byte #0x10,#0x04	; 1040
	.byte #0xFA,#0x04	; 1274
	.byte #0x8F,#0x00	; 143
	.byte #0x2E,#0x05	; 1326
	.byte #0x5B,#0x01	; 347
	.byte #0xB1,#0x01	; 433
	.byte #0xC4,#0x05	; 1476
	.byte #0x35,#0x07	; 1845
	.byte #0x40,#0x03	; 832
	.byte #0xAA,#0x03	; 938
	.byte #0xDF,#0x07	; 2015
	.byte #0x7E,#0x02	; 638
	.byte #0x0B,#0x06	; 1547
	.byte #0xE1,#0x06	; 1761
	.byte #0x94,#0x02	; 660
	.byte #0xD6,#0x01	; 470
	.byte #0xA3,#0x05	; 1443
	.byte #0x49,#0x05	; 1353
	.byte #0x3C,#0x01	; 316
	.byte #0x9D,#0x04	; 1181
	.byte #0xE8,#0x00	; 232
	.byte #0x02,#0x00	; 2
	.byte #0x77,#0x04	; 1143
	.byte #0x2C,#0x03	; 812
	.byte #0x59,#0x07	; 1881
	.byte #0xB3,#0x07	; 1971
	.byte #0xC6,#0x03	; 966
	.byte #0x67,#0x06	; 1639
	.byte #0x12,#0x02	; 530
	.byte #0xF8,#0x02	; 760
	.byte #0x8D,#0x06	; 1677
	.byte #0xCF,#0x05	; 1487
	.byte #0xBA,#0x01	; 442
	.byte #0x50,#0x01	; 336
	.byte #0x25,#0x05	; 1317
	.byte #0x84,#0x00	; 132
	.byte #0xF1,#0x04	; 1265
	.byte #0x1B,#0x04	; 1051
	.byte #0x6E,#0x00	; 110
	.byte #0x9F,#0x02	; 671
	.byte #0xEA,#0x06	; 1770
	.byte #0x00,#0x06	; 1536
	.byte #0x75,#0x02	; 629
	.byte #0xD4,#0x07	; 2004
	.byte #0xA1,#0x03	; 929
	.byte #0x4B,#0x03	; 843
	.byte #0x3E,#0x07	; 1854
	.byte #0x7C,#0x04	; 1148
	.byte #0x09,#0x00	; 9
	.byte #0xE3,#0x00	; 227
	.byte #0x96,#0x04	; 1174
	.byte #0x37,#0x01	; 311
	.byte #0x42,#0x05	; 1346
	.byte #0xA8,#0x05	; 1448
	.byte #0xDD,#0x01	; 477
	.byte #0x4A,#0x00	; 74
	.byte #0x3F,#0x04	; 1087
	.byte #0xD5,#0x04	; 1237
	.byte #0xA0,#0x00	; 160
	.byte #0x01,#0x05	; 1281
	.byte #0x74,#0x01	; 372
	.byte #0x9E,#0x01	; 414
	.byte #0xEB,#0x05	; 1515
	.byte #0xA9,#0x06	; 1705
	.byte #0xDC,#0x02	; 732
	.byte #0x36,#0x02	; 566
	.byte #0x43,#0x06	; 1603
	.byte #0xE2,#0x03	; 994
	.byte #0x97,#0x07	; 1943
	.byte #0x7D,#0x07	; 1917
	.byte #0x08,#0x03	; 776
	.byte #0xF9,#0x01	; 505
	.byte #0x8C,#0x05	; 1420
	.byte #0x66,#0x05	; 1382
	.byte #0x13,#0x01	; 275
	.byte #0xB2,#0x04	; 1202
	.byte #0xC7,#0x00	; 199
	.byte #0x2D,#0x00	; 45
	.byte #0x58,#0x04	; 1112
	.byte #0x1A,#0x07	; 1818
	.byte #0x6F,#0x03	; 879
	.byte #0x85,#0x03	; 901
	.byte #0xF0,#0x07	; 2032
	.byte #0x51,#0x02	; 593
	.byte #0x24,#0x06	; 1572
	.byte #0xCE,#0x06	; 1742
	.byte #0xBB,#0x02	; 699
	.byte #0x0D,#0x04	; 1037
	.byte #0x78,#0x00	; 120
	.byte #0x92,#0x00	; 146
	.byte #0xE7,#0x04	; 1255
	.byte #0x46,#0x01	; 326
	.byte #0x33,#0x05	; 1331
	.byte #0xD9,#0x05	; 1497
	.byte #0xAC,#0x01	; 428
	.byte #0xEE,#0x02	; 750
	.byte #0x9B,#0x06	; 1691
	.byte #0x71,#0x06	; 1649
	.byte #0x04,#0x02	; 516
	.byte #0xA5,#0x07	; 1957
	.byte #0xD0,#0x03	; 976
	.byte #0x3A,#0x03	; 826
	.byte #0x4F,#0x07	; 1871
	.byte #0xBE,#0x05	; 1470
	.byte #0xCB,#0x01	; 459
	.byte #0x21,#0x01	; 289
	.byte #0x54,#0x05	; 1364
	.byte #0xF5,#0x00	; 245
	.byte #0x80,#0x04	; 1152
	.byte #0x6A,#0x04	; 1130
	.byte #0x1F,#0x00	; 31
	.byte #0x5D,#0x03	; 861
	.byte #0x28,#0x07	; 1832
	.byte #0xC2,#0x07	; 1986
	.byte #0xB7,#0x03	; 951
	.byte #0x16,#0x06	; 1558
	.byte #0x63,#0x02	; 611
	.byte #0x89,#0x02	; 649
	.byte #0xFC,#0x06	; 1788
	.byte #0x6B,#0x07	; 1899
	.byte #0x1E,#0x03	; 798
	.byte #0xF4,#0x03	; 1012
	.byte #0x81,#0x07	; 1921
	.byte #0x20,#0x02	; 544
	.byte #0x55,#0x06	; 1621
	.byte #0xBF,#0x06	; 1727
	.byte #0xCA,#0x02	; 714
	.byte #0x88,#0x01	; 392
	.byte #0xFD,#0x05	; 1533
	.byte #0x17,#0x05	; 1303
	.byte #0x62,#0x01	; 354
	.byte #0xC3,#0x04	; 1219
	.byte #0xB6,#0x00	; 182
	.byte #0x5C,#0x00	; 92
	.byte #0x29,#0x04	; 1065
	.byte #0xD8,#0x06	; 1752
	.byte #0xAD,#0x02	; 685
	.byte #0x47,#0x02	; 583
	.byte #0x32,#0x06	; 1586
	.byte #0x93,#0x03	; 915
	.byte #0xE6,#0x07	; 2022
	.byte #0x0C,#0x07	; 1804
	.byte #0x79,#0x03	; 889
	.byte #0x3B,#0x00	; 59
	.byte #0x4E,#0x04	; 1102
	.byte #0xA4,#0x04	; 1188
	.byte #0xD1,#0x00	; 209
	.byte #0x70,#0x05	; 1392
	.byte #0x05,#0x01	; 261
	.byte #0xEF,#0x01	; 495
	.byte #0x9A,#0x05	; 1434
	.byte #0xC1,#0x02	; 705
	.byte #0xB4,#0x06	; 1716
	.byte #0x5E,#0x06	; 1630
	.byte #0x2B,#0x02	; 555
	.byte #0x8A,#0x07	; 1930
	.byte #0xFF,#0x03	; 1023
	.byte #0x15,#0x03	; 789
	.byte #0x60,#0x07	; 1888
	.byte #0x22,#0x04	; 1058
	.byte #0x57,#0x00	; 87
	.byte #0xBD,#0x00	; 189
	.byte #0xC8,#0x04	; 1224
	.byte #0x69,#0x01	; 361
	.byte #0x1C,#0x05	; 1308
	.byte #0xF6,#0x05	; 1526
	.byte #0x83,#0x01	; 387
	.byte #0x72,#0x03	; 882
	.byte #0x07,#0x07	; 1799
	.byte #0xED,#0x07	; 2029
	.byte #0x98,#0x03	; 920
	.byte #0x39,#0x06	; 1593
	.byte #0x4C,#0x02	; 588
	.byte #0xA6,#0x02	; 678
	.byte #0xD3,#0x06	; 1747
	.byte #0x91,#0x05	; 1425
	.byte #0xE4,#0x01	; 484
	.byte #0x0E,#0x01	; 270
	.byte #0x7B,#0x05	; 1403
	.byte #0xDA,#0x00	; 218
	.byte #0xAF,#0x04	; 1199
	.byte #0x45,#0x04	; 1093
	.byte #0x30,#0x00	; 48
	.byte #0xA7,#0x01	; 423
	.byte #0xD2,#0x05	; 1490
	.byte #0x38,#0x05	; 1336
	.byte #0x4D,#0x01	; 333
	.byte #0xEC,#0x04	; 1260
	.byte #0x99,#0x00	; 153
	.byte #0x73,#0x00	; 115
	.byte #0x06,#0x04	; 1030
	.byte #0x44,#0x07	; 1860
	.byte #0x31,#0x03	; 817
	.byte #0xDB,#0x03	; 987
	.byte #0xAE,#0x07	; 1966
	.byte #0x0F,#0x02	; 527
	.byte #0x7A,#0x06	; 1658
	.byte #0x90,#0x06	; 1680
	.byte #0xE5,#0x02	; 741
	.byte #0x14,#0x00	; 20
	.byte #0x61,#0x04	; 1121
	.byte #0x8B,#0x04	; 1163
	.byte #0xFE,#0x00	; 254
	.byte #0x5F,#0x05	; 1375
	.byte #0x2A,#0x01	; 298
	.byte #0xC0,#0x01	; 448
	.byte #0xB5,#0x05	; 1461
	.byte #0xF7,#0x06	; 1783
	.byte #0x82,#0x02	; 642
	.byte #0x68,#0x02	; 616
	.byte #0x1D,#0x06	; 1565
	.byte #0xBC,#0x03	; 956
	.byte #0xC9,#0x07	; 1993
	.byte #0x23,#0x07	; 1827
	.byte #0x56,#0x03	; 854
	.byte #0x8E,#0x01	; 398
	.byte #0xFB,#0x05	; 1531
	.byte #0x11,#0x05	; 1297
	.byte #0x64,#0x01	; 356
	.byte #0xC5,#0x04	; 1221
	.byte #0xB0,#0x00	; 176
	.byte #0x5A,#0x00	; 90
	.byte #0x2F,#0x04	; 1071
	.byte #0x6D,#0x07	; 1901
	.byte #0x18,#0x03	; 792
	.byte #0xF2,#0x03	; 1010
	.byte #0x87,#0x07	; 1927
	.byte #0x26,#0x02	; 550
	.byte #0x53,#0x06	; 1619
	.byte #0xB9,#0x06	; 1721
	.byte #0xCC,#0x02	; 716
	.byte #0x3D,#0x00	; 61
	.byte #0x48,#0x04	; 1096
	.byte #0xA2,#0x04	; 1186
	.byte #0xD7,#0x00	; 215
	.byte #0x76,#0x05	; 1398
	.byte #0x03,#0x01	; 259
	.byte #0xE9,#0x01	; 489
	.byte #0x9C,#0x05	; 1436
	.byte #0xDE,#0x06	; 1758
	.byte #0xAB,#0x02	; 683
	.byte #0x41,#0x02	; 577
	.byte #0x34,#0x06	; 1588
	.byte #0x95,#0x03	; 917
	.byte #0xE0,#0x07	; 2016
	.byte #0x0A,#0x07	; 1802
	.byte #0x7F,#0x03	; 895
	.byte #0xE8,#0x02	; 744
	.byte #0x9D,#0x06	; 1693
	.byte #0x77,#0x06	; 1655
	.byte #0x02,#0x02	; 514
	.byte #0xA3,#0x07	; 1955
	.byte #0xD6,#0x03	; 982
	.byte #0x3C,#0x03	; 828
	.byte #0x49,#0x07	; 1865
	.byte #0x0B,#0x04	; 1035
	.byte #0x7E,#0x00	; 126
	.byte #0x94,#0x00	; 148
	.byte #0xE1,#0x04	; 1249
	.byte #0x40,#0x01	; 320
	.byte #0x35,#0x05	; 1333
	.byte #0xDF,#0x05	; 1503
	.byte #0xAA,#0x01	; 426
	.byte #0x5B,#0x03	; 859
	.byte #0x2E,#0x07	; 1838
	.byte #0xC4,#0x07	; 1988
	.byte #0xB1,#0x03	; 945
	.byte #0x10,#0x06	; 1552
	.byte #0x65,#0x02	; 613
	.byte #0x8F,#0x02	; 655
	.byte #0xFA,#0x06	; 1786
	.byte #0xB8,#0x05	; 1464
	.byte #0xCD,#0x01	; 461
	.byte #0x27,#0x01	; 295
	.byte #0x52,#0x05	; 1362
	.byte #0xF3,#0x00	; 243
	.byte #0x86,#0x04	; 1158
	.byte #0x6C,#0x04	; 1132
	.byte #0x19,#0x00	; 25
	.byte #0x42,#0x07	; 1858
	.byte #0x37,#0x03	; 823
	.byte #0xDD,#0x03	; 989
	.byte #0xA8,#0x07	; 1960
	.byte #0x09,#0x02	; 521
	.byte #0x7C,#0x06	; 1660
	.byte #0x96,#0x06	; 1686
	.byte #0xE3,#0x02	; 739
	.byte #0xA1,#0x01	; 417
	.byte #0xD4,#0x05	; 1492
	.byte #0x3E,#0x05	; 1342
	.byte #0x4B,#0x01	; 331
	.byte #0xEA,#0x04	; 1258
	.byte #0x9F,#0x00	; 159
	.byte #0x75,#0x00	; 117
	.byte #0x00,#0x04	; 1024
	.byte #0xF1,#0x06	; 1777
	.byte #0x84,#0x02	; 644
	.byte #0x6E,#0x02	; 622
	.byte #0x1B,#0x06	; 1563
	.byte #0xBA,#0x03	; 954
	.byte #0xCF,#0x07	; 1999
	.byte #0x25,#0x07	; 1829
	.byte #0x50,#0x03	; 848
	.byte #0x12,#0x00	; 18
	.byte #0x67,#0x04	; 1127
	.byte #0x8D,#0x04	; 1165
	.byte #0xF8,#0x00	; 248
	.byte #0x59,#0x05	; 1369
	.byte #0x2C,#0x01	; 300
	.byte #0xC6,#0x01	; 454
	.byte #0xB3,#0x05	; 1459
	.byte #0x24,#0x04	; 1060
	.byte #0x51,#0x00	; 81
	.byte #0xBB,#0x00	; 187
	.byte #0xCE,#0x04	; 1230
	.byte #0x6F,#0x01	; 367
	.byte #0x1A,#0x05	; 1306
	.byte #0xF0,#0x05	; 1520
	.byte #0x85,#0x01	; 389
	.byte #0xC7,#0x02	; 711
	.byte #0xB2,#0x06	; 1714
	.byte #0x58,#0x06	; 1624
	.byte #0x2D,#0x02	; 557
	.byte #0x8C,#0x07	; 1932
	.byte #0xF9,#0x03	; 1017
	.byte #0x13,#0x03	; 787
	.byte #0x66,#0x07	; 1894
	.byte #0x97,#0x05	; 1431
	.byte #0xE2,#0x01	; 482
	.byte #0x08,#0x01	; 264
	.byte #0x7D,#0x05	; 1405
	.byte #0xDC,#0x00	; 220
	.byte #0xA9,#0x04	; 1193
	.byte #0x43,#0x04	; 1091
	.byte #0x36,#0x00	; 54
	.byte #0x74,#0x03	; 884
	.byte #0x01,#0x07	; 1793
	.byte #0xEB,#0x07	; 2027
	.byte #0x9E,#0x03	; 926
	.byte #0x3F,#0x06	; 1599
	.byte #0x4A,#0x02	; 586
	.byte #0xA0,#0x02	; 672
	.byte #0xD5,#0x06	; 1749
	.byte #0x63,#0x00	; 99
	.byte #0x16,#0x04	; 1046
	.byte #0xFC,#0x04	; 1276
	.byte #0x89,#0x00	; 137
	.byte #0x28,#0x05	; 1320
	.byte #0x5D,#0x01	; 349
	.byte #0xB7,#0x01	; 439
	.byte #0xC2,#0x05	; 1474
	.byte #0x80,#0x06	; 1664
	.byte #0xF5,#0x02	; 757
	.byte #0x1F,#0x02	; 543
	.byte #0x6A,#0x06	; 1642
	.byte #0xCB,#0x03	; 971
	.byte #0xBE,#0x07	; 1982
	.byte #0x54,#0x07	; 1876
	.byte #0x21,#0x03	; 801
	.byte #0xD0,#0x01	; 464
	.byte #0xA5,#0x05	; 1445
	.byte #0x4F,#0x05	; 1359
	.byte #0x3A,#0x01	; 314
	.byte #0x9B,#0x04	; 1179
	.byte #0xEE,#0x00	; 238
	.byte #0x04,#0x00	; 4
	.byte #0x71,#0x04	; 1137
	.byte #0x33,#0x07	; 1843
	.byte #0x46,#0x03	; 838
	.byte #0xAC,#0x03	; 940
	.byte #0xD9,#0x07	; 2009
	.byte #0x78,#0x02	; 632
	.byte #0x0D,#0x06	; 1549
	.byte #0xE7,#0x06	; 1767
	.byte #0x92,#0x02	; 658
	.byte #0x05,#0x03	; 773
	.byte #0x70,#0x07	; 1904
	.byte #0x9A,#0x07	; 1946
	.byte #0xEF,#0x03	; 1007
	.byte #0x4E,#0x06	; 1614
	.byte #0x3B,#0x02	; 571
	.byte #0xD1,#0x02	; 721
	.byte #0xA4,#0x06	; 1700
	.byte #0xE6,#0x05	; 1510
	.byte #0x93,#0x01	; 403
	.byte #0x79,#0x01	; 377
	.byte #0x0C,#0x05	; 1292
	.byte #0xAD,#0x00	; 173
	.byte #0xD8,#0x04	; 1240
	.byte #0x32,#0x04	; 1074
	.byte #0x47,#0x00	; 71
	.byte #0xB6,#0x02	; 694
	.byte #0xC3,#0x06	; 1731
	.byte #0x29,#0x06	; 1577
	.byte #0x5C,#0x02	; 604
	.byte #0xFD,#0x07	; 2045
	.byte #0x88,#0x03	; 904
	.byte #0x62,#0x03	; 866
	.byte #0x17,#0x07	; 1815
	.byte #0x55,#0x04	; 1109
	.byte #0x20,#0x00	; 32
	.byte #0xCA,#0x00	; 202
	.byte #0xBF,#0x04	; 1215
	.byte #0x1E,#0x01	; 286
	.byte #0x6B,#0x05	; 1387
	.byte #0x81,#0x05	; 1409
	.byte #0xF4,#0x01	; 500
	.byte #0xAF,#0x06	; 1711
	.byte #0xDA,#0x02	; 730
	.byte #0x30,#0x02	; 560
	.byte #0x45,#0x06	; 1605
	.byte #0xE4,#0x03	; 996
	.byte #0x91,#0x07	; 1937
	.byte #0x7B,#0x07	; 1915
	.byte #0x0E,#0x03	; 782
	.byte #0x4C,#0x00	; 76
	.byte #0x39,#0x04	; 1081
	.byte #0xD3,#0x04	; 1235
	.byte #0xA6,#0x00	; 166
	.byte #0x07,#0x05	; 1287
	.byte #0x72,#0x01	; 370
	.byte #0x98,#0x01	; 408
	.byte #0xED,#0x05	; 1517
	.byte #0x1C,#0x07	; 1820
	.byte #0x69,#0x03	; 873
	.byte #0x83,#0x03	; 899
	.byte #0xF6,#0x07	; 2038
	.byte #0x57,#0x02	; 599
	.byte #0x22,#0x06	; 1570
	.byte #0xC8,#0x06	; 1736
	.byte #0xBD,#0x02	; 701
	.byte #0xFF,#0x01	; 511
	.byte #0x8A,#0x05	; 1418
	.byte #0x60,#0x05	; 1376
	.byte #0x15,#0x01	; 277
	.byte #0xB4,#0x04	; 1204
	.byte #0xC1,#0x00	; 193
	.byte #0x2B,#0x00	; 43
	.byte #0x5E,#0x04	; 1118
	.byte #0xC9,#0x05	; 1481
	.byte #0xBC,#0x01	; 444
	.byte #0x56,#0x01	; 342
	.byte #0x23,#0x05	; 1315
	.byte #0x82,#0x00	; 130
	.byte #0xF7,#0x04	; 1271
	.byte #0x1D,#0x04	; 1053
	.byte #0x68,#0x00	; 104
	.byte #0x2A,#0x03	; 810
	.byte #0x5F,#0x07	; 1887
	.byte #0xB5,#0x07	; 1973
	.byte #0xC0,#0x03	; 960
	.byte #0x61,#0x06	; 1633
	.byte #0x14,#0x02	; 532
	.byte #0xFE,#0x02	; 766
	.byte #0x8B,#0x06	; 1675
	.byte #0x7A,#0x04	; 1146
	.byte #0x0F,#0x00	; 15
	.byte #0xE5,#0x00	; 229
	.byte #0x90,#0x04	; 1168
	.byte #0x31,#0x01	; 305
	.byte #0x44,#0x05	; 1348
	.byte #0xAE,#0x05	; 1454
	.byte #0xDB,#0x01	; 475
	.byte #0x99,#0x02	; 665
	.byte #0xEC,#0x06	; 1772
	.byte #0x06,#0x06	; 1542
	.byte #0x73,#0x02	; 627
	.byte #0xD2,#0x07	; 2002
	.byte #0xA7,#0x03	; 935
	.byte #0x4D,#0x03	; 845
	.byte #0x38,#0x07	; 1848
	.byte #0x54,#0x02	; 596
	.byte #0x21,#0x06	; 1569
	.byte #0xCB,#0x06	; 1739
	.byte #0xBE,#0x02	; 702
	.byte #0x1F,#0x07	; 1823
	.byte #0x6A,#0x03	; 874
	.byte #0x80,#0x03	; 896
	.byte #0xF5,#0x07	; 2037
	.byte #0xB7,#0x04	; 1207
	.byte #0xC2,#0x00	; 194
	.byte #0x28,#0x00	; 40
	.byte #0x5D,#0x04	; 1117
	.byte #0xFC,#0x01	; 508
	.byte #0x89,#0x05	; 1417
	.byte #0x63,#0x05	; 1379
	.byte #0x16,#0x01	; 278
	.byte #0xE7,#0x03	; 999
	.byte #0x92,#0x07	; 1938
	.byte #0x78,#0x07	; 1912
	.byte #0x0D,#0x03	; 781
	.byte #0xAC,#0x06	; 1708
	.byte #0xD9,#0x02	; 729
	.byte #0x33,#0x02	; 563
	.byte #0x46,#0x06	; 1606
	.byte #0x04,#0x05	; 1284
	.byte #0x71,#0x01	; 369
	.byte #0x9B,#0x01	; 411
	.byte #0xEE,#0x05	; 1518
	.byte #0x4F,#0x00	; 79
	.byte #0x3A,#0x04	; 1082
	.byte #0xD0,#0x04	; 1232
	.byte #0xA5,#0x00	; 165
	.byte #0x32,#0x01	; 306
	.byte #0x47,#0x05	; 1351
	.byte #0xAD,#0x05	; 1453
	.byte #0xD8,#0x01	; 472
	.byte #0x79,#0x04	; 1145
	.byte #0x0C,#0x00	; 12
	.byte #0xE6,#0x00	; 230
	.byte #0x93,#0x04	; 1171
	.byte #0xD1,#0x07	; 2001
	.byte #0xA4,#0x03	; 932
	.byte #0x4E,#0x03	; 846
	.byte #0x3B,#0x07	; 1851
	.byte #0x9A,#0x02	; 666
	.byte #0xEF,#0x06	; 1775
	.byte #0x05,#0x06	; 1541
	.byte #0x70,#0x02	; 624
	.byte #0x81,#0x00	; 129
	.byte #0xF4,#0x04	; 1268
	.byte #0x1E,#0x04	; 1054
	.byte #0x6B,#0x00	; 107
	.byte #0xCA,#0x05	; 1482
	.byte #0xBF,#0x01	; 447
	.byte #0x55,#0x01	; 341
	.byte #0x20,#0x05	; 1312
	.byte #0x62,#0x06	; 1634
	.byte #0x17,#0x02	; 535
	.byte #0xFD,#0x02	; 765
	.byte #0x88,#0x06	; 1672
	.byte #0x29,#0x03	; 809
	.byte #0x5C,#0x07	; 1884
	.byte #0xB6,#0x07	; 1974
	.byte #0xC3,#0x03	; 963
	.byte #0x98,#0x04	; 1176
	.byte #0xED,#0x00	; 237
	.byte #0x07,#0x00	; 7
	.byte #0x72,#0x04	; 1138
	.byte #0xD3,#0x01	; 467
	.byte #0xA6,#0x05	; 1446
	.byte #0x4C,#0x05	; 1356
	.byte #0x39,#0x01	; 313
	.byte #0x7B,#0x02	; 635
	.byte #0x0E,#0x06	; 1550
	.byte #0xE4,#0x06	; 1764
	.byte #0x91,#0x02	; 657
	.byte #0x30,#0x07	; 1840
	.byte #0x45,#0x03	; 837
	.byte #0xAF,#0x03	; 943
	.byte #0xDA,#0x07	; 2010
	.byte #0x2B,#0x05	; 1323
	.byte #0x5E,#0x01	; 350
	.byte #0xB4,#0x01	; 436
	.byte #0xC1,#0x05	; 1473
	.byte #0x60,#0x00	; 96
	.byte #0x15,#0x04	; 1045
	.byte #0xFF,#0x04	; 1279
	.byte #0x8A,#0x00	; 138
	.byte #0xC8,#0x03	; 968
	.byte #0xBD,#0x07	; 1981
	.byte #0x57,#0x07	; 1879
	.byte #0x22,#0x03	; 802
	.byte #0x83,#0x06	; 1667
	.byte #0xF6,#0x02	; 758
	.byte #0x1C,#0x02	; 540
	.byte #0x69,#0x06	; 1641
	.byte #0xFE,#0x07	; 2046
	.byte #0x8B,#0x03	; 907
	.byte #0x61,#0x03	; 865
	.byte #0x14,#0x07	; 1812
	.byte #0xB5,#0x02	; 693
	.byte #0xC0,#0x06	; 1728
	.byte #0x2A,#0x06	; 1578
	.byte #0x5F,#0x02	; 607
	.byte #0x1D,#0x01	; 285
	.byte #0x68,#0x05	; 1384
	.byte #0x82,#0x05	; 1410
	.byte #0xF7,#0x01	; 503
	.byte #0x56,#0x04	; 1110
	.byte #0x23,#0x00	; 35
	.byte #0xC9,#0x00	; 201
	.byte #0xBC,#0x04	; 1212
	.byte #0x4D,#0x06	; 1613
	.byte #0x38,#0x02	; 568
	.byte #0xD2,#0x02	; 722
	.byte #0xA7,#0x06	; 1703
	.byte #0x06,#0x03	; 774
	.byte #0x73,#0x07	; 1907
	.byte #0x99,#0x07	; 1945
	.byte #0xEC,#0x03	; 1004
	.byte #0xAE,#0x00	; 174
	.byte #0xDB,#0x04	; 1243
	.byte #0x31,#0x04	; 1073
	.byte #0x44,#0x00	; 68
	.byte #0xE5,#0x05	; 1509
	.byte #0x90,#0x01	; 400
	.byte #0x7A,#0x01	; 378
	.byte #0x0F,#0x05	; 1295
	.byte #0xB9,#0x03	; 953
	.byte #0xCC,#0x07	; 1996
	.byte #0x26,#0x07	; 1830
	.byte #0x53,#0x03	; 851
	.byte #0xF2,#0x06	; 1778
	.byte #0x87,#0x02	; 647
	.byte #0x6D,#0x02	; 621
	.byte #0x18,#0x06	; 1560
	.byte #0x5A,#0x05	; 1370
	.byte #0x2F,#0x01	; 303
	.byte #0xC5,#0x01	; 453
	.byte #0xB0,#0x05	; 1456
	.byte #0x11,#0x00	; 17
	.byte #0x64,#0x04	; 1124
	.byte #0x8E,#0x04	; 1166
	.byte #0xFB,#0x00	; 251
	.byte #0x0A,#0x02	; 522
	.byte #0x7F,#0x06	; 1663
	.byte #0x95,#0x06	; 1685
	.byte #0xE0,#0x02	; 736
	.byte #0x41,#0x07	; 1857
	.byte #0x34,#0x03	; 820
	.byte #0xDE,#0x03	; 990
	.byte #0xAB,#0x07	; 1963
	.byte #0xE9,#0x04	; 1257
	.byte #0x9C,#0x00	; 156
	.byte #0x76,#0x00	; 118
	.byte #0x03,#0x04	; 1027
	.byte #0xA2,#0x01	; 418
	.byte #0xD7,#0x05	; 1495
	.byte #0x3D,#0x05	; 1341
	.byte #0x48,#0x01	; 328
	.byte #0xDF,#0x00	; 223
	.byte #0xAA,#0x04	; 1194
	.byte #0x40,#0x04	; 1088
	.byte #0x35,#0x00	; 53
	.byte #0x94,#0x05	; 1428
	.byte #0xE1,#0x01	; 481
	.byte #0x0B,#0x01	; 267
	.byte #0x7E,#0x05	; 1406
	.byte #0x3C,#0x06	; 1596
	.byte #0x49,#0x02	; 585
	.byte #0xA3,#0x02	; 675
	.byte #0xD6,#0x06	; 1750
	.byte #0x77,#0x03	; 887
	.byte #0x02,#0x07	; 1794
	.byte #0xE8,#0x07	; 2024
	.byte #0x9D,#0x03	; 925
	.byte #0x6C,#0x01	; 364
	.byte #0x19,#0x05	; 1305
	.byte #0xF3,#0x05	; 1523
	.byte #0x86,#0x01	; 390
	.byte #0x27,#0x04	; 1063
	.byte #0x52,#0x00	; 82
	.byte #0xB8,#0x00	; 184
	.byte #0xCD,#0x04	; 1229
	.byte #0x8F,#0x07	; 1935
	.byte #0xFA,#0x03	; 1018
	.byte #0x10,#0x03	; 784
	.byte #0x65,#0x07	; 1893
	.byte #0xC4,#0x02	; 708
	.byte #0xB1,#0x06	; 1713
	.byte #0x5B,#0x06	; 1627
	.byte #0x2E,#0x02	; 558
	.byte #0x75,#0x05	; 1397
	.byte #0x00,#0x01	; 256
	.byte #0xEA,#0x01	; 490
	.byte #0x9F,#0x05	; 1439
	.byte #0x3E,#0x00	; 62
	.byte #0x4B,#0x04	; 1099
	.byte #0xA1,#0x04	; 1185
	.byte #0xD4,#0x00	; 212
	.byte #0x96,#0x03	; 918
	.byte #0xE3,#0x07	; 2019
	.byte #0x09,#0x07	; 1801
	.byte #0x7C,#0x03	; 892
	.byte #0xDD,#0x06	; 1757
	.byte #0xA8,#0x02	; 680
	.byte #0x42,#0x02	; 578
	.byte #0x37,#0x06	; 1591
	.byte #0xC6,#0x04	; 1222
	.byte #0xB3,#0x00	; 179
	.byte #0x59,#0x00	; 89
	.byte #0x2C,#0x04	; 1068
	.byte #0x8D,#0x01	; 397
	.byte #0xF8,#0x05	; 1528
	.byte #0x12,#0x05	; 1298
	.byte #0x67,#0x01	; 359
	.byte #0x25,#0x02	; 549
	.byte #0x50,#0x06	; 1616
	.byte #0xBA,#0x06	; 1722
	.byte #0xCF,#0x02	; 719
	.byte #0x6E,#0x07	; 1902
	.byte #0x1B,#0x03	; 795
	.byte #0xF1,#0x03	; 1009
	.byte #0x84,#0x07	; 1924
	.byte #0x13,#0x06	; 1555
	.byte #0x66,#0x02	; 614
	.byte #0x8C,#0x02	; 652
	.byte #0xF9,#0x06	; 1785
	.byte #0x58,#0x03	; 856
	.byte #0x2D,#0x07	; 1837
	.byte #0xC7,#0x07	; 1991
	.byte #0xB2,#0x03	; 946
	.byte #0xF0,#0x00	; 240
	.byte #0x85,#0x04	; 1157
	.byte #0x6F,#0x04	; 1135
	.byte #0x1A,#0x00	; 26
	.byte #0xBB,#0x05	; 1467
	.byte #0xCE,#0x01	; 462
	.byte #0x24,#0x01	; 292
	.byte #0x51,#0x05	; 1361
	.byte #0xA0,#0x07	; 1952
	.byte #0xD5,#0x03	; 981
	.byte #0x3F,#0x03	; 831
	.byte #0x4A,#0x07	; 1866
	.byte #0xEB,#0x02	; 747
	.byte #0x9E,#0x06	; 1694
	.byte #0x74,#0x06	; 1652
	.byte #0x01,#0x02	; 513
	.byte #0x43,#0x01	; 323
	.byte #0x36,#0x05	; 1334
	.byte #0xDC,#0x05	; 1500
	.byte #0xA9,#0x01	; 425
	.byte #0x08,#0x04	; 1032
	.byte #0x7D,#0x00	; 125
	.byte #0x97,#0x00	; 151
	.byte #0xE2,#0x04	; 1250
	.byte #0x27,#0x05	; 1319
	.byte #0x52,#0x01	; 338
	.byte #0xB8,#0x01	; 440
	.byte #0xCD,#0x05	; 1485
	.byte #0x6C,#0x00	; 108
	.byte #0x19,#0x04	; 1049
	.byte #0xF3,#0x04	; 1267
	.byte #0x86,#0x00	; 134
	.byte #0xC4,#0x03	; 964
	.byte #0xB1,#0x07	; 1969
	.byte #0x5B,#0x07	; 1883
	.byte #0x2E,#0x03	; 814
	.byte #0x8F,#0x06	; 1679
	.byte #0xFA,#0x02	; 762
	.byte #0x10,#0x02	; 528
	.byte #0x65,#0x06	; 1637
	.byte #0x94,#0x04	; 1172
	.byte #0xE1,#0x00	; 225
	.byte #0x0B,#0x00	; 11
	.byte #0x7E,#0x04	; 1150
	.byte #0xDF,#0x01	; 479
	.byte #0xAA,#0x05	; 1450
	.byte #0x40,#0x05	; 1344
	.byte #0x35,#0x01	; 309
	.byte #0x77,#0x02	; 631
	.byte #0x02,#0x06	; 1538
	.byte #0xE8,#0x06	; 1768
	.byte #0x9D,#0x02	; 669
	.byte #0x3C,#0x07	; 1852
	.byte #0x49,#0x03	; 841
	.byte #0xA3,#0x03	; 931
	.byte #0xD6,#0x07	; 2006
	.byte #0x41,#0x06	; 1601
	.byte #0x34,#0x02	; 564
	.byte #0xDE,#0x02	; 734
	.byte #0xAB,#0x06	; 1707
	.byte #0x0A,#0x03	; 778
	.byte #0x7F,#0x07	; 1919
	.byte #0x95,#0x07	; 1941
	.byte #0xE0,#0x03	; 992
	.byte #0xA2,#0x00	; 162
	.byte #0xD7,#0x04	; 1239
	.byte #0x3D,#0x04	; 1085
	.byte #0x48,#0x00	; 72
	.byte #0xE9,#0x05	; 1513
	.byte #0x9C,#0x01	; 412
	.byte #0x76,#0x01	; 374
	.byte #0x03,#0x05	; 1283
	.byte #0xF2,#0x07	; 2034
	.byte #0x87,#0x03	; 903
	.byte #0x6D,#0x03	; 877
	.byte #0x18,#0x07	; 1816
	.byte #0xB9,#0x02	; 697
	.byte #0xCC,#0x06	; 1740
	.byte #0x26,#0x06	; 1574
	.byte #0x53,#0x02	; 595
	.byte #0x11,#0x01	; 273
	.byte #0x64,#0x05	; 1380
	.byte #0x8E,#0x05	; 1422
	.byte #0xFB,#0x01	; 507
	.byte #0x5A,#0x04	; 1114
	.byte #0x2F,#0x00	; 47
	.byte #0xC5,#0x00	; 197
	.byte #0xB0,#0x04	; 1200
	.byte #0xEB,#0x03	; 1003
	.byte #0x9E,#0x07	; 1950
	.byte #0x74,#0x07	; 1908
	.byte #0x01,#0x03	; 769
	.byte #0xA0,#0x06	; 1696
	.byte #0xD5,#0x02	; 725
	.byte #0x3F,#0x02	; 575
	.byte #0x4A,#0x06	; 1610
	.byte #0x08,#0x05	; 1288
	.byte #0x7D,#0x01	; 381
	.byte #0x97,#0x01	; 407
	.byte #0xE2,#0x05	; 1506
	.byte #0x43,#0x00	; 67
	.byte #0x36,#0x04	; 1078
	.byte #0xDC,#0x04	; 1244
	.byte #0xA9,#0x00	; 169
	.byte #0x58,#0x02	; 600
	.byte #0x2D,#0x06	; 1581
	.byte #0xC7,#0x06	; 1735
	.byte #0xB2,#0x02	; 690
	.byte #0x13,#0x07	; 1811
	.byte #0x66,#0x03	; 870
	.byte #0x8C,#0x03	; 908
	.byte #0xF9,#0x07	; 2041
	.byte #0xBB,#0x04	; 1211
	.byte #0xCE,#0x00	; 206
	.byte #0x24,#0x00	; 36
	.byte #0x51,#0x04	; 1105
	.byte #0xF0,#0x01	; 496
	.byte #0x85,#0x05	; 1413
	.byte #0x6F,#0x05	; 1391
	.byte #0x1A,#0x01	; 282
	.byte #0x8D,#0x00	; 141
	.byte #0xF8,#0x04	; 1272
	.byte #0x12,#0x04	; 1042
	.byte #0x67,#0x00	; 103
	.byte #0xC6,#0x05	; 1478
	.byte #0xB3,#0x01	; 435
	.byte #0x59,#0x01	; 345
	.byte #0x2C,#0x05	; 1324
	.byte #0x6E,#0x06	; 1646
	.byte #0x1B,#0x02	; 539
	.byte #0xF1,#0x02	; 753
	.byte #0x84,#0x06	; 1668
	.byte #0x25,#0x03	; 805
	.byte #0x50,#0x07	; 1872
	.byte #0xBA,#0x07	; 1978
	.byte #0xCF,#0x03	; 975
	.byte #0x3E,#0x01	; 318
	.byte #0x4B,#0x05	; 1355
	.byte #0xA1,#0x05	; 1441
	.byte #0xD4,#0x01	; 468
	.byte #0x75,#0x04	; 1141
	.byte #0x00,#0x00	; 0
	.byte #0xEA,#0x00	; 234
	.byte #0x9F,#0x04	; 1183
	.byte #0xDD,#0x07	; 2013
	.byte #0xA8,#0x03	; 936
	.byte #0x42,#0x03	; 834
	.byte #0x37,#0x07	; 1847
	.byte #0x96,#0x02	; 662
	.byte #0xE3,#0x06	; 1763
	.byte #0x09,#0x06	; 1545
	.byte #0x7C,#0x02	; 636
	.byte #0xCA,#0x04	; 1226
	.byte #0xBF,#0x00	; 191
	.byte #0x55,#0x00	; 85
	.byte #0x20,#0x04	; 1056
	.byte #0x81,#0x01	; 385
	.byte #0xF4,#0x05	; 1524
	.byte #0x1E,#0x05	; 1310
	.byte #0x6B,#0x01	; 363
	.byte #0x29,#0x02	; 553
	.byte #0x5C,#0x06	; 1628
	.byte #0xB6,#0x06	; 1718
	.byte #0xC3,#0x02	; 707
	.byte #0x62,#0x07	; 1890
	.byte #0x17,#0x03	; 791
	.byte #0xFD,#0x03	; 1021
	.byte #0x88,#0x07	; 1928
	.byte #0x79,#0x05	; 1401
	.byte #0x0C,#0x01	; 268
	.byte #0xE6,#0x01	; 486
	.byte #0x93,#0x05	; 1427
	.byte #0x32,#0x00	; 50
	.byte #0x47,#0x04	; 1095
	.byte #0xAD,#0x04	; 1197
	.byte #0xD8,#0x00	; 216
	.byte #0x9A,#0x03	; 922
	.byte #0xEF,#0x07	; 2031
	.byte #0x05,#0x07	; 1797
	.byte #0x70,#0x03	; 880
	.byte #0xD1,#0x06	; 1745
	.byte #0xA4,#0x02	; 676
	.byte #0x4E,#0x02	; 590
	.byte #0x3B,#0x06	; 1595
	.byte #0xAC,#0x07	; 1964
	.byte #0xD9,#0x03	; 985
	.byte #0x33,#0x03	; 819
	.byte #0x46,#0x07	; 1862
	.byte #0xE7,#0x02	; 743
	.byte #0x92,#0x06	; 1682
	.byte #0x78,#0x06	; 1656
	.byte #0x0D,#0x02	; 525
	.byte #0x4F,#0x01	; 335
	.byte #0x3A,#0x05	; 1338
	.byte #0xD0,#0x05	; 1488
	.byte #0xA5,#0x01	; 421
	.byte #0x04,#0x04	; 1028
	.byte #0x71,#0x00	; 113
	.byte #0x9B,#0x00	; 155
	.byte #0xEE,#0x04	; 1262
	.byte #0x1F,#0x06	; 1567
	.byte #0x6A,#0x02	; 618
	.byte #0x80,#0x02	; 640
	.byte #0xF5,#0x06	; 1781
	.byte #0x54,#0x03	; 852
	.byte #0x21,#0x07	; 1825
	.byte #0xCB,#0x07	; 1995
	.byte #0xBE,#0x03	; 958
	.byte #0xFC,#0x00	; 252
	.byte #0x89,#0x04	; 1161
	.byte #0x63,#0x04	; 1123
	.byte #0x16,#0x00	; 22
	.byte #0xB7,#0x05	; 1463
	.byte #0xC2,#0x01	; 450
	.byte #0x28,#0x01	; 296
	.byte #0x5D,#0x05	; 1373
	.byte #0x06,#0x02	; 518
	.byte #0x73,#0x06	; 1651
	.byte #0x99,#0x06	; 1689
	.byte #0xEC,#0x02	; 748
	.byte #0x4D,#0x07	; 1869
	.byte #0x38,#0x03	; 824
	.byte #0xD2,#0x03	; 978
	.byte #0xA7,#0x07	; 1959
	.byte #0xE5,#0x04	; 1253
	.byte #0x90,#0x00	; 144
	.byte #0x7A,#0x00	; 122
	.byte #0x0F,#0x04	; 1039
	.byte #0xAE,#0x01	; 430
	.byte #0xDB,#0x05	; 1499
	.byte #0x31,#0x05	; 1329
	.byte #0x44,#0x01	; 324
	.byte #0xB5,#0x03	; 949
	.byte #0xC0,#0x07	; 1984
	.byte #0x2A,#0x07	; 1834
	.byte #0x5F,#0x03	; 863
	.byte #0xFE,#0x06	; 1790
	.byte #0x8B,#0x02	; 651
	.byte #0x61,#0x02	; 609
	.byte #0x14,#0x06	; 1556
	.byte #0x56,#0x05	; 1366
	.byte #0x23,#0x01	; 291
	.byte #0xC9,#0x01	; 457
	.byte #0xBC,#0x05	; 1468
	.byte #0x1D,#0x00	; 29
	.byte #0x68,#0x04	; 1128
	.byte #0x82,#0x04	; 1154
	.byte #0xF7,#0x00	; 247
	.byte #0x60,#0x01	; 352
	.byte #0x15,#0x05	; 1301
	.byte #0xFF,#0x05	; 1535
	.byte #0x8A,#0x01	; 394
	.byte #0x2B,#0x04	; 1067
	.byte #0x5E,#0x00	; 94
	.byte #0xB4,#0x00	; 180
	.byte #0xC1,#0x04	; 1217
	.byte #0x83,#0x07	; 1923
	.byte #0xF6,#0x03	; 1014
	.byte #0x1C,#0x03	; 796
	.byte #0x69,#0x07	; 1897
	.byte #0xC8,#0x02	; 712
	.byte #0xBD,#0x06	; 1725
	.byte #0x57,#0x06	; 1623
	.byte #0x22,#0x02	; 546
	.byte #0xD3,#0x00	; 211
	.byte #0xA6,#0x04	; 1190
	.byte #0x4C,#0x04	; 1100
	.byte #0x39,#0x00	; 57
	.byte #0x98,#0x05	; 1432
	.byte #0xED,#0x01	; 493
	.byte #0x07,#0x01	; 263
	.byte #0x72,#0x05	; 1394
	.byte #0x30,#0x06	; 1584
	.byte #0x45,#0x02	; 581
	.byte #0xAF,#0x02	; 687
	.byte #0xDA,#0x06	; 1754
	.byte #0x7B,#0x03	; 891
	.byte #0x0E,#0x07	; 1806
	.byte #0xE4,#0x07	; 2020
	.byte #0x91,#0x03	; 913
	.byte #0xFD,#0x06	; 1789
	.byte #0x88,#0x02	; 648
	.byte #0x62,#0x02	; 610
	.byte #0x17,#0x06	; 1559
	.byte #0xB6,#0x03	; 950
	.byte #0xC3,#0x07	; 1987
	.byte #0x29,#0x07	; 1833
	.byte #0x5C,#0x03	; 860
	.byte #0x1E,#0x00	; 30
	.byte #0x6B,#0x04	; 1131
	.byte #0x81,#0x04	; 1153
	.byte #0xF4,#0x00	; 244
	.byte #0x55,#0x05	; 1365
	.byte #0x20,#0x01	; 288
	.byte #0xCA,#0x01	; 458
	.byte #0xBF,#0x05	; 1471
	.byte #0x4E,#0x07	; 1870
	.byte #0x3B,#0x03	; 827
	.byte #0xD1,#0x03	; 977
	.byte #0xA4,#0x07	; 1956
	.byte #0x05,#0x02	; 517
	.byte #0x70,#0x06	; 1648
	.byte #0x9A,#0x06	; 1690
	.byte #0xEF,#0x02	; 751
	.byte #0xAD,#0x01	; 429
	.byte #0xD8,#0x05	; 1496
	.byte #0x32,#0x05	; 1330
	.byte #0x47,#0x01	; 327
	.byte #0xE6,#0x04	; 1254
	.byte #0x93,#0x00	; 147
	.byte #0x79,#0x00	; 121
	.byte #0x0C,#0x04	; 1036
	.byte #0x9B,#0x05	; 1435
	.byte #0xEE,#0x01	; 494
	.byte #0x04,#0x01	; 260
	.byte #0x71,#0x05	; 1393
	.byte #0xD0,#0x00	; 208
	.byte #0xA5,#0x04	; 1189
	.byte #0x4F,#0x04	; 1103
	.byte #0x3A,#0x00	; 58
	.byte #0x78,#0x03	; 888
	.byte #0x0D,#0x07	; 1805
	.byte #0xE7,#0x07	; 2023
	.byte #0x92,#0x03	; 914
	.byte #0x33,#0x06	; 1587
	.byte #0x46,#0x02	; 582
	.byte #0xAC,#0x02	; 684
	.byte #0xD9,#0x06	; 1753
	.byte #0x28,#0x04	; 1064
	.byte #0x5D,#0x00	; 93
	.byte #0xB7,#0x00	; 183
	.byte #0xC2,#0x04	; 1218
	.byte #0x63,#0x01	; 355
	.byte #0x16,#0x05	; 1302
	.byte #0xFC,#0x05	; 1532
	.byte #0x89,#0x01	; 393
	.byte #0xCB,#0x02	; 715
	.byte #0xBE,#0x06	; 1726
	.byte #0x54,#0x06	; 1620
	.byte #0x21,#0x02	; 545
	.byte #0x80,#0x07	; 1920
	.byte #0xF5,#0x03	; 1013
	.byte #0x1F,#0x03	; 799
	.byte #0x6A,#0x07	; 1898
	.byte #0x31,#0x00	; 49
	.byte #0x44,#0x04	; 1092
	.byte #0xAE,#0x04	; 1198
	.byte #0xDB,#0x00	; 219
	.byte #0x7A,#0x05	; 1402
	.byte #0x0F,#0x01	; 271
	.byte #0xE5,#0x01	; 485
	.byte #0x90,#0x05	; 1424
	.byte #0xD2,#0x06	; 1746
	.byte #0xA7,#0x02	; 679
	.byte #0x4D,#0x02	; 589
	.byte #0x38,#0x06	; 1592
	.byte #0x99,#0x03	; 921
	.byte #0xEC,#0x07	; 2028
	.byte #0x06,#0x07	; 1798
	.byte #0x73,#0x03	; 883
	.byte #0x82,#0x01	; 386
	.byte #0xF7,#0x05	; 1527
	.byte #0x1D,#0x05	; 1309
	.byte #0x68,#0x01	; 360
	.byte #0xC9,#0x04	; 1225
	.byte #0xBC,#0x00	; 188
	.byte #0x56,#0x00	; 86
	.byte #0x23,#0x04	; 1059
	.byte #0x61,#0x07	; 1889
	.byte #0x14,#0x03	; 788
	.byte #0xFE,#0x03	; 1022
	.byte #0x8B,#0x07	; 1931
	.byte #0x2A,#0x02	; 554
	.byte #0x5F,#0x06	; 1631
	.byte #0xB5,#0x06	; 1717
	.byte #0xC0,#0x02	; 704
	.byte #0x57,#0x03	; 855
	.byte #0x22,#0x07	; 1826
	.byte #0xC8,#0x07	; 1992
	.byte #0xBD,#0x03	; 957
	.byte #0x1C,#0x06	; 1564
	.byte #0x69,#0x02	; 617
	.byte #0x83,#0x02	; 643
	.byte #0xF6,#0x06	; 1782
	.byte #0xB4,#0x05	; 1460
	.byte #0xC1,#0x01	; 449
	.byte #0x2B,#0x01	; 299
	.byte #0x5E,#0x05	; 1374
	.byte #0xFF,#0x00	; 255
	.byte #0x8A,#0x04	; 1162
	.byte #0x60,#0x04	; 1120
	.byte #0x15,#0x00	; 21
	.byte #0xE4,#0x02	; 740
	.byte #0x91,#0x06	; 1681
	.byte #0x7B,#0x06	; 1659
	.byte #0x0E,#0x02	; 526
	.byte #0xAF,#0x07	; 1967
	.byte #0xDA,#0x03	; 986
	.byte #0x30,#0x03	; 816
	.byte #0x45,#0x07	; 1861
	.byte #0x07,#0x04	; 1031
	.byte #0x72,#0x00	; 114
	.byte #0x98,#0x00	; 152
	.byte #0xED,#0x04	; 1261
	.byte #0x4C,#0x01	; 332
	.byte #0x39,#0x05	; 1337
	.byte #0xD3,#0x05	; 1491
	.byte #0xA6,#0x01	; 422
	.byte #0x10,#0x07	; 1808
	.byte #0x65,#0x03	; 869
	.byte #0x8F,#0x03	; 911
	.byte #0xFA,#0x07	; 2042
	.byte #0x5B,#0x02	; 603
	.byte #0x2E,#0x06	; 1582
	.byte #0xC4,#0x06	; 1732
	.byte #0xB1,#0x02	; 689
	.byte #0xF3,#0x01	; 499
	.byte #0x86,#0x05	; 1414
	.byte #0x6C,#0x05	; 1388
	.byte #0x19,#0x01	; 281
	.byte #0xB8,#0x04	; 1208
	.byte #0xCD,#0x00	; 205
	.byte #0x27,#0x00	; 39
	.byte #0x52,#0x04	; 1106
	.byte #0xA3,#0x06	; 1699
	.byte #0xD6,#0x02	; 726
	.byte #0x3C,#0x02	; 572
	.byte #0x49,#0x06	; 1609
	.byte #0xE8,#0x03	; 1000
	.byte #0x9D,#0x07	; 1949
	.byte #0x77,#0x07	; 1911
	.byte #0x02,#0x03	; 770
	.byte #0x40,#0x00	; 64
	.byte #0x35,#0x04	; 1077
	.byte #0xDF,#0x04	; 1247
	.byte #0xAA,#0x00	; 170
	.byte #0x0B,#0x05	; 1291
	.byte #0x7E,#0x01	; 382
	.byte #0x94,#0x01	; 404
	.byte #0xE1,#0x05	; 1505
	.byte #0x76,#0x04	; 1142
	.byte #0x03,#0x00	; 3
	.byte #0xE9,#0x00	; 233
	.byte #0x9C,#0x04	; 1180
	.byte #0x3D,#0x01	; 317
	.byte #0x48,#0x05	; 1352
	.byte #0xA2,#0x05	; 1442
	.byte #0xD7,#0x01	; 471
	.byte #0x95,#0x02	; 661
	.byte #0xE0,#0x06	; 1760
	.byte #0x0A,#0x06	; 1546
	.byte #0x7F,#0x02	; 639
	.byte #0xDE,#0x07	; 2014
	.byte #0xAB,#0x03	; 939
	.byte #0x41,#0x03	; 833
	.byte #0x34,#0x07	; 1844
	.byte #0xC5,#0x05	; 1477
	.byte #0xB0,#0x01	; 432
	.byte #0x5A,#0x01	; 346
	.byte #0x2F,#0x05	; 1327
	.byte #0x8E,#0x00	; 142
	.byte #0xFB,#0x04	; 1275
	.byte #0x11,#0x04	; 1041
	.byte #0x64,#0x00	; 100
	.byte #0x26,#0x03	; 806
	.byte #0x53,#0x07	; 1875
	.byte #0xB9,#0x07	; 1977
	.byte #0xCC,#0x03	; 972
	.byte #0x6D,#0x06	; 1645
	.byte #0x18,#0x02	; 536
	.byte #0xF2,#0x02	; 754
	.byte #0x87,#0x06	; 1671
	.byte #0xDC,#0x01	; 476
	.byte #0xA9,#0x05	; 1449
	.byte #0x43,#0x05	; 1347
	.byte #0x36,#0x01	; 310
	.byte #0x97,#0x04	; 1175
	.byte #0xE2,#0x00	; 226
	.byte #0x08,#0x00	; 8
	.byte #0x7D,#0x04	; 1149
	.byte #0x3F,#0x07	; 1855
	.byte #0x4A,#0x03	; 842
	.byte #0xA0,#0x03	; 928
	.byte #0xD5,#0x07	; 2005
	.byte #0x74,#0x02	; 628
	.byte #0x01,#0x06	; 1537
	.byte #0xEB,#0x06	; 1771
	.byte #0x9E,#0x02	; 670
	.byte #0x6F,#0x00	; 111
	.byte #0x1A,#0x04	; 1050
	.byte #0xF0,#0x04	; 1264
	.byte #0x85,#0x00	; 133
	.byte #0x24,#0x05	; 1316
	.byte #0x51,#0x01	; 337
	.byte #0xBB,#0x01	; 443
	.byte #0xCE,#0x05	; 1486
	.byte #0x8C,#0x06	; 1676
	.byte #0xF9,#0x02	; 761
	.byte #0x13,#0x02	; 531
	.byte #0x66,#0x06	; 1638
	.byte #0xC7,#0x03	; 967
	.byte #0xB2,#0x07	; 1970
	.byte #0x58,#0x07	; 1880
	.byte #0x2D,#0x03	; 813
	.byte #0xBA,#0x02	; 698
	.byte #0xCF,#0x06	; 1743
	.byte #0x25,#0x06	; 1573
	.byte #0x50,#0x02	; 592
	.byte #0xF1,#0x07	; 2033
	.byte #0x84,#0x03	; 900
	.byte #0x6E,#0x03	; 878
	.byte #0x1B,#0x07	; 1819
	.byte #0x59,#0x04	; 1113
	.byte #0x2C,#0x00	; 44
	.byte #0xC6,#0x00	; 198
	.byte #0xB3,#0x04	; 1203
	.byte #0x12,#0x01	; 274
	.byte #0x67,#0x05	; 1383
	.byte #0x8D,#0x05	; 1421
	.byte #0xF8,#0x01	; 504
	.byte #0x09,#0x03	; 777
	.byte #0x7C,#0x07	; 1916
	.byte #0x96,#0x07	; 1942
	.byte #0xE3,#0x03	; 995
	.byte #0x42,#0x06	; 1602
	.byte #0x37,#0x02	; 567
	.byte #0xDD,#0x02	; 733
	.byte #0xA8,#0x06	; 1704
	.byte #0xEA,#0x05	; 1514
	.byte #0x9F,#0x01	; 415
	.byte #0x75,#0x01	; 373
	.byte #0x00,#0x05	; 1280
	.byte #0xA1,#0x00	; 161
	.byte #0xD4,#0x04	; 1236
	.byte #0x3E,#0x04	; 1086
	.byte #0x4B,#0x00	; 75
	.byte #0x93,#0x02	; 659
	.byte #0xE6,#0x06	; 1766
	.byte #0x0C,#0x06	; 1548
	.byte #0x79,#0x02	; 633
	.byte #0xD8,#0x07	; 2008
	.byte #0xAD,#0x03	; 941
	.byte #0x47,#0x03	; 839
	.byte #0x32,#0x07	; 1842
	.byte #0x70,#0x04	; 1136
	.byte #0x05,#0x00	; 5
	.byte #0xEF,#0x00	; 239
	.byte #0x9A,#0x04	; 1178
	.byte #0x3B,#0x01	; 315
	.byte #0x4E,#0x05	; 1358
	.byte #0xA4,#0x05	; 1444
	.byte #0xD1,#0x01	; 465
	.byte #0x20,#0x03	; 800
	.byte #0x55,#0x07	; 1877
	.byte #0xBF,#0x07	; 1983
	.byte #0xCA,#0x03	; 970
	.byte #0x6B,#0x06	; 1643
	.byte #0x1E,#0x02	; 542
	.byte #0xF4,#0x02	; 756
	.byte #0x81,#0x06	; 1665
	.byte #0xC3,#0x05	; 1475
	.byte #0xB6,#0x01	; 438
	.byte #0x5C,#0x01	; 348
	.byte #0x29,#0x05	; 1321
	.byte #0x88,#0x00	; 136
	.byte #0xFD,#0x04	; 1277
	.byte #0x17,#0x04	; 1047
	.byte #0x62,#0x00	; 98
	.byte #0xF5,#0x01	; 501
	.byte #0x80,#0x05	; 1408
	.byte #0x6A,#0x05	; 1386
	.byte #0x1F,#0x01	; 287
	.byte #0xBE,#0x04	; 1214
	.byte #0xCB,#0x00	; 203
	.byte #0x21,#0x00	; 33
	.byte #0x54,#0x04	; 1108
	.byte #0x16,#0x07	; 1814
	.byte #0x63,#0x03	; 867
	.byte #0x89,#0x03	; 905
	.byte #0xFC,#0x07	; 2044
	.byte #0x5D,#0x02	; 605
	.byte #0x28,#0x06	; 1576
	.byte #0xC2,#0x06	; 1730
	.byte #0xB7,#0x02	; 695
	.byte #0x46,#0x00	; 70
	.byte #0x33,#0x04	; 1075
	.byte #0xD9,#0x04	; 1241
	.byte #0xAC,#0x00	; 172
	.byte #0x0D,#0x05	; 1293
	.byte #0x78,#0x01	; 376
	.byte #0x92,#0x01	; 402
	.byte #0xE7,#0x05	; 1511
	.byte #0xA5,#0x06	; 1701
	.byte #0xD0,#0x02	; 720
	.byte #0x3A,#0x02	; 570
	.byte #0x4F,#0x06	; 1615
	.byte #0xEE,#0x03	; 1006
	.byte #0x9B,#0x07	; 1947
	.byte #0x71,#0x07	; 1905
	.byte #0x04,#0x03	; 772
	.byte #0x5F,#0x04	; 1119
	.byte #0x2A,#0x00	; 42
	.byte #0xC0,#0x00	; 192
	.byte #0xB5,#0x04	; 1205
	.byte #0x14,#0x01	; 276
	.byte #0x61,#0x05	; 1377
	.byte #0x8B,#0x05	; 1419
	.byte #0xFE,#0x01	; 510
	.byte #0xBC,#0x02	; 700
	.byte #0xC9,#0x06	; 1737
	.byte #0x23,#0x06	; 1571
	.byte #0x56,#0x02	; 598
	.byte #0xF7,#0x07	; 2039
	.byte #0x82,#0x03	; 898
	.byte #0x68,#0x03	; 872
	.byte #0x1D,#0x07	; 1821
	.byte #0xEC,#0x05	; 1516
	.byte #0x99,#0x01	; 409
	.byte #0x73,#0x01	; 371
	.byte #0x06,#0x05	; 1286
	.byte #0xA7,#0x00	; 167
	.byte #0xD2,#0x04	; 1234
	.byte #0x38,#0x04	; 1080
	.byte #0x4D,#0x00	; 77
	.byte #0x0F,#0x03	; 783
	.byte #0x7A,#0x07	; 1914
	.byte #0x90,#0x07	; 1936
	.byte #0xE5,#0x03	; 997
	.byte #0x44,#0x06	; 1604
	.byte #0x31,#0x02	; 561
	.byte #0xDB,#0x02	; 731
	.byte #0xAE,#0x06	; 1710
	.byte #0x39,#0x07	; 1849
	.byte #0x4C,#0x03	; 844
	.byte #0xA6,#0x03	; 934
	.byte #0xD3,#0x07	; 2003
	.byte #0x72,#0x02	; 626
	.byte #0x07,#0x06	; 1543
	.byte #0xED,#0x06	; 1773
	.byte #0x98,#0x02	; 664
	.byte #0xDA,#0x01	; 474
	.byte #0xAF,#0x05	; 1455
	.byte #0x45,#0x05	; 1349
	.byte #0x30,#0x01	; 304
	.byte #0x91,#0x04	; 1169
	.byte #0xE4,#0x00	; 228
	.byte #0x0E,#0x00	; 14
	.byte #0x7B,#0x04	; 1147
	.byte #0x8A,#0x06	; 1674
	.byte #0xFF,#0x02	; 767
	.byte #0x15,#0x02	; 533
	.byte #0x60,#0x06	; 1632
	.byte #0xC1,#0x03	; 961
	.byte #0xB4,#0x07	; 1972
	.byte #0x5E,#0x07	; 1886
	.byte #0x2B,#0x03	; 811
	.byte #0x69,#0x00	; 105
	.byte #0x1C,#0x04	; 1052
	.byte #0xF6,#0x04	; 1270
	.byte #0x83,#0x00	; 131
	.byte #0x22,#0x05	; 1314
	.byte #0x57,#0x01	; 343
	.byte #0xBD,#0x01	; 445
	.byte #0xC8,#0x05	; 1480
	.byte #0x7E,#0x03	; 894
	.byte #0x0B,#0x07	; 1803
	.byte #0xE1,#0x07	; 2017
	.byte #0x94,#0x03	; 916
	.byte #0x35,#0x06	; 1589
	.byte #0x40,#0x02	; 576
	.byte #0xAA,#0x02	; 682
	.byte #0xDF,#0x06	; 1759
	.byte #0x9D,#0x05	; 1437
	.byte #0xE8,#0x01	; 488
	.byte #0x02,#0x01	; 258
	.byte #0x77,#0x05	; 1399
	.byte #0xD6,#0x00	; 214
	.byte #0xA3,#0x04	; 1187
	.byte #0x49,#0x04	; 1097
	.byte #0x3C,#0x00	; 60
	.byte #0xCD,#0x02	; 717
	.byte #0xB8,#0x06	; 1720
	.byte #0x52,#0x06	; 1618
	.byte #0x27,#0x02	; 551
	.byte #0x86,#0x07	; 1926
	.byte #0xF3,#0x03	; 1011
	.byte #0x19,#0x03	; 793
	.byte #0x6C,#0x07	; 1900
	.byte #0x2E,#0x04	; 1070
	.byte #0x5B,#0x00	; 91
	.byte #0xB1,#0x00	; 177
	.byte #0xC4,#0x04	; 1220
	.byte #0x65,#0x01	; 357
	.byte #0x10,#0x05	; 1296
	.byte #0xFA,#0x05	; 1530
	.byte #0x8F,#0x01	; 399
	.byte #0x18,#0x00	; 24
	.byte #0x6D,#0x04	; 1133
	.byte #0x87,#0x04	; 1159
	.byte #0xF2,#0x00	; 242
	.byte #0x53,#0x05	; 1363
	.byte #0x26,#0x01	; 294
	.byte #0xCC,#0x01	; 460
	.byte #0xB9,#0x05	; 1465
	.byte #0xFB,#0x06	; 1787
	.byte #0x8E,#0x02	; 654
	.byte #0x64,#0x02	; 612
	.byte #0x11,#0x06	; 1553
	.byte #0xB0,#0x03	; 944
	.byte #0xC5,#0x07	; 1989
	.byte #0x2F,#0x07	; 1839
	.byte #0x5A,#0x03	; 858
	.byte #0xAB,#0x01	; 427
	.byte #0xDE,#0x05	; 1502
	.byte #0x34,#0x05	; 1332
	.byte #0x41,#0x01	; 321
	.byte #0xE0,#0x04	; 1248
	.byte #0x95,#0x00	; 149
	.byte #0x7F,#0x00	; 127
	.byte #0x0A,#0x04	; 1034
	.byte #0x48,#0x07	; 1864
	.byte #0x3D,#0x03	; 829
	.byte #0xD7,#0x03	; 983
	.byte #0xA2,#0x07	; 1954
	.byte #0x03,#0x02	; 515
	.byte #0x76,#0x06	; 1654
	.byte #0x9C,#0x06	; 1692
	.byte #0xE9,#0x02	; 745
	.byte #0xB2,#0x05	; 1458
	.byte #0xC7,#0x01	; 455
	.byte #0x2D,#0x01	; 301
	.byte #0x58,#0x05	; 1368
	.byte #0xF9,#0x00	; 249
	.byte #0x8C,#0x04	; 1164
	.byte #0x66,#0x04	; 1126
	.byte #0x13,#0x00	; 19
	.byte #0x51,#0x03	; 849
	.byte #0x24,#0x07	; 1828
	.byte #0xCE,#0x07	; 1998
	.byte #0xBB,#0x03	; 955
	.byte #0x1A,#0x06	; 1562
	.byte #0x6F,#0x02	; 623
	.byte #0x85,#0x02	; 645
	.byte #0xF0,#0x06	; 1776
	.byte #0x01,#0x04	; 1025
	.byte #0x74,#0x00	; 116
	.byte #0x9E,#0x00	; 158
	.byte #0xEB,#0x04	; 1259
	.byte #0x4A,#0x01	; 330
	.byte #0x3F,#0x05	; 1343
	.byte #0xD5,#0x05	; 1493
	.byte #0xA0,#0x01	; 416
	.byte #0xE2,#0x02	; 738
	.byte #0x97,#0x06	; 1687
	.byte #0x7D,#0x06	; 1661
	.byte #0x08,#0x02	; 520
	.byte #0xA9,#0x07	; 1961
	.byte #0xDC,#0x03	; 988
	.byte #0x36,#0x03	; 822
	.byte #0x43,#0x07	; 1859
	.byte #0xD4,#0x06	; 1748
	.byte #0xA1,#0x02	; 673
	.byte #0x4B,#0x02	; 587
	.byte #0x3E,#0x06	; 1598
	.byte #0x9F,#0x03	; 927
	.byte #0xEA,#0x07	; 2026
	.byte #0x00,#0x07	; 1792
	.byte #0x75,#0x03	; 885
	.byte #0x37,#0x00	; 55
	.byte #0x42,#0x04	; 1090
	.byte #0xA8,#0x04	; 1192
	.byte #0xDD,#0x00	; 221
	.byte #0x7C,#0x05	; 1404
	.byte #0x09,#0x01	; 265
	.byte #0xE3,#0x01	; 483
	.byte #0x96,#0x05	; 1430
	.byte #0x67,#0x07	; 1895
	.byte #0x12,#0x03	; 786
	.byte #0xF8,#0x03	; 1016
	.byte #0x8D,#0x07	; 1933
	.byte #0x2C,#0x02	; 556
	.byte #0x59,#0x06	; 1625
	.byte #0xB3,#0x06	; 1715
	.byte #0xC6,#0x02	; 710
	.byte #0x84,#0x01	; 388
	.byte #0xF1,#0x05	; 1521
	.byte #0x1B,#0x05	; 1307
	.byte #0x6E,#0x01	; 366
	.byte #0xCF,#0x04	; 1231
	.byte #0xBA,#0x00	; 186
	.byte #0x50,#0x00	; 80
	.byte #0x25,#0x04	; 1061
	.byte #0x49,#0x01	; 329
	.byte #0x3C,#0x05	; 1340
	.byte #0xD6,#0x05	; 1494
	.byte #0xA3,#0x01	; 419
	.byte #0x02,#0x04	; 1026
	.byte #0x77,#0x00	; 119
	.byte #0x9D,#0x00	; 157
	.byte #0xE8,#0x04	; 1256
	.byte #0xAA,#0x07	; 1962
	.byte #0xDF,#0x03	; 991
	.byte #0x35,#0x03	; 821
	.byte #0x40,#0x07	; 1856
	.byte #0xE1,#0x02	; 737
	.byte #0x94,#0x06	; 1684
	.byte #0x7E,#0x06	; 1662
	.byte #0x0B,#0x02	; 523
	.byte #0xFA,#0x00	; 250
	.byte #0x8F,#0x04	; 1167
	.byte #0x65,#0x04	; 1125
	.byte #0x10,#0x00	; 16
	.byte #0xB1,#0x05	; 1457
	.byte #0xC4,#0x01	; 452
	.byte #0x2E,#0x01	; 302
	.byte #0x5B,#0x05	; 1371
	.byte #0x19,#0x06	; 1561
	.byte #0x6C,#0x02	; 620
	.byte #0x86,#0x02	; 646
	.byte #0xF3,#0x06	; 1779
	.byte #0x52,#0x03	; 850
	.byte #0x27,#0x07	; 1831
	.byte #0xCD,#0x07	; 1997
	.byte #0xB8,#0x03	; 952
	.byte #0x2F,#0x02	; 559
	.byte #0x5A,#0x06	; 1626
	.byte #0xB0,#0x06	; 1712
	.byte #0xC5,#0x02	; 709
	.byte #0x64,#0x07	; 1892
	.byte #0x11,#0x03	; 785
	.byte #0xFB,#0x03	; 1019
	.byte #0x8E,#0x07	; 1934
	.byte #0xCC,#0x04	; 1228
	.byte #0xB9,#0x00	; 185
	.byte #0x53,#0x00	; 83
	.byte #0x26,#0x04	; 1062
	.byte #0x87,#0x01	; 391
	.byte #0xF2,#0x05	; 1522
	.byte #0x18,#0x05	; 1304
	.byte #0x6D,#0x01	; 365
	.byte #0x9C,#0x03	; 924
	.byte #0xE9,#0x07	; 2025
	.byte #0x03,#0x07	; 1795
	.byte #0x76,#0x03	; 886
	.byte #0xD7,#0x06	; 1751
	.byte #0xA2,#0x02	; 674
	.byte #0x48,#0x02	; 584
	.byte #0x3D,#0x06	; 1597
	.byte #0x7F,#0x05	; 1407
	.byte #0x0A,#0x01	; 266
	.byte #0xE0,#0x01	; 480
	.byte #0x95,#0x05	; 1429
	.byte #0x34,#0x00	; 52
	.byte #0x41,#0x04	; 1089
	.byte #0xAB,#0x04	; 1195
	.byte #0xDE,#0x00	; 222
	.byte #0x85,#0x07	; 1925
	.byte #0xF0,#0x03	; 1008
	.byte #0x1A,#0x03	; 794
	.byte #0x6F,#0x07	; 1903
	.byte #0xCE,#0x02	; 718
	.byte #0xBB,#0x06	; 1723
	.byte #0x51,#0x06	; 1617
	.byte #0x24,#0x02	; 548
	.byte #0x66,#0x01	; 358
	.byte #0x13,#0x05	; 1299
	.byte #0xF9,#0x05	; 1529
	.byte #0x8C,#0x01	; 396
	.byte #0x2D,#0x04	; 1069
	.byte #0x58,#0x00	; 88
	.byte #0xB2,#0x00	; 178
	.byte #0xC7,#0x04	; 1223
	.byte #0x36,#0x06	; 1590
	.byte #0x43,#0x02	; 579
	.byte #0xA9,#0x02	; 681
	.byte #0xDC,#0x06	; 1756
	.byte #0x7D,#0x03	; 893
	.byte #0x08,#0x07	; 1800
	.byte #0xE2,#0x07	; 2018
	.byte #0x97,#0x03	; 919
	.byte #0xD5,#0x00	; 213
	.byte #0xA0,#0x04	; 1184
	.byte #0x4A,#0x04	; 1098
	.byte #0x3F,#0x00	; 63
	.byte #0x9E,#0x05	; 1438
	.byte #0xEB,#0x01	; 491
	.byte #0x01,#0x01	; 257
	.byte #0x74,#0x05	; 1396
	.byte #0xE3,#0x04	; 1251
	.byte #0x96,#0x00	; 150
	.byte #0x7C,#0x00	; 124
	.byte #0x09,#0x04	; 1033
	.byte #0xA8,#0x01	; 424
	.byte #0xDD,#0x05	; 1501
	.byte #0x37,#0x05	; 1335
	.byte #0x42,#0x01	; 322
	.byte #0x00,#0x02	; 512
	.byte #0x75,#0x06	; 1653
	.byte #0x9F,#0x06	; 1695
	.byte #0xEA,#0x02	; 746
	.byte #0x4B,#0x07	; 1867
	.byte #0x3E,#0x03	; 830
	.byte #0xD4,#0x03	; 980
	.byte #0xA1,#0x07	; 1953
	.byte #0x50,#0x05	; 1360
	.byte #0x25,#0x01	; 293
	.byte #0xCF,#0x01	; 463
	.byte #0xBA,#0x05	; 1466
	.byte #0x1B,#0x00	; 27
	.byte #0x6E,#0x04	; 1134
	.byte #0x84,#0x04	; 1156
	.byte #0xF1,#0x00	; 241
	.byte #0xB3,#0x03	; 947
	.byte #0xC6,#0x07	; 1990
	.byte #0x2C,#0x07	; 1836
	.byte #0x59,#0x03	; 857
	.byte #0xF8,#0x06	; 1784
	.byte #0x8D,#0x02	; 653
	.byte #0x67,#0x02	; 615
	.byte #0x12,#0x06	; 1554
	.byte #0xA4,#0x00	; 164
	.byte #0xD1,#0x04	; 1233
	.byte #0x3B,#0x04	; 1083
	.byte #0x4E,#0x00	; 78
	.byte #0xEF,#0x05	; 1519
	.byte #0x9A,#0x01	; 410
	.byte #0x70,#0x01	; 368
	.byte #0x05,#0x05	; 1285
	.byte #0x47,#0x06	; 1607
	.byte #0x32,#0x02	; 562
	.byte #0xD8,#0x02	; 728
	.byte #0xAD,#0x06	; 1709
	.byte #0x0C,#0x03	; 780
	.byte #0x79,#0x07	; 1913
	.byte #0x93,#0x07	; 1939
	.byte #0xE6,#0x03	; 998
	.byte #0x17,#0x01	; 279
	.byte #0x62,#0x05	; 1378
	.byte #0x88,#0x05	; 1416
	.byte #0xFD,#0x01	; 509
	.byte #0x5C,#0x04	; 1116
	.byte #0x29,#0x00	; 41
	.byte #0xC3,#0x00	; 195
	.byte #0xB6,#0x04	; 1206
	.byte #0xF4,#0x07	; 2036
	.byte #0x81,#0x03	; 897
	.byte #0x6B,#0x03	; 875
	.byte #0x1E,#0x07	; 1822
	.byte #0xBF,#0x02	; 703
	.byte #0xCA,#0x06	; 1738
	.byte #0x20,#0x06	; 1568
	.byte #0x55,#0x02	; 597
	.byte #0xC2,#0x03	; 962
	.byte #0xB7,#0x07	; 1975
	.byte #0x5D,#0x07	; 1885
	.byte #0x28,#0x03	; 808
	.byte #0x89,#0x06	; 1673
	.byte #0xFC,#0x02	; 764
	.byte #0x16,#0x02	; 534
	.byte #0x63,#0x06	; 1635
	.byte #0x21,#0x05	; 1313
	.byte #0x54,#0x01	; 340
	.byte #0xBE,#0x01	; 446
	.byte #0xCB,#0x05	; 1483
	.byte #0x6A,#0x00	; 106
	.byte #0x1F,#0x04	; 1055
	.byte #0xF5,#0x04	; 1269
	.byte #0x80,#0x00	; 128
	.byte #0x71,#0x02	; 625
	.byte #0x04,#0x06	; 1540
	.byte #0xEE,#0x06	; 1774
	.byte #0x9B,#0x02	; 667
	.byte #0x3A,#0x07	; 1850
	.byte #0x4F,#0x03	; 847
	.byte #0xA5,#0x03	; 933
	.byte #0xD0,#0x07	; 2000
	.byte #0x92,#0x04	; 1170
	.byte #0xE7,#0x00	; 231
	.byte #0x0D,#0x00	; 13
	.byte #0x78,#0x04	; 1144
	.byte #0xD9,#0x01	; 473
	.byte #0xAC,#0x05	; 1452
	.byte #0x46,#0x05	; 1350
	.byte #0x33,#0x01	; 307
	.byte #0x68,#0x06	; 1640
	.byte #0x1D,#0x02	; 541
	.byte #0xF7,#0x02	; 759
	.byte #0x82,#0x06	; 1666
	.byte #0x23,#0x03	; 803
	.byte #0x56,#0x07	; 1878
	.byte #0xBC,#0x07	; 1980
	.byte #0xC9,#0x03	; 969
	.byte #0x8B,#0x00	; 139
	.byte #0xFE,#0x04	; 1278
	.byte #0x14,#0x04	; 1044
	.byte #0x61,#0x00	; 97
	.byte #0xC0,#0x05	; 1472
	.byte #0xB5,#0x01	; 437
	.byte #0x5F,#0x01	; 351
	.byte #0x2A,#0x05	; 1322
	.byte #0xDB,#0x07	; 2011
	.byte #0xAE,#0x03	; 942
	.byte #0x44,#0x03	; 836
	.byte #0x31,#0x07	; 1841
	.byte #0x90,#0x02	; 656
	.byte #0xE5,#0x06	; 1765
	.byte #0x0F,#0x06	; 1551
	.byte #0x7A,#0x02	; 634
	.byte #0x38,#0x01	; 312
	.byte #0x4D,#0x05	; 1357
	.byte #0xA7,#0x05	; 1447
	.byte #0xD2,#0x01	; 466
	.byte #0x73,#0x04	; 1139
	.byte #0x06,#0x00	; 6
	.byte #0xEC,#0x00	; 236
	.byte #0x99,#0x04	; 1177
	.byte #0x0E,#0x05	; 1294
	.byte #0x7B,#0x01	; 379
	.byte #0x91,#0x01	; 401
	.byte #0xE4,#0x05	; 1508
	.byte #0x45,#0x00	; 69
	.byte #0x30,#0x04	; 1072
	.byte #0xDA,#0x04	; 1242
	.byte #0xAF,#0x00	; 175
	.byte #0xED,#0x03	; 1005
	.byte #0x98,#0x07	; 1944
	.byte #0x72,#0x07	; 1906
	.byte #0x07,#0x03	; 775
	.byte #0xA6,#0x06	; 1702
	.byte #0xD3,#0x02	; 723
	.byte #0x39,#0x02	; 569
	.byte #0x4C,#0x06	; 1612
	.byte #0xBD,#0x04	; 1213
	.byte #0xC8,#0x00	; 200
	.byte #0x22,#0x00	; 34
	.byte #0x57,#0x04	; 1111
	.byte #0xF6,#0x01	; 502
	.byte #0x83,#0x05	; 1411
	.byte #0x69,#0x05	; 1385
	.byte #0x1C,#0x01	; 284
	.byte #0x5E,#0x02	; 606
	.byte #0x2B,#0x06	; 1579
	.byte #0xC1,#0x06	; 1729
	.byte #0xB4,#0x02	; 692
	.byte #0x15,#0x07	; 1813
	.byte #0x60,#0x03	; 864
	.byte #0x8A,#0x03	; 906
	.byte #0xFF,#0x07	; 2047
_golay23_decode:
	.byte #0x00,#0x00	; 0
	.byte #0x00,#0x00	; 0
	.byte #0x00,#0x00	; 0
	.byte #0x00,#0x00	; 0
	.byte #0x00,#0x00	; 0
	.byte #0x00,#0x00	; 0
	.byte #0x00,#0x00	; 0
	.byte #0x00,#0x00	; 0
	.byte #0x00,#0x00	; 0
	.byte #0x00,#0x00	; 0
	.byte #0x00,#0x00	; 0
	.byte #0x00,#0x00	; 0
	.byte #0x00,#0x00	; 0
	.byte #0x00,#0x00	; 0
	.byte #0x00,#0x00	; 0
	.byte #0x48,#0x00	; 72
	.byte #0x00,#0x00	; 0
	.byte #0x00,#0x00	; 0
	.byte #0x00,#0x00	; 0
	.byte #0x00,#0x00	; 0
	.byte #0x00,#0x00	; 0
	.byte #0x00,#0x00	; 0
	.byte #0x00,#0x00	; 0
	.byte #0x24,#0x08	; 2084
	.byte #0x00,#0x00	; 0
	.byte #0x00,#0x00	; 0
	.byte #0x00,#0x00	; 0
	.byte #0x01,#0x03	; 769
	.byte #0x00,#0x00	; 0
	.byte #0x00,#0x04	; 1024
	.byte #0x90,#0x00	; 144
	.byte #0x02,#0x00	; 2
	.byte #0x00,#0x00	; 0
	.byte #0x00,#0x00	; 0
	.byte #0x00,#0x00	; 0
	.byte #0x00,#0x00	; 0
	.byte #0x00,#0x00	; 0
	.byte #0x00,#0x00	; 0
	.byte #0x00,#0x00	; 0
	.byte #0x48,#0x00	; 72
	.byte #0x00,#0x00	; 0
	.byte #0x00,#0x00	; 0
	.byte #0x00,#0x00	; 0
	.byte #0x48,#0x00	; 72
	.byte #0x00,#0x00	; 0
	.byte #0x48,#0x00	; 72
	.byte #0x48,#0x00	; 72
	.byte #0x48,#0x00	; 72
	.byte #0x00,#0x00	; 0
	.byte #0x00,#0x00	; 0
	.byte #0x00,#0x00	; 0
	.byte #0x10,#0x00	; 16
	.byte #0x00,#0x00	; 0
	.byte #0x01,#0x00	; 1
	.byte #0x02,#0x06	; 1538
	.byte #0x80,#0x01	; 384
	.byte #0x00,#0x00	; 0
	.byte #0x86,#0x00	; 134
	.byte #0x00,#0x08	; 2048
	.byte #0x20,#0x04	; 1056
	.byte #0x20,#0x01	; 288
	.byte #0x10,#0x0A	; 2576
	.byte #0x05,#0x00	; 5
	.byte #0x48,#0x00	; 72
	.byte #0x00,#0x00	; 0
	.byte #0x00,#0x00	; 0
	.byte #0x00,#0x00	; 0
	.byte #0x00,#0x00	; 0
	.byte #0x00,#0x00	; 0
	.byte #0x00,#0x00	; 0
	.byte #0x00,#0x00	; 0
	.byte #0x00,#0x05	; 1280
	.byte #0x00,#0x00	; 0
	.byte #0x00,#0x00	; 0
	.byte #0x00,#0x00	; 0
	.byte #0x04,#0x00	; 4
	.byte #0x00,#0x00	; 0
	.byte #0x22,#0x02	; 546
	.byte #0x90,#0x00	; 144
	.byte #0x01,#0x08	; 2049
	.byte #0x00,#0x00	; 0
	.byte #0x00,#0x00	; 0
	.byte #0x00,#0x00	; 0
	.byte #0x42,#0x00	; 66
	.byte #0x00,#0x00	; 0
	.byte #0x01,#0x00	; 1
	.byte #0x90,#0x00	; 144
	.byte #0x08,#0x02	; 520
	.byte #0x00,#0x00	; 0
	.byte #0x08,#0x08	; 2056
	.byte #0x90,#0x00	; 144
	.byte #0x20,#0x04	; 1056
	.byte #0x90,#0x00	; 144
	.byte #0x44,#0x01	; 324
	.byte #0x90,#0x00	; 144
	.byte #0x90,#0x00	; 144
	.byte #0x00,#0x00	; 0
	.byte #0x00,#0x00	; 0
	.byte #0x00,#0x00	; 0
	.byte #0x80,#0x0A	; 2688
	.byte #0x00,#0x00	; 0
	.byte #0x01,#0x00	; 1
	.byte #0x20,#0x00	; 32
	.byte #0x16,#0x00	; 22
	.byte #0x00,#0x00	; 0
	.byte #0x10,#0x01	; 272
	.byte #0x03,#0x00	; 3
	.byte #0x20,#0x04	; 1056
	.byte #0x04,#0x0C	; 3076
	.byte #0x80,#0x00	; 128
	.byte #0x00,#0x03	; 768
	.byte #0x48,#0x00	; 72
	.byte #0x00,#0x00	; 0
	.byte #0x01,#0x00	; 1
	.byte #0x0C,#0x01	; 268
	.byte #0x20,#0x04	; 1056
	.byte #0x01,#0x00	; 1
	.byte #0x01,#0x00	; 1
	.byte #0x40,#0x08	; 2112
	.byte #0x01,#0x00	; 1
	.byte #0x40,#0x02	; 576
	.byte #0x20,#0x04	; 1056
	.byte #0x20,#0x04	; 1056
	.byte #0x20,#0x04	; 1056
	.byte #0x0A,#0x00	; 10
	.byte #0x01,#0x00	; 1
	.byte #0x90,#0x00	; 144
	.byte #0x20,#0x04	; 1056
	.byte #0x00,#0x00	; 0
	.byte #0x00,#0x00	; 0
	.byte #0x00,#0x00	; 0
	.byte #0x00,#0x00	; 0
	.byte #0x00,#0x00	; 0
	.byte #0x00,#0x00	; 0
	.byte #0x00,#0x00	; 0
	.byte #0x00,#0x05	; 1280
	.byte #0x00,#0x00	; 0
	.byte #0x00,#0x00	; 0
	.byte #0x00,#0x00	; 0
	.byte #0xA0,#0x00	; 160
	.byte #0x00,#0x00	; 0
	.byte #0x15,#0x00	; 21
	.byte #0x00,#0x0A	; 2560
	.byte #0x02,#0x00	; 2
	.byte #0x00,#0x00	; 0
	.byte #0x00,#0x00	; 0
	.byte #0x00,#0x00	; 0
	.byte #0x10,#0x00	; 16
	.byte #0x00,#0x00	; 0
	.byte #0xC0,#0x02	; 704
	.byte #0x09,#0x00	; 9
	.byte #0x02,#0x00	; 2
	.byte #0x00,#0x00	; 0
	.byte #0x08,#0x08	; 2056
	.byte #0x44,#0x04	; 1092
	.byte #0x02,#0x00	; 2
	.byte #0x20,#0x01	; 288
	.byte #0x02,#0x00	; 2
	.byte #0x02,#0x00	; 2
	.byte #0x02,#0x00	; 2
	.byte #0x00,#0x00	; 0
	.byte #0x00,#0x00	; 0
	.byte #0x00,#0x00	; 0
	.byte #0x10,#0x00	; 16
	.byte #0x00,#0x00	; 0
	.byte #0x02,#0x08	; 2050
	.byte #0x84,#0x00	; 132
	.byte #0x21,#0x02	; 545
	.byte #0x00,#0x00	; 0
	.byte #0x00,#0x06	; 1536
	.byte #0x03,#0x00	; 3
	.byte #0x04,#0x09	; 2308
	.byte #0x20,#0x01	; 288
	.byte #0x80,#0x00	; 128
	.byte #0x10,#0x04	; 1040
	.byte #0x48,#0x00	; 72
	.byte #0x00,#0x00	; 0
	.byte #0x10,#0x00	; 16
	.byte #0x10,#0x00	; 16
	.byte #0x10,#0x00	; 16
	.byte #0x20,#0x01	; 288
	.byte #0x0C,#0x04	; 1036
	.byte #0x40,#0x08	; 2112
	.byte #0x10,#0x00	; 16
	.byte #0x20,#0x01	; 288
	.byte #0x41,#0x00	; 65
	.byte #0x88,#0x02	; 648
	.byte #0x10,#0x00	; 16
	.byte #0x20,#0x01	; 288
	.byte #0x20,#0x01	; 288
	.byte #0x20,#0x01	; 288
	.byte #0x02,#0x00	; 2
	.byte #0x00,#0x00	; 0
	.byte #0x00,#0x00	; 0
	.byte #0x00,#0x00	; 0
	.byte #0x00,#0x05	; 1280
	.byte #0x00,#0x00	; 0
	.byte #0x00,#0x05	; 1280
	.byte #0x00,#0x05	; 1280
	.byte #0x00,#0x05	; 1280
	.byte #0x00,#0x00	; 0
	.byte #0x08,#0x08	; 2056
	.byte #0x03,#0x00	; 3
	.byte #0x50,#0x02	; 592
	.byte #0x40,#0x00	; 64
	.byte #0x80,#0x00	; 128
	.byte #0x2C,#0x00	; 44
	.byte #0x00,#0x05	; 1280
	.byte #0x00,#0x00	; 0
	.byte #0x08,#0x08	; 2056
	.byte #0x20,#0x02	; 544
	.byte #0x85,#0x00	; 133
	.byte #0x06,#0x00	; 6
	.byte #0x30,#0x00	; 48
	.byte #0x40,#0x08	; 2112
	.byte #0x00,#0x05	; 1280
	.byte #0x08,#0x08	; 2056
	.byte #0x08,#0x08	; 2056
	.byte #0x00,#0x01	; 256
	.byte #0x08,#0x08	; 2056
	.byte #0x01,#0x06	; 1537
	.byte #0x08,#0x08	; 2056
	.byte #0x90,#0x00	; 144
	.byte #0x02,#0x00	; 2
	.byte #0x00,#0x00	; 0
	.byte #0x64,#0x00	; 100
	.byte #0x03,#0x00	; 3
	.byte #0x08,#0x00	; 8
	.byte #0x18,#0x02	; 536
	.byte #0x80,#0x00	; 128
	.byte #0x40,#0x08	; 2112
	.byte #0x00,#0x05	; 1280
	.byte #0x03,#0x00	; 3
	.byte #0x80,#0x00	; 128
	.byte #0x03,#0x00	; 3
	.byte #0x03,#0x00	; 3
	.byte #0x80,#0x00	; 128
	.byte #0x80,#0x00	; 128
	.byte #0x03,#0x00	; 3
	.byte #0x80,#0x00	; 128
	.byte #0x80,#0x04	; 1152
	.byte #0x02,#0x03	; 770
	.byte #0x40,#0x08	; 2112
	.byte #0x10,#0x00	; 16
	.byte #0x40,#0x08	; 2112
	.byte #0x01,#0x00	; 1
	.byte #0x40,#0x08	; 2112
	.byte #0x40,#0x08	; 2112
	.byte #0x14,#0x00	; 20
	.byte #0x08,#0x08	; 2056
	.byte #0x03,#0x00	; 3
	.byte #0x20,#0x04	; 1056
	.byte #0x20,#0x01	; 288
	.byte #0x80,#0x00	; 128
	.byte #0x40,#0x08	; 2112
	.byte #0x04,#0x02	; 516
	.byte #0x00,#0x00	; 0
	.byte #0x00,#0x00	; 0
	.byte #0x00,#0x00	; 0
	.byte #0x00,#0x00	; 0
	.byte #0x00,#0x00	; 0
	.byte #0x00,#0x00	; 0
	.byte #0x00,#0x00	; 0
	.byte #0x83,#0x00	; 131
	.byte #0x00,#0x00	; 0
	.byte #0x00,#0x00	; 0
	.byte #0x00,#0x00	; 0
	.byte #0x04,#0x00	; 4
	.byte #0x00,#0x00	; 0
	.byte #0x00,#0x04	; 1024
	.byte #0x00,#0x0A	; 2560
	.byte #0x30,#0x01	; 304
	.byte #0x00,#0x00	; 0
	.byte #0x00,#0x00	; 0
	.byte #0x00,#0x00	; 0
	.byte #0x10,#0x00	; 16
	.byte #0x00,#0x00	; 0
	.byte #0x00,#0x04	; 1024
	.byte #0x40,#0x01	; 320
	.byte #0x08,#0x02	; 520
	.byte #0x00,#0x00	; 0
	.byte #0x00,#0x04	; 1024
	.byte #0x2A,#0x00	; 42
	.byte #0xC0,#0x08	; 2240
	.byte #0x00,#0x04	; 1024
	.byte #0x00,#0x04	; 1024
	.byte #0x05,#0x00	; 5
	.byte #0x00,#0x04	; 1024
	.byte #0x00,#0x00	; 0
	.byte #0x00,#0x00	; 0
	.byte #0x00,#0x00	; 0
	.byte #0x10,#0x00	; 16
	.byte #0x00,#0x00	; 0
	.byte #0x04,#0x03	; 772
	.byte #0x20,#0x00	; 32
	.byte #0x00,#0x0C	; 3072
	.byte #0x00,#0x00	; 0
	.byte #0x21,#0x08	; 2081
	.byte #0x80,#0x05	; 1408
	.byte #0x02,#0x02	; 514
	.byte #0x12,#0x00	; 18
	.byte #0x80,#0x00	; 128
	.byte #0x05,#0x00	; 5
	.byte #0x48,#0x00	; 72
	.byte #0x00,#0x00	; 0
	.byte #0x10,#0x00	; 16
	.byte #0x10,#0x00	; 16
	.byte #0x10,#0x00	; 16
	.byte #0x88,#0x08	; 2184
	.byte #0x62,#0x00	; 98
	.byte #0x05,#0x00	; 5
	.byte #0x10,#0x00	; 16
	.byte #0x40,#0x02	; 576
	.byte #0x08,#0x01	; 264
	.byte #0x05,#0x00	; 5
	.byte #0x10,#0x00	; 16
	.byte #0x05,#0x00	; 5
	.byte #0x00,#0x04	; 1024
	.byte #0x05,#0x00	; 5
	.byte #0x05,#0x00	; 5
	.byte #0x00,#0x00	; 0
	.byte #0x00,#0x00	; 0
	.byte #0x00,#0x00	; 0
	.byte #0x04,#0x00	; 4
	.byte #0x00,#0x00	; 0
	.byte #0x50,#0x08	; 2128
	.byte #0x20,#0x00	; 32
	.byte #0x08,#0x02	; 520
	.byte #0x00,#0x00	; 0
	.byte #0x04,#0x00	; 4
	.byte #0x04,#0x00	; 4
	.byte #0x04,#0x00	; 4
	.byte #0x09,#0x01	; 265
	.byte #0x80,#0x00	; 128
	.byte #0x42,#0x04	; 1090
	.byte #0x04,#0x00	; 4
	.byte #0x00,#0x00	; 0
	.byte #0xA0,#0x01	; 416
	.byte #0x01,#0x0C	; 3073
	.byte #0x08,#0x02	; 520
	.byte #0x06,#0x00	; 6
	.byte #0x08,#0x02	; 520
	.byte #0x08,#0x02	; 520
	.byte #0x08,#0x02	; 520
	.byte #0x40,#0x02	; 576
	.byte #0x13,#0x00	; 19
	.byte #0x00,#0x01	; 256
	.byte #0x04,#0x00	; 4
	.byte #0x20,#0x08	; 2080
	.byte #0x00,#0x04	; 1024
	.byte #0x90,#0x00	; 144
	.byte #0x08,#0x02	; 520
	.byte #0x00,#0x00	; 0
	.byte #0x0A,#0x04	; 1034
	.byte #0x20,#0x00	; 32
	.byte #0x41,#0x01	; 321
	.byte #0x20,#0x00	; 32
	.byte #0x80,#0x00	; 128
	.byte #0x20,#0x00	; 32
	.byte #0x20,#0x00	; 32
	.byte #0x40,#0x02	; 576
	.byte #0x80,#0x00	; 128
	.byte #0x18,#0x08	; 2072
	.byte #0x04,#0x00	; 4
	.byte #0x80,#0x00	; 128
	.byte #0x80,#0x00	; 128
	.byte #0x20,#0x00	; 32
	.byte #0x80,#0x00	; 128
	.byte #0x40,#0x02	; 576
	.byte #0x04,#0x08	; 2052
	.byte #0x82,#0x00	; 130
	.byte #0x10,#0x00	; 16
	.byte #0x10,#0x05	; 1296
	.byte #0x01,#0x00	; 1
	.byte #0x20,#0x00	; 32
	.byte #0x08,#0x02	; 520
	.byte #0x40,#0x02	; 576
	.byte #0x40,#0x02	; 576
	.byte #0x40,#0x02	; 576
	.byte #0x20,#0x04	; 1056
	.byte #0x40,#0x02	; 576
	.byte #0x80,#0x00	; 128
	.byte #0x05,#0x00	; 5
	.byte #0x02,#0x09	; 2306
	.byte #0x00,#0x00	; 0
	.byte #0x00,#0x00	; 0
	.byte #0x00,#0x00	; 0
	.byte #0x10,#0x00	; 16
	.byte #0x00,#0x00	; 0
	.byte #0x28,#0x00	; 40
	.byte #0x00,#0x0A	; 2560
	.byte #0x44,#0x00	; 68
	.byte #0x00,#0x00	; 0
	.byte #0x42,#0x01	; 322
	.byte #0x00,#0x0A	; 2560
	.byte #0x09,#0x04	; 1033
	.byte #0x00,#0x0A	; 2560
	.byte #0x80,#0x00	; 128
	.byte #0x00,#0x0A	; 2560
	.byte #0x00,#0x0A	; 2560
	.byte #0x00,#0x00	; 0
	.byte #0x10,#0x00	; 16
	.byte #0x10,#0x00	; 16
	.byte #0x10,#0x00	; 16
	.byte #0x06,#0x00	; 6
	.byte #0x01,#0x09	; 2305
	.byte #0xA0,#0x04	; 1184
	.byte #0x10,#0x00	; 16
	.byte #0x81,#0x00	; 129
	.byte #0x24,#0x02	; 548
	.byte #0x00,#0x01	; 256
	.byte #0x10,#0x00	; 16
	.byte #0x58,#0x00	; 88
	.byte #0x00,#0x04	; 1024
	.byte #0x00,#0x0A	; 2560
	.byte #0x02,#0x00	; 2
	.byte #0x00,#0x00	; 0
	.byte #0x10,#0x00	; 16
	.byte #0x10,#0x00	; 16
	.byte #0x10,#0x00	; 16
	.byte #0x41,#0x04	; 1089
	.byte #0x80,#0x00	; 128
	.byte #0x0A,#0x01	; 266
	.byte #0x10,#0x00	; 16
	.byte #0x0C,#0x00	; 12
	.byte #0x80,#0x00	; 128
	.byte #0x60,#0x00	; 96
	.byte #0x10,#0x00	; 16
	.byte #0x80,#0x00	; 128
	.byte #0x80,#0x00	; 128
	.byte #0x00,#0x0A	; 2560
	.byte #0x80,#0x00	; 128
	.byte #0x10,#0x00	; 16
	.byte #0x10,#0x00	; 16
	.byte #0x10,#0x00	; 16
	.byte #0x10,#0x00	; 16
	.byte #0x00,#0x02	; 512
	.byte #0x10,#0x00	; 16
	.byte #0x10,#0x00	; 16
	.byte #0x10,#0x00	; 16
	.byte #0x02,#0x0C	; 3074
	.byte #0x10,#0x00	; 16
	.byte #0x10,#0x00	; 16
	.byte #0x10,#0x00	; 16
	.byte #0x20,#0x01	; 288
	.byte #0x80,#0x00	; 128
	.byte #0x05,#0x00	; 5
	.byte #0x10,#0x00	; 16
	.byte #0x00,#0x00	; 0
	.byte #0x01,#0x02	; 513
	.byte #0xC8,#0x00	; 200
	.byte #0x22,#0x08	; 2082
	.byte #0x06,#0x00	; 6
	.byte #0x80,#0x00	; 128
	.byte #0x11,#0x00	; 17
	.byte #0x00,#0x05	; 1280
	.byte #0x30,#0x04	; 1072
	.byte #0x80,#0x00	; 128
	.byte #0x00,#0x01	; 256
	.byte #0x04,#0x00	; 4
	.byte #0x80,#0x00	; 128
	.byte #0x80,#0x00	; 128
	.byte #0x00,#0x0A	; 2560
	.byte #0x80,#0x00	; 128
	.byte #0x06,#0x00	; 6
	.byte #0x40,#0x04	; 1088
	.byte #0x00,#0x01	; 256
	.byte #0x10,#0x00	; 16
	.byte #0x06,#0x00	; 6
	.byte #0x06,#0x00	; 6
	.byte #0x06,#0x00	; 6
	.byte #0x08,#0x02	; 520
	.byte #0x00,#0x01	; 256
	.byte #0x08,#0x08	; 2056
	.byte #0x00,#0x01	; 256
	.byte #0x00,#0x01	; 256
	.byte #0x06,#0x00	; 6
	.byte #0x80,#0x00	; 128
	.byte #0x00,#0x01	; 256
	.byte #0x61,#0x00	; 97
	.byte #0x00,#0x09	; 2304
	.byte #0x80,#0x00	; 128
	.byte #0x04,#0x06	; 1540
	.byte #0x10,#0x00	; 16
	.byte #0x80,#0x00	; 128
	.byte #0x80,#0x00	; 128
	.byte #0x20,#0x00	; 32
	.byte #0x80,#0x00	; 128
	.byte #0x80,#0x00	; 128
	.byte #0x80,#0x00	; 128
	.byte #0x03,#0x00	; 3
	.byte #0x80,#0x00	; 128
	.byte #0x80,#0x00	; 128
	.byte #0x80,#0x00	; 128
	.byte #0x80,#0x00	; 128
	.byte #0x80,#0x00	; 128
	.byte #0x29,#0x00	; 41
	.byte #0x10,#0x00	; 16
	.byte #0x10,#0x00	; 16
	.byte #0x10,#0x00	; 16
	.byte #0x06,#0x00	; 6
	.byte #0x80,#0x00	; 128
	.byte #0x40,#0x08	; 2112
	.byte #0x10,#0x00	; 16
	.byte #0x40,#0x02	; 576
	.byte #0x80,#0x00	; 128
	.byte #0x00,#0x01	; 256
	.byte #0x10,#0x00	; 16
	.byte #0x80,#0x00	; 128
	.byte #0x80,#0x00	; 128
	.byte #0x08,#0x04	; 1032
	.byte #0x80,#0x00	; 128
	.byte #0x00,#0x00	; 0
	.byte #0x00,#0x00	; 0
	.byte #0x00,#0x00	; 0
	.byte #0x00,#0x00	; 0
	.byte #0x00,#0x00	; 0
	.byte #0x00,#0x00	; 0
	.byte #0x00,#0x00	; 0
	.byte #0x10,#0x02	; 528
	.byte #0x00,#0x00	; 0
	.byte #0x00,#0x00	; 0
	.byte #0x00,#0x00	; 0
	.byte #0xA0,#0x00	; 160
	.byte #0x00,#0x00	; 0
	.byte #0x00,#0x04	; 1024
	.byte #0x06,#0x01	; 262
	.byte #0x01,#0x08	; 2049
	.byte #0x00,#0x00	; 0
	.byte #0x00,#0x00	; 0
	.byte #0x00,#0x00	; 0
	.byte #0x42,#0x00	; 66
	.byte #0x00,#0x00	; 0
	.byte #0x00,#0x04	; 1024
	.byte #0x09,#0x00	; 9
	.byte #0x80,#0x01	; 384
	.byte #0x00,#0x00	; 0
	.byte #0x00,#0x04	; 1024
	.byte #0x00,#0x08	; 2048
	.byte #0x1C,#0x00	; 28
	.byte #0x00,#0x04	; 1024
	.byte #0x00,#0x04	; 1024
	.byte #0x60,#0x02	; 608
	.byte #0x00,#0x04	; 1024
	.byte #0x00,#0x00	; 0
	.byte #0x00,#0x00	; 0
	.byte #0x00,#0x00	; 0
	.byte #0x05,#0x04	; 1029
	.byte #0x00,#0x00	; 0
	.byte #0x02,#0x08	; 2050
	.byte #0x20,#0x00	; 32
	.byte #0x80,#0x01	; 384
	.byte #0x00,#0x00	; 0
	.byte #0x10,#0x01	; 272
	.byte #0x00,#0x08	; 2048
	.byte #0x02,#0x02	; 514
	.byte #0x81,#0x02	; 641
	.byte #0x24,#0x00	; 36
	.byte #0x10,#0x04	; 1040
	.byte #0x48,#0x00	; 72
	.byte #0x00,#0x00	; 0
	.byte #0x28,#0x02	; 552
	.byte #0x00,#0x08	; 2048
	.byte #0x80,#0x01	; 384
	.byte #0x54,#0x00	; 84
	.byte #0x80,#0x01	; 384
	.byte #0x80,#0x01	; 384
	.byte #0x80,#0x01	; 384
	.byte #0x00,#0x08	; 2048
	.byte #0x41,#0x00	; 65
	.byte #0x00,#0x08	; 2048
	.byte #0x00,#0x08	; 2048
	.byte #0x0A,#0x00	; 10
	.byte #0x00,#0x04	; 1024
	.byte #0x00,#0x08	; 2048
	.byte #0x80,#0x01	; 384
	.byte #0x00,#0x00	; 0
	.byte #0x00,#0x00	; 0
	.byte #0x00,#0x00	; 0
	.byte #0x42,#0x00	; 66
	.byte #0x00,#0x00	; 0
	.byte #0x8C,#0x00	; 140
	.byte #0x20,#0x00	; 32
	.byte #0x01,#0x08	; 2049
	.byte #0x00,#0x00	; 0
	.byte #0x10,#0x01	; 272
	.byte #0x08,#0x06	; 1544
	.byte #0x01,#0x08	; 2049
	.byte #0x40,#0x00	; 64
	.byte #0x01,#0x08	; 2049
	.byte #0x01,#0x08	; 2049
	.byte #0x01,#0x08	; 2049
	.byte #0x00,#0x00	; 0
	.byte #0x42,#0x00	; 66
	.byte #0x42,#0x00	; 66
	.byte #0x42,#0x00	; 66
	.byte #0x00,#0x0B	; 2816
	.byte #0x30,#0x00	; 48
	.byte #0x04,#0x04	; 1028
	.byte #0x42,#0x00	; 66
	.byte #0x25,#0x00	; 37
	.byte #0x80,#0x02	; 640
	.byte #0x00,#0x01	; 256
	.byte #0x42,#0x00	; 66
	.byte #0x0A,#0x00	; 10
	.byte #0x00,#0x04	; 1024
	.byte #0x90,#0x00	; 144
	.byte #0x01,#0x08	; 2049
	.byte #0x00,#0x00	; 0
	.byte #0x10,#0x01	; 272
	.byte #0x20,#0x00	; 32
	.byte #0x08,#0x00	; 8
	.byte #0x20,#0x00	; 32
	.byte #0x40,#0x06	; 1600
	.byte #0x20,#0x00	; 32
	.byte #0x20,#0x00	; 32
	.byte #0x10,#0x01	; 272
	.byte #0x10,#0x01	; 272
	.byte #0xC4,#0x00	; 196
	.byte #0x10,#0x01	; 272
	.byte #0x0A,#0x00	; 10
	.byte #0x10,#0x01	; 272
	.byte #0x20,#0x00	; 32
	.byte #0x01,#0x08	; 2049
	.byte #0x80,#0x04	; 1152
	.byte #0x04,#0x08	; 2052
	.byte #0x11,#0x02	; 529
	.byte #0x42,#0x00	; 66
	.byte #0x0A,#0x00	; 10
	.byte #0x01,#0x00	; 1
	.byte #0x20,#0x00	; 32
	.byte #0x80,#0x01	; 384
	.byte #0x0A,#0x00	; 10
	.byte #0x10,#0x01	; 272
	.byte #0x00,#0x08	; 2048
	.byte #0x20,#0x04	; 1056
	.byte #0x0A,#0x00	; 10
	.byte #0x0A,#0x00	; 10
	.byte #0x0A,#0x00	; 10
	.byte #0x04,#0x02	; 516
	.byte #0x00,#0x00	; 0
	.byte #0x00,#0x00	; 0
	.byte #0x00,#0x00	; 0
	.byte #0xA0,#0x00	; 160
	.byte #0x00,#0x00	; 0
	.byte #0x02,#0x08	; 2050
	.byte #0x09,#0x00	; 9
	.byte #0x44,#0x00	; 68
	.byte #0x00,#0x00	; 0
	.byte #0xA0,#0x00	; 160
	.byte #0xA0,#0x00	; 160
	.byte #0xA0,#0x00	; 160
	.byte #0x40,#0x00	; 64
	.byte #0x08,#0x03	; 776
	.byte #0x10,#0x04	; 1040
	.byte #0xA0,#0x00	; 160
	.byte #0x00,#0x00	; 0
	.byte #0x04,#0x01	; 260
	.byte #0x09,#0x00	; 9
	.byte #0x00,#0x0E	; 3584
	.byte #0x09,#0x00	; 9
	.byte #0x30,#0x00	; 48
	.byte #0x09,#0x00	; 9
	.byte #0x09,#0x00	; 9
	.byte #0x12,#0x02	; 530
	.byte #0x41,#0x00	; 65
	.byte #0x00,#0x01	; 256
	.byte #0xA0,#0x00	; 160
	.byte #0x84,#0x08	; 2180
	.byte #0x00,#0x04	; 1024
	.byte #0x09,#0x00	; 9
	.byte #0x02,#0x00	; 2
	.byte #0x00,#0x00	; 0
	.byte #0x02,#0x08	; 2050
	.byte #0x40,#0x03	; 832
	.byte #0x08,#0x00	; 8
	.byte #0x02,#0x08	; 2050
	.byte #0x02,#0x08	; 2050
	.byte #0x10,#0x04	; 1040
	.byte #0x02,#0x08	; 2050
	.byte #0x0C,#0x00	; 12
	.byte #0x41,#0x00	; 65
	.byte #0x10,#0x04	; 1040
	.byte #0xA0,#0x00	; 160
	.byte #0x10,#0x04	; 1040
	.byte #0x02,#0x08	; 2050
	.byte #0x10,#0x04	; 1040
	.byte #0x10,#0x04	; 1040
	.byte #0x80,#0x04	; 1152
	.byte #0x41,#0x00	; 65
	.byte #0x26,#0x00	; 38
	.byte #0x10,#0x00	; 16
	.byte #0x00,#0x02	; 512
	.byte #0x02,#0x08	; 2050
	.byte #0x09,#0x00	; 9
	.byte #0x80,#0x01	; 384
	.byte #0x41,#0x00	; 65
	.byte #0x41,#0x00	; 65
	.byte #0x00,#0x08	; 2048
	.byte #0x41,#0x00	; 65
	.byte #0x20,#0x01	; 288
	.byte #0x41,#0x00	; 65
	.byte #0x10,#0x04	; 1040
	.byte #0x04,#0x02	; 516
	.byte #0x00,#0x00	; 0
	.byte #0x01,#0x02	; 513
	.byte #0x14,#0x08	; 2068
	.byte #0x08,#0x00	; 8
	.byte #0x40,#0x00	; 64
	.byte #0x30,#0x00	; 48
	.byte #0x82,#0x02	; 642
	.byte #0x00,#0x05	; 1280
	.byte #0x40,#0x00	; 64
	.byte #0x06,#0x04	; 1030
	.byte #0x00,#0x01	; 256
	.byte #0xA0,#0x00	; 160
	.byte #0x40,#0x00	; 64
	.byte #0x40,#0x00	; 64
	.byte #0x40,#0x00	; 64
	.byte #0x01,#0x08	; 2049
	.byte #0x80,#0x04	; 1152
	.byte #0x30,#0x00	; 48
	.byte #0x00,#0x01	; 256
	.byte #0x42,#0x00	; 66
	.byte #0x30,#0x00	; 48
	.byte #0x30,#0x00	; 48
	.byte #0x09,#0x00	; 9
	.byte #0x30,#0x00	; 48
	.byte #0x00,#0x01	; 256
	.byte #0x08,#0x08	; 2056
	.byte #0x00,#0x01	; 256
	.byte #0x00,#0x01	; 256
	.byte #0x40,#0x00	; 64
	.byte #0x30,#0x00	; 48
	.byte #0x00,#0x01	; 256
	.byte #0x04,#0x02	; 516
	.byte #0x80,#0x04	; 1152
	.byte #0x08,#0x00	; 8
	.byte #0x08,#0x00	; 8
	.byte #0x08,#0x00	; 8
	.byte #0x05,#0x01	; 261
	.byte #0x02,#0x08	; 2050
	.byte #0x20,#0x00	; 32
	.byte #0x08,#0x00	; 8
	.byte #0x20,#0x0A	; 2592
	.byte #0x10,#0x01	; 272
	.byte #0x03,#0x00	; 3
	.byte #0x08,#0x00	; 8
	.byte #0x40,#0x00	; 64
	.byte #0x80,#0x00	; 128
	.byte #0x10,#0x04	; 1040
	.byte #0x04,#0x02	; 516
	.byte #0x80,#0x04	; 1152
	.byte #0x80,#0x04	; 1152
	.byte #0x80,#0x04	; 1152
	.byte #0x08,#0x00	; 8
	.byte #0x80,#0x04	; 1152
	.byte #0x30,#0x00	; 48
	.byte #0x40,#0x08	; 2112
	.byte #0x04,#0x02	; 516
	.byte #0x80,#0x04	; 1152
	.byte #0x41,#0x00	; 65
	.byte #0x00,#0x01	; 256
	.byte #0x04,#0x02	; 516
	.byte #0x0A,#0x00	; 10
	.byte #0x04,#0x02	; 516
	.byte #0x04,#0x02	; 516
	.byte #0x04,#0x02	; 516
	.byte #0x00,#0x00	; 0
	.byte #0x00,#0x00	; 0
	.byte #0x00,#0x00	; 0
	.byte #0x08,#0x09	; 2312
	.byte #0x00,#0x00	; 0
	.byte #0x00,#0x04	; 1024
	.byte #0x20,#0x00	; 32
	.byte #0x44,#0x00	; 68
	.byte #0x00,#0x00	; 0
	.byte #0x00,#0x04	; 1024
	.byte #0x51,#0x00	; 81
	.byte #0x02,#0x02	; 514
	.byte #0x00,#0x04	; 1024
	.byte #0x00,#0x04	; 1024
	.byte #0x88,#0x00	; 136
	.byte #0x00,#0x04	; 1024
	.byte #0x00,#0x00	; 0
	.byte #0x00,#0x04	; 1024
	.byte #0x84,#0x02	; 644
	.byte #0x21,#0x00	; 33
	.byte #0x00,#0x04	; 1024
	.byte #0x00,#0x04	; 1024
	.byte #0x12,#0x08	; 2066
	.byte #0x00,#0x04	; 1024
	.byte #0x00,#0x04	; 1024
	.byte #0x00,#0x04	; 1024
	.byte #0x00,#0x01	; 256
	.byte #0x00,#0x04	; 1024
	.byte #0x00,#0x04	; 1024
	.byte #0x00,#0x04	; 1024
	.byte #0x00,#0x04	; 1024
	.byte #0x00,#0x04	; 1024
	.byte #0x00,#0x00	; 0
	.byte #0xC0,#0x00	; 192
	.byte #0x20,#0x00	; 32
	.byte #0x02,#0x02	; 514
	.byte #0x20,#0x00	; 32
	.byte #0x19,#0x00	; 25
	.byte #0x20,#0x00	; 32
	.byte #0x20,#0x00	; 32
	.byte #0x0C,#0x00	; 12
	.byte #0x02,#0x02	; 514
	.byte #0x02,#0x02	; 514
	.byte #0x02,#0x02	; 514
	.byte #0x40,#0x09	; 2368
	.byte #0x00,#0x04	; 1024
	.byte #0x20,#0x00	; 32
	.byte #0x02,#0x02	; 514
	.byte #0x03,#0x01	; 259
	.byte #0x04,#0x08	; 2052
	.byte #0x48,#0x04	; 1096
	.byte #0x10,#0x00	; 16
	.byte #0x00,#0x02	; 512
	.byte #0x00,#0x04	; 1024
	.byte #0x20,#0x00	; 32
	.byte #0x80,#0x01	; 384
	.byte #0xB0,#0x00	; 176
	.byte #0x00,#0x04	; 1024
	.byte #0x00,#0x08	; 2048
	.byte #0x02,#0x02	; 514
	.byte #0x00,#0x04	; 1024
	.byte #0x00,#0x04	; 1024
	.byte #0x05,#0x00	; 5
	.byte #0x00,#0x04	; 1024
	.byte #0x00,#0x00	; 0
	.byte #0x01,#0x02	; 513
	.byte #0x20,#0x00	; 32
	.byte #0x90,#0x04	; 1168
	.byte #0x20,#0x00	; 32
	.byte #0x02,#0x01	; 258
	.byte #0x20,#0x00	; 32
	.byte #0x20,#0x00	; 32
	.byte #0x82,#0x08	; 2178
	.byte #0x68,#0x00	; 104
	.byte #0x00,#0x01	; 256
	.byte #0x04,#0x00	; 4
	.byte #0x14,#0x02	; 532
	.byte #0x00,#0x04	; 1024
	.byte #0x20,#0x00	; 32
	.byte #0x01,#0x08	; 2049
	.byte #0x18,#0x00	; 24
	.byte #0x04,#0x08	; 2052
	.byte #0x00,#0x01	; 256
	.byte #0x42,#0x00	; 66
	.byte #0xC1,#0x00	; 193
	.byte #0x00,#0x04	; 1024
	.byte #0x20,#0x00	; 32
	.byte #0x08,#0x02	; 520
	.byte #0x00,#0x01	; 256
	.byte #0x00,#0x04	; 1024
	.byte #0x00,#0x01	; 256
	.byte #0x00,#0x01	; 256
	.byte #0x00,#0x04	; 1024
	.byte #0x00,#0x04	; 1024
	.byte #0x00,#0x01	; 256
	.byte #0x00,#0x04	; 1024
	.byte #0x20,#0x00	; 32
	.byte #0x04,#0x08	; 2052
	.byte #0x20,#0x00	; 32
	.byte #0x20,#0x00	; 32
	.byte #0x20,#0x00	; 32
	.byte #0x20,#0x00	; 32
	.byte #0x20,#0x00	; 32
	.byte #0x20,#0x00	; 32
	.byte #0x01,#0x04	; 1025
	.byte #0x10,#0x01	; 272
	.byte #0x20,#0x00	; 32
	.byte #0x02,#0x02	; 514
	.byte #0x20,#0x00	; 32
	.byte #0x80,#0x00	; 128
	.byte #0x20,#0x00	; 32
	.byte #0x20,#0x00	; 32
	.byte #0x04,#0x08	; 2052
	.byte #0x04,#0x08	; 2052
	.byte #0x20,#0x00	; 32
	.byte #0x04,#0x08	; 2052
	.byte #0x20,#0x00	; 32
	.byte #0x04,#0x08	; 2052
	.byte #0x20,#0x00	; 32
	.byte #0x20,#0x00	; 32
	.byte #0x40,#0x02	; 576
	.byte #0x04,#0x08	; 2052
	.byte #0x00,#0x01	; 256
	.byte #0x89,#0x00	; 137
	.byte #0x0A,#0x00	; 10
	.byte #0x00,#0x04	; 1024
	.byte #0x20,#0x00	; 32
	.byte #0x50,#0x00	; 80
	.byte #0x00,#0x00	; 0
	.byte #0x01,#0x02	; 513
	.byte #0x02,#0x04	; 1026
	.byte #0x44,#0x00	; 68
	.byte #0x90,#0x01	; 400
	.byte #0x44,#0x00	; 68
	.byte #0x44,#0x00	; 68
	.byte #0x44,#0x00	; 68
	.byte #0x0C,#0x00	; 12
	.byte #0x10,#0x08	; 2064
	.byte #0x00,#0x01	; 256
	.byte #0xA0,#0x00	; 160
	.byte #0x23,#0x00	; 35
	.byte #0x00,#0x04	; 1024
	.byte #0x00,#0x0A	; 2560
	.byte #0x44,#0x00	; 68
	.byte #0x60,#0x08	; 2144
	.byte #0x8A,#0x00	; 138
	.byte #0x00,#0x01	; 256
	.byte #0x10,#0x00	; 16
	.byte #0x00,#0x02	; 512
	.byte #0x00,#0x04	; 1024
	.byte #0x09,#0x00	; 9
	.byte #0x44,#0x00	; 68
	.byte #0x00,#0x01	; 256
	.byte #0x00,#0x04	; 1024
	.byte #0x00,#0x01	; 256
	.byte #0x00,#0x01	; 256
	.byte #0x00,#0x04	; 1024
	.byte #0x00,#0x04	; 1024
	.byte #0x00,#0x01	; 256
	.byte #0x00,#0x04	; 1024
	.byte #0x0C,#0x00	; 12
	.byte #0x20,#0x05	; 1312
	.byte #0x81,#0x08	; 2177
	.byte #0x10,#0x00	; 16
	.byte #0x00,#0x02	; 512
	.byte #0x02,#0x08	; 2050
	.byte #0x20,#0x00	; 32
	.byte #0x44,#0x00	; 68
	.byte #0x0C,#0x00	; 12
	.byte #0x0C,#0x00	; 12
	.byte #0x0C,#0x00	; 12
	.byte #0x02,#0x02	; 514
	.byte #0x0C,#0x00	; 12
	.byte #0x80,#0x00	; 128
	.byte #0x10,#0x04	; 1040
	.byte #0x01,#0x01	; 257
	.byte #0x00,#0x02	; 512
	.byte #0x10,#0x00	; 16
	.byte #0x10,#0x00	; 16
	.byte #0x10,#0x00	; 16
	.byte #0x00,#0x02	; 512
	.byte #0x00,#0x02	; 512
	.byte #0x00,#0x02	; 512
	.byte #0x10,#0x00	; 16
	.byte #0x0C,#0x00	; 12
	.byte #0x41,#0x00	; 65
	.byte #0x00,#0x01	; 256
	.byte #0x10,#0x00	; 16
	.byte #0x00,#0x02	; 512
	.byte #0x00,#0x04	; 1024
	.byte #0xC2,#0x00	; 194
	.byte #0x28,#0x08	; 2088
	.byte #0x01,#0x02	; 513
	.byte #0x01,#0x02	; 513
	.byte #0x00,#0x01	; 256
	.byte #0x01,#0x02	; 513
	.byte #0x08,#0x0C	; 3080
	.byte #0x01,#0x02	; 513
	.byte #0x20,#0x00	; 32
	.byte #0x44,#0x00	; 68
	.byte #0x00,#0x01	; 256
	.byte #0x01,#0x02	; 513
	.byte #0x00,#0x01	; 256
	.byte #0x00,#0x01	; 256
	.byte #0x40,#0x00	; 64
	.byte #0x80,#0x00	; 128
	.byte #0x00,#0x01	; 256
	.byte #0x1A,#0x00	; 26
	.byte #0x00,#0x01	; 256
	.byte #0x01,#0x02	; 513
	.byte #0x00,#0x01	; 256
	.byte #0x00,#0x01	; 256
	.byte #0x06,#0x00	; 6
	.byte #0x30,#0x00	; 48
	.byte #0x00,#0x01	; 256
	.byte #0x80,#0x08	; 2176
	.byte #0x00,#0x01	; 256
	.byte #0x00,#0x01	; 256
	.byte #0x00,#0x01	; 256
	.byte #0x00,#0x01	; 256
	.byte #0x00,#0x01	; 256
	.byte #0x00,#0x04	; 1024
	.byte #0x00,#0x01	; 256
	.byte #0x00,#0x01	; 256
	.byte #0x52,#0x00	; 82
	.byte #0x01,#0x02	; 513
	.byte #0x20,#0x00	; 32
	.byte #0x08,#0x00	; 8
	.byte #0x20,#0x00	; 32
	.byte #0x80,#0x00	; 128
	.byte #0x20,#0x00	; 32
	.byte #0x20,#0x00	; 32
	.byte #0x0C,#0x00	; 12
	.byte #0x80,#0x00	; 128
	.byte #0x00,#0x01	; 256
	.byte #0x40,#0x0C	; 3136
	.byte #0x80,#0x00	; 128
	.byte #0x80,#0x00	; 128
	.byte #0x20,#0x00	; 32
	.byte #0x80,#0x00	; 128
	.byte #0x80,#0x04	; 1152
	.byte #0x04,#0x08	; 2052
	.byte #0x00,#0x01	; 256
	.byte #0x10,#0x00	; 16
	.byte #0x00,#0x02	; 512
	.byte #0x48,#0x01	; 328
	.byte #0x20,#0x00	; 32
	.byte #0x03,#0x04	; 1027
	.byte #0x00,#0x01	; 256
	.byte #0x22,#0x00	; 34
	.byte #0x00,#0x01	; 256
	.byte #0x00,#0x01	; 256
	.byte #0x11,#0x08	; 2065
	.byte #0x80,#0x00	; 128
	.byte #0x00,#0x01	; 256
	.byte #0x04,#0x02	; 516
	.byte #0x00,#0x00	; 0
	.byte #0x00,#0x00	; 0
	.byte #0x00,#0x00	; 0
	.byte #0x00,#0x00	; 0
	.byte #0x00,#0x00	; 0
	.byte #0x00,#0x00	; 0
	.byte #0x00,#0x00	; 0
	.byte #0x10,#0x02	; 528
	.byte #0x00,#0x00	; 0
	.byte #0x00,#0x00	; 0
	.byte #0x00,#0x00	; 0
	.byte #0x04,#0x00	; 4
	.byte #0x00,#0x00	; 0
	.byte #0x80,#0x09	; 2432
	.byte #0x21,#0x04	; 1057
	.byte #0x02,#0x00	; 2
	.byte #0x00,#0x00	; 0
	.byte #0x00,#0x00	; 0
	.byte #0x00,#0x00	; 0
	.byte #0x88,#0x04	; 1160
	.byte #0x00,#0x00	; 0
	.byte #0x01,#0x00	; 1
	.byte #0x40,#0x01	; 320
	.byte #0x02,#0x00	; 2
	.byte #0x00,#0x00	; 0
	.byte #0x70,#0x00	; 112
	.byte #0x00,#0x08	; 2048
	.byte #0x02,#0x00	; 2
	.byte #0x0C,#0x02	; 524
	.byte #0x02,#0x00	; 2
	.byte #0x02,#0x00	; 2
	.byte #0x02,#0x00	; 2
	.byte #0x00,#0x00	; 0
	.byte #0x00,#0x00	; 0
	.byte #0x00,#0x00	; 0
	.byte #0x22,#0x01	; 290
	.byte #0x00,#0x00	; 0
	.byte #0x01,#0x00	; 1
	.byte #0x84,#0x00	; 132
	.byte #0x00,#0x0C	; 3072
	.byte #0x00,#0x00	; 0
	.byte #0x00,#0x06	; 1536
	.byte #0x00,#0x08	; 2048
	.byte #0x91,#0x00	; 145
	.byte #0x12,#0x00	; 18
	.byte #0x24,#0x00	; 36
	.byte #0x00,#0x03	; 768
	.byte #0x48,#0x00	; 72
	.byte #0x00,#0x00	; 0
	.byte #0x01,#0x00	; 1
	.byte #0x00,#0x08	; 2048
	.byte #0x44,#0x02	; 580
	.byte #0x01,#0x00	; 1
	.byte #0x01,#0x00	; 1
	.byte #0x38,#0x00	; 56
	.byte #0x01,#0x00	; 1
	.byte #0x00,#0x08	; 2048
	.byte #0x08,#0x01	; 264
	.byte #0x00,#0x08	; 2048
	.byte #0x00,#0x08	; 2048
	.byte #0xC0,#0x04	; 1216
	.byte #0x01,#0x00	; 1
	.byte #0x00,#0x08	; 2048
	.byte #0x02,#0x00	; 2
	.byte #0x00,#0x00	; 0
	.byte #0x00,#0x00	; 0
	.byte #0x00,#0x00	; 0
	.byte #0x04,#0x00	; 4
	.byte #0x00,#0x00	; 0
	.byte #0x01,#0x00	; 1
	.byte #0x0A,#0x08	; 2058
	.byte #0xE0,#0x00	; 224
	.byte #0x00,#0x00	; 0
	.byte #0x04,#0x00	; 4
	.byte #0x04,#0x00	; 4
	.byte #0x04,#0x00	; 4
	.byte #0x40,#0x00	; 64
	.byte #0x18,#0x04	; 1048
	.byte #0x00,#0x03	; 768
	.byte #0x04,#0x00	; 4
	.byte #0x00,#0x00	; 0
	.byte #0x01,#0x00	; 1
	.byte #0x20,#0x02	; 544
	.byte #0x10,#0x09	; 2320
	.byte #0x01,#0x00	; 1
	.byte #0x01,#0x00	; 1
	.byte #0x04,#0x04	; 1028
	.byte #0x01,#0x00	; 1
	.byte #0x02,#0x05	; 1282
	.byte #0x80,#0x02	; 640
	.byte #0x49,#0x00	; 73
	.byte #0x04,#0x00	; 4
	.byte #0x20,#0x08	; 2080
	.byte #0x01,#0x00	; 1
	.byte #0x90,#0x00	; 144
	.byte #0x02,#0x00	; 2
	.byte #0x00,#0x00	; 0
	.byte #0x01,#0x00	; 1
	.byte #0x50,#0x04	; 1104
	.byte #0x08,#0x00	; 8
	.byte #0x01,#0x00	; 1
	.byte #0x01,#0x00	; 1
	.byte #0x00,#0x03	; 768
	.byte #0x01,#0x00	; 1
	.byte #0xA8,#0x00	; 168
	.byte #0x42,#0x08	; 2114
	.byte #0x00,#0x03	; 768
	.byte #0x04,#0x00	; 4
	.byte #0x00,#0x03	; 768
	.byte #0x01,#0x00	; 1
	.byte #0x00,#0x03	; 768
	.byte #0x00,#0x03	; 768
	.byte #0x01,#0x00	; 1
	.byte #0x01,#0x00	; 1
	.byte #0x82,#0x00	; 130
	.byte #0x01,#0x00	; 1
	.byte #0x01,#0x00	; 1
	.byte #0x01,#0x00	; 1
	.byte #0x01,#0x00	; 1
	.byte #0x01,#0x00	; 1
	.byte #0x14,#0x00	; 20
	.byte #0x01,#0x00	; 1
	.byte #0x00,#0x08	; 2048
	.byte #0x20,#0x04	; 1056
	.byte #0x01,#0x00	; 1
	.byte #0x01,#0x00	; 1
	.byte #0x00,#0x03	; 768
	.byte #0x01,#0x00	; 1
	.byte #0x00,#0x00	; 0
	.byte #0x00,#0x00	; 0
	.byte #0x00,#0x00	; 0
	.byte #0x41,#0x08	; 2113
	.byte #0x00,#0x00	; 0
	.byte #0x28,#0x00	; 40
	.byte #0x84,#0x00	; 132
	.byte #0x02,#0x00	; 2
	.byte #0x00,#0x00	; 0
	.byte #0x00,#0x06	; 1536
	.byte #0x18,#0x01	; 280
	.byte #0x02,#0x00	; 2
	.byte #0x40,#0x00	; 64
	.byte #0x02,#0x00	; 2
	.byte #0x02,#0x00	; 2
	.byte #0x02,#0x00	; 2
	.byte #0x00,#0x00	; 0
	.byte #0x04,#0x01	; 260
	.byte #0x20,#0x02	; 544
	.byte #0x02,#0x00	; 2
	.byte #0x10,#0x0C	; 3088
	.byte #0x02,#0x00	; 2
	.byte #0x02,#0x00	; 2
	.byte #0x02,#0x00	; 2
	.byte #0x81,#0x00	; 129
	.byte #0x02,#0x00	; 2
	.byte #0x02,#0x00	; 2
	.byte #0x02,#0x00	; 2
	.byte #0x02,#0x00	; 2
	.byte #0x02,#0x00	; 2
	.byte #0x02,#0x00	; 2
	.byte #0x02,#0x00	; 2
	.byte #0x00,#0x00	; 0
	.byte #0x00,#0x06	; 1536
	.byte #0x84,#0x00	; 132
	.byte #0x08,#0x00	; 8
	.byte #0x84,#0x00	; 132
	.byte #0x50,#0x01	; 336
	.byte #0x84,#0x00	; 132
	.byte #0x84,#0x00	; 132
	.byte #0x00,#0x06	; 1536
	.byte #0x00,#0x06	; 1536
	.byte #0x60,#0x00	; 96
	.byte #0x00,#0x06	; 1536
	.byte #0x09,#0x08	; 2057
	.byte #0x00,#0x06	; 1536
	.byte #0x84,#0x00	; 132
	.byte #0x02,#0x00	; 2
	.byte #0x4A,#0x00	; 74
	.byte #0xA0,#0x08	; 2208
	.byte #0x01,#0x05	; 1281
	.byte #0x10,#0x00	; 16
	.byte #0x00,#0x02	; 512
	.byte #0x01,#0x00	; 1
	.byte #0x84,#0x00	; 132
	.byte #0x02,#0x00	; 2
	.byte #0x14,#0x00	; 20
	.byte #0x00,#0x06	; 1536
	.byte #0x00,#0x08	; 2048
	.byte #0x02,#0x00	; 2
	.byte #0x20,#0x01	; 288
	.byte #0x02,#0x00	; 2
	.byte #0x02,#0x00	; 2
	.byte #0x02,#0x00	; 2
	.byte #0x00,#0x00	; 0
	.byte #0x92,#0x00	; 146
	.byte #0x20,#0x02	; 544
	.byte #0x08,#0x00	; 8
	.byte #0x40,#0x00	; 64
	.byte #0x04,#0x0A	; 2564
	.byte #0x11,#0x00	; 17
	.byte #0x00,#0x05	; 1280
	.byte #0x40,#0x00	; 64
	.byte #0x21,#0x01	; 289
	.byte #0x80,#0x0C	; 3200
	.byte #0x04,#0x00	; 4
	.byte #0x40,#0x00	; 64
	.byte #0x40,#0x00	; 64
	.byte #0x40,#0x00	; 64
	.byte #0x02,#0x00	; 2
	.byte #0x20,#0x02	; 544
	.byte #0x40,#0x04	; 1088
	.byte #0x20,#0x02	; 544
	.byte #0x20,#0x02	; 544
	.byte #0x88,#0x01	; 392
	.byte #0x01,#0x00	; 1
	.byte #0x20,#0x02	; 544
	.byte #0x02,#0x00	; 2
	.byte #0x14,#0x00	; 20
	.byte #0x08,#0x08	; 2056
	.byte #0x20,#0x02	; 544
	.byte #0x02,#0x00	; 2
	.byte #0x40,#0x00	; 64
	.byte #0x02,#0x00	; 2
	.byte #0x02,#0x00	; 2
	.byte #0x02,#0x00	; 2
	.byte #0x00,#0x09	; 2304
	.byte #0x08,#0x00	; 8
	.byte #0x08,#0x00	; 8
	.byte #0x08,#0x00	; 8
	.byte #0x22,#0x04	; 1058
	.byte #0x01,#0x00	; 1
	.byte #0x84,#0x00	; 132
	.byte #0x08,#0x00	; 8
	.byte #0x14,#0x00	; 20
	.byte #0x00,#0x06	; 1536
	.byte #0x03,#0x00	; 3
	.byte #0x08,#0x00	; 8
	.byte #0x40,#0x00	; 64
	.byte #0x80,#0x00	; 128
	.byte #0x00,#0x03	; 768
	.byte #0x30,#0x08	; 2096
	.byte #0x14,#0x00	; 20
	.byte #0x01,#0x00	; 1
	.byte #0x20,#0x02	; 544
	.byte #0x08,#0x00	; 8
	.byte #0x01,#0x00	; 1
	.byte #0x01,#0x00	; 1
	.byte #0x40,#0x08	; 2112
	.byte #0x01,#0x00	; 1
	.byte #0x14,#0x00	; 20
	.byte #0x14,#0x00	; 20
	.byte #0x14,#0x00	; 20
	.byte #0xC0,#0x01	; 448
	.byte #0x14,#0x00	; 20
	.byte #0x01,#0x00	; 1
	.byte #0x08,#0x04	; 1032
	.byte #0x02,#0x00	; 2
	.byte #0x00,#0x00	; 0
	.byte #0x00,#0x00	; 0
	.byte #0x00,#0x00	; 0
	.byte #0x04,#0x00	; 4
	.byte #0x00,#0x00	; 0
	.byte #0x28,#0x00	; 40
	.byte #0x40,#0x01	; 320
	.byte #0x00,#0x0C	; 3072
	.byte #0x00,#0x00	; 0
	.byte #0x04,#0x00	; 4
	.byte #0x04,#0x00	; 4
	.byte #0x04,#0x00	; 4
	.byte #0x12,#0x00	; 18
	.byte #0x41,#0x02	; 577
	.byte #0x88,#0x00	; 136
	.byte #0x04,#0x00	; 4
	.byte #0x00,#0x00	; 0
	.byte #0x02,#0x0A	; 2562
	.byte #0x40,#0x01	; 320
	.byte #0x21,#0x00	; 33
	.byte #0x40,#0x01	; 320
	.byte #0x94,#0x00	; 148
	.byte #0x40,#0x01	; 320
	.byte #0x40,#0x01	; 320
	.byte #0x81,#0x00	; 129
	.byte #0x08,#0x01	; 264
	.byte #0x10,#0x06	; 1552
	.byte #0x04,#0x00	; 4
	.byte #0x20,#0x08	; 2080
	.byte #0x00,#0x04	; 1024
	.byte #0x40,#0x01	; 320
	.byte #0x02,#0x00	; 2
	.byte #0x00,#0x00	; 0
	.byte #0xC0,#0x00	; 192
	.byte #0x09,#0x02	; 521
	.byte #0x00,#0x0C	; 3072
	.byte #0x12,#0x00	; 18
	.byte #0x00,#0x0C	; 3072
	.byte #0x00,#0x0C	; 3072
	.byte #0x00,#0x0C	; 3072
	.byte #0x12,#0x00	; 18
	.byte #0x08,#0x01	; 264
	.byte #0x60,#0x00	; 96
	.byte #0x04,#0x00	; 4
	.byte #0x12,#0x00	; 18
	.byte #0x12,#0x00	; 18
	.byte #0x12,#0x00	; 18
	.byte #0x00,#0x0C	; 3072
	.byte #0x24,#0x04	; 1060
	.byte #0x08,#0x01	; 264
	.byte #0x82,#0x00	; 130
	.byte #0x10,#0x00	; 16
	.byte #0x00,#0x02	; 512
	.byte #0x01,#0x00	; 1
	.byte #0x40,#0x01	; 320
	.byte #0x00,#0x0C	; 3072
	.byte #0x08,#0x01	; 264
	.byte #0x08,#0x01	; 264
	.byte #0x00,#0x08	; 2048
	.byte #0x08,#0x01	; 264
	.byte #0x12,#0x00	; 18
	.byte #0x08,#0x01	; 264
	.byte #0x05,#0x00	; 5
	.byte #0xA0,#0x02	; 672
	.byte #0x00,#0x00	; 0
	.byte #0x04,#0x00	; 4
	.byte #0x04,#0x00	; 4
	.byte #0x04,#0x00	; 4
	.byte #0x80,#0x06	; 1664
	.byte #0x02,#0x01	; 258
	.byte #0x11,#0x00	; 17
	.byte #0x04,#0x00	; 4
	.byte #0x04,#0x00	; 4
	.byte #0x04,#0x00	; 4
	.byte #0x04,#0x00	; 4
	.byte #0x04,#0x00	; 4
	.byte #0x20,#0x08	; 2080
	.byte #0x04,#0x00	; 4
	.byte #0x04,#0x00	; 4
	.byte #0x04,#0x00	; 4
	.byte #0x18,#0x00	; 24
	.byte #0x40,#0x04	; 1088
	.byte #0x82,#0x00	; 130
	.byte #0x04,#0x00	; 4
	.byte #0x20,#0x08	; 2080
	.byte #0x01,#0x00	; 1
	.byte #0x40,#0x01	; 320
	.byte #0x08,#0x02	; 520
	.byte #0x20,#0x08	; 2080
	.byte #0x04,#0x00	; 4
	.byte #0x04,#0x00	; 4
	.byte #0x04,#0x00	; 4
	.byte #0x20,#0x08	; 2080
	.byte #0x20,#0x08	; 2080
	.byte #0x20,#0x08	; 2080
	.byte #0x04,#0x00	; 4
	.byte #0x00,#0x09	; 2304
	.byte #0x30,#0x02	; 560
	.byte #0x82,#0x00	; 130
	.byte #0x04,#0x00	; 4
	.byte #0x4C,#0x00	; 76
	.byte #0x01,#0x00	; 1
	.byte #0x20,#0x00	; 32
	.byte #0x00,#0x0C	; 3072
	.byte #0x01,#0x04	; 1025
	.byte #0x04,#0x00	; 4
	.byte #0x04,#0x00	; 4
	.byte #0x04,#0x00	; 4
	.byte #0x12,#0x00	; 18
	.byte #0x80,#0x00	; 128
	.byte #0x00,#0x03	; 768
	.byte #0x04,#0x00	; 4
	.byte #0x82,#0x00	; 130
	.byte #0x01,#0x00	; 1
	.byte #0x82,#0x00	; 130
	.byte #0x82,#0x00	; 130
	.byte #0x01,#0x00	; 1
	.byte #0x01,#0x00	; 1
	.byte #0x82,#0x00	; 130
	.byte #0x01,#0x00	; 1
	.byte #0x40,#0x02	; 576
	.byte #0x08,#0x01	; 264
	.byte #0x82,#0x00	; 130
	.byte #0x04,#0x00	; 4
	.byte #0x20,#0x08	; 2080
	.byte #0x01,#0x00	; 1
	.byte #0x08,#0x04	; 1032
	.byte #0x50,#0x00	; 80
	.byte #0x00,#0x00	; 0
	.byte #0x28,#0x00	; 40
	.byte #0x02,#0x04	; 1026
	.byte #0x80,#0x03	; 896
	.byte #0x28,#0x00	; 40
	.byte #0x28,#0x00	; 40
	.byte #0x11,#0x00	; 17
	.byte #0x28,#0x00	; 40
	.byte #0x81,#0x00	; 129
	.byte #0x10,#0x08	; 2064
	.byte #0x60,#0x00	; 96
	.byte #0x04,#0x00	; 4
	.byte #0x04,#0x05	; 1284
	.byte #0x28,#0x00	; 40
	.byte #0x00,#0x0A	; 2560
	.byte #0x02,#0x00	; 2
	.byte #0x81,#0x00	; 129
	.byte #0x40,#0x04	; 1088
	.byte #0x0C,#0x08	; 2060
	.byte #0x10,#0x00	; 16
	.byte #0x00,#0x02	; 512
	.byte #0x28,#0x00	; 40
	.byte #0x40,#0x01	; 320
	.byte #0x02,#0x00	; 2
	.byte #0x81,#0x00	; 129
	.byte #0x81,#0x00	; 129
	.byte #0x81,#0x00	; 129
	.byte #0x02,#0x00	; 2
	.byte #0x81,#0x00	; 129
	.byte #0x02,#0x00	; 2
	.byte #0x02,#0x00	; 2
	.byte #0x02,#0x00	; 2
	.byte #0x00,#0x09	; 2304
	.byte #0x07,#0x00	; 7
	.byte #0x60,#0x00	; 96
	.byte #0x10,#0x00	; 16
	.byte #0x00,#0x02	; 512
	.byte #0x28,#0x00	; 40
	.byte #0x84,#0x00	; 132
	.byte #0x00,#0x0C	; 3072
	.byte #0x60,#0x00	; 96
	.byte #0x00,#0x06	; 1536
	.byte #0x60,#0x00	; 96
	.byte #0x60,#0x00	; 96
	.byte #0x12,#0x00	; 18
	.byte #0x80,#0x00	; 128
	.byte #0x60,#0x00	; 96
	.byte #0x01,#0x01	; 257
	.byte #0x00,#0x02	; 512
	.byte #0x10,#0x00	; 16
	.byte #0x10,#0x00	; 16
	.byte #0x10,#0x00	; 16
	.byte #0x00,#0x02	; 512
	.byte #0x00,#0x02	; 512
	.byte #0x00,#0x02	; 512
	.byte #0x10,#0x00	; 16
	.byte #0x81,#0x00	; 129
	.byte #0x08,#0x01	; 264
	.byte #0x60,#0x00	; 96
	.byte #0x10,#0x00	; 16
	.byte #0x00,#0x02	; 512
	.byte #0x44,#0x08	; 2116
	.byte #0x08,#0x04	; 1032
	.byte #0x02,#0x00	; 2
	.byte #0x00,#0x09	; 2304
	.byte #0x40,#0x04	; 1088
	.byte #0x11,#0x00	; 17
	.byte #0x04,#0x00	; 4
	.byte #0x11,#0x00	; 17
	.byte #0x28,#0x00	; 40
	.byte #0x11,#0x00	; 17
	.byte #0x11,#0x00	; 17
	.byte #0x0A,#0x02	; 522
	.byte #0x04,#0x00	; 4
	.byte #0x04,#0x00	; 4
	.byte #0x04,#0x00	; 4
	.byte #0x40,#0x00	; 64
	.byte #0x80,#0x00	; 128
	.byte #0x11,#0x00	; 17
	.byte #0x04,#0x00	; 4
	.byte #0x40,#0x04	; 1088
	.byte #0x40,#0x04	; 1088
	.byte #0x20,#0x02	; 544
	.byte #0x40,#0x04	; 1088
	.byte #0x06,#0x00	; 6
	.byte #0x40,#0x04	; 1088
	.byte #0x11,#0x00	; 17
	.byte #0x80,#0x08	; 2176
	.byte #0x81,#0x00	; 129
	.byte #0x40,#0x04	; 1088
	.byte #0x00,#0x01	; 256
	.byte #0x04,#0x00	; 4
	.byte #0x20,#0x08	; 2080
	.byte #0x10,#0x03	; 784
	.byte #0x08,#0x04	; 1032
	.byte #0x02,#0x00	; 2
	.byte #0x00,#0x09	; 2304
	.byte #0x00,#0x09	; 2304
	.byte #0x00,#0x09	; 2304
	.byte #0x08,#0x00	; 8
	.byte #0x00,#0x09	; 2304
	.byte #0x80,#0x00	; 128
	.byte #0x11,#0x00	; 17
	.byte #0x42,#0x02	; 578
	.byte #0x00,#0x09	; 2304
	.byte #0x80,#0x00	; 128
	.byte #0x60,#0x00	; 96
	.byte #0x04,#0x00	; 4
	.byte #0x80,#0x00	; 128
	.byte #0x80,#0x00	; 128
	.byte #0x08,#0x04	; 1032
	.byte #0x80,#0x00	; 128
	.byte #0x00,#0x09	; 2304
	.byte #0x40,#0x04	; 1088
	.byte #0x82,#0x00	; 130
	.byte #0x10,#0x00	; 16
	.byte #0x00,#0x02	; 512
	.byte #0x01,#0x00	; 1
	.byte #0x08,#0x04	; 1032
	.byte #0x24,#0x01	; 292
	.byte #0x14,#0x00	; 20
	.byte #0x22,#0x00	; 34
	.byte #0x08,#0x04	; 1032
	.byte #0x01,#0x0A	; 2561
	.byte #0x08,#0x04	; 1032
	.byte #0x80,#0x00	; 128
	.byte #0x08,#0x04	; 1032
	.byte #0x08,#0x04	; 1032
	.byte #0x00,#0x00	; 0
	.byte #0x00,#0x00	; 0
	.byte #0x00,#0x00	; 0
	.byte #0x10,#0x02	; 528
	.byte #0x00,#0x00	; 0
	.byte #0x10,#0x02	; 528
	.byte #0x10,#0x02	; 528
	.byte #0x10,#0x02	; 528
	.byte #0x00,#0x00	; 0
	.byte #0x0B,#0x00	; 11
	.byte #0x00,#0x08	; 2048
	.byte #0x40,#0x05	; 1344
	.byte #0x40,#0x00	; 64
	.byte #0x24,#0x00	; 36
	.byte #0x88,#0x00	; 136
	.byte #0x10,#0x02	; 528
	.byte #0x00,#0x00	; 0
	.byte #0x04,#0x01	; 260
	.byte #0x00,#0x08	; 2048
	.byte #0x21,#0x00	; 33
	.byte #0xA2,#0x00	; 162
	.byte #0x48,#0x08	; 2120
	.byte #0x04,#0x04	; 1028
	.byte #0x10,#0x02	; 528
	.byte #0x00,#0x08	; 2048
	.byte #0x80,#0x02	; 640
	.byte #0x00,#0x08	; 2048
	.byte #0x00,#0x08	; 2048
	.byte #0x11,#0x01	; 273
	.byte #0x00,#0x04	; 1024
	.byte #0x00,#0x08	; 2048
	.byte #0x02,#0x00	; 2
	.byte #0x00,#0x00	; 0
	.byte #0xC0,#0x00	; 192
	.byte #0x00,#0x08	; 2048
	.byte #0x08,#0x00	; 8
	.byte #0x08,#0x05	; 1288
	.byte #0x24,#0x00	; 36
	.byte #0x43,#0x00	; 67
	.byte #0x10,#0x02	; 528
	.byte #0x00,#0x08	; 2048
	.byte #0x24,#0x00	; 36
	.byte #0x00,#0x08	; 2048
	.byte #0x00,#0x08	; 2048
	.byte #0x24,#0x00	; 36
	.byte #0x24,#0x00	; 36
	.byte #0x00,#0x08	; 2048
	.byte #0x24,#0x00	; 36
	.byte #0x00,#0x08	; 2048
	.byte #0x12,#0x04	; 1042
	.byte #0x00,#0x08	; 2048
	.byte #0x00,#0x08	; 2048
	.byte #0x00,#0x02	; 512
	.byte #0x01,#0x00	; 1
	.byte #0x00,#0x08	; 2048
	.byte #0x80,#0x01	; 384
	.byte #0x00,#0x08	; 2048
	.byte #0x00,#0x08	; 2048
	.byte #0x00,#0x08	; 2048
	.byte #0x00,#0x08	; 2048
	.byte #0x00,#0x08	; 2048
	.byte #0x24,#0x00	; 36
	.byte #0x00,#0x08	; 2048
	.byte #0x00,#0x08	; 2048
	.byte #0x00,#0x00	; 0
	.byte #0x20,#0x0C	; 3104
	.byte #0x81,#0x01	; 385
	.byte #0x08,#0x00	; 8
	.byte #0x40,#0x00	; 64
	.byte #0x02,#0x01	; 258
	.byte #0x04,#0x04	; 1028
	.byte #0x10,#0x02	; 528
	.byte #0x40,#0x00	; 64
	.byte #0x80,#0x02	; 640
	.byte #0x32,#0x00	; 50
	.byte #0x04,#0x00	; 4
	.byte #0x40,#0x00	; 64
	.byte #0x40,#0x00	; 64
	.byte #0x40,#0x00	; 64
	.byte #0x01,#0x08	; 2049
	.byte #0x18,#0x00	; 24
	.byte #0x80,#0x02	; 640
	.byte #0x04,#0x04	; 1028
	.byte #0x42,#0x00	; 66
	.byte #0x04,#0x04	; 1028
	.byte #0x01,#0x00	; 1
	.byte #0x04,#0x04	; 1028
	.byte #0x04,#0x04	; 1028
	.byte #0x80,#0x02	; 640
	.byte #0x80,#0x02	; 640
	.byte #0x00,#0x08	; 2048
	.byte #0x80,#0x02	; 640
	.byte #0x40,#0x00	; 64
	.byte #0x80,#0x02	; 640
	.byte #0x04,#0x04	; 1028
	.byte #0x28,#0x01	; 296
	.byte #0x06,#0x02	; 518
	.byte #0x08,#0x00	; 8
	.byte #0x08,#0x00	; 8
	.byte #0x08,#0x00	; 8
	.byte #0x90,#0x08	; 2192
	.byte #0x01,#0x00	; 1
	.byte #0x20,#0x00	; 32
	.byte #0x08,#0x00	; 8
	.byte #0x01,#0x04	; 1025
	.byte #0x10,#0x01	; 272
	.byte #0x00,#0x08	; 2048
	.byte #0x08,#0x00	; 8
	.byte #0x40,#0x00	; 64
	.byte #0x24,#0x00	; 36
	.byte #0x00,#0x03	; 768
	.byte #0x82,#0x04	; 1154
	.byte #0x60,#0x01	; 352
	.byte #0x01,#0x00	; 1
	.byte #0x00,#0x08	; 2048
	.byte #0x08,#0x00	; 8
	.byte #0x01,#0x00	; 1
	.byte #0x01,#0x00	; 1
	.byte #0x04,#0x04	; 1028
	.byte #0x01,#0x00	; 1
	.byte #0x00,#0x08	; 2048
	.byte #0x80,#0x02	; 640
	.byte #0x00,#0x08	; 2048
	.byte #0x00,#0x08	; 2048
	.byte #0x0A,#0x00	; 10
	.byte #0x01,#0x00	; 1
	.byte #0x00,#0x08	; 2048
	.byte #0x50,#0x00	; 80
	.byte #0x00,#0x00	; 0
	.byte #0x04,#0x01	; 260
	.byte #0x02,#0x04	; 1026
	.byte #0x08,#0x00	; 8
	.byte #0x40,#0x00	; 64
	.byte #0x81,#0x04	; 1153
	.byte #0x20,#0x09	; 2336
	.byte #0x10,#0x02	; 528
	.byte #0x40,#0x00	; 64
	.byte #0x10,#0x08	; 2064
	.byte #0x05,#0x02	; 517
	.byte #0xA0,#0x00	; 160
	.byte #0x40,#0x00	; 64
	.byte #0x40,#0x00	; 64
	.byte #0x40,#0x00	; 64
	.byte #0x02,#0x00	; 2
	.byte #0x04,#0x01	; 260
	.byte #0x04,#0x01	; 260
	.byte #0xD0,#0x00	; 208
	.byte #0x04,#0x01	; 260
	.byte #0x00,#0x02	; 512
	.byte #0x04,#0x01	; 260
	.byte #0x09,#0x00	; 9
	.byte #0x02,#0x00	; 2
	.byte #0x28,#0x04	; 1064
	.byte #0x04,#0x01	; 260
	.byte #0x00,#0x08	; 2048
	.byte #0x02,#0x00	; 2
	.byte #0x40,#0x00	; 64
	.byte #0x02,#0x00	; 2
	.byte #0x02,#0x00	; 2
	.byte #0x02,#0x00	; 2
	.byte #0x31,#0x00	; 49
	.byte #0x08,#0x00	; 8
	.byte #0x08,#0x00	; 8
	.byte #0x08,#0x00	; 8
	.byte #0x00,#0x02	; 512
	.byte #0x02,#0x08	; 2050
	.byte #0x84,#0x00	; 132
	.byte #0x08,#0x00	; 8
	.byte #0x82,#0x01	; 386
	.byte #0x00,#0x06	; 1536
	.byte #0x00,#0x08	; 2048
	.byte #0x08,#0x00	; 8
	.byte #0x40,#0x00	; 64
	.byte #0x24,#0x00	; 36
	.byte #0x10,#0x04	; 1040
	.byte #0x01,#0x01	; 257
	.byte #0x00,#0x02	; 512
	.byte #0x04,#0x01	; 260
	.byte #0x00,#0x08	; 2048
	.byte #0x08,#0x00	; 8
	.byte #0x00,#0x02	; 512
	.byte #0x00,#0x02	; 512
	.byte #0x00,#0x02	; 512
	.byte #0x60,#0x04	; 1120
	.byte #0x00,#0x08	; 2048
	.byte #0x41,#0x00	; 65
	.byte #0x00,#0x08	; 2048
	.byte #0x00,#0x08	; 2048
	.byte #0x00,#0x02	; 512
	.byte #0x98,#0x00	; 152
	.byte #0x00,#0x08	; 2048
	.byte #0x02,#0x00	; 2
	.byte #0x40,#0x00	; 64
	.byte #0x08,#0x00	; 8
	.byte #0x08,#0x00	; 8
	.byte #0x08,#0x00	; 8
	.byte #0x40,#0x00	; 64
	.byte #0x40,#0x00	; 64
	.byte #0x40,#0x00	; 64
	.byte #0x08,#0x00	; 8
	.byte #0x40,#0x00	; 64
	.byte #0x40,#0x00	; 64
	.byte #0x40,#0x00	; 64
	.byte #0x08,#0x00	; 8
	.byte #0x40,#0x00	; 64
	.byte #0x40,#0x00	; 64
	.byte #0x40,#0x00	; 64
	.byte #0x40,#0x00	; 64
	.byte #0x03,#0x08	; 2051
	.byte #0x04,#0x01	; 260
	.byte #0x20,#0x02	; 544
	.byte #0x08,#0x00	; 8
	.byte #0x40,#0x00	; 64
	.byte #0x30,#0x00	; 48
	.byte #0x04,#0x04	; 1028
	.byte #0x80,#0x08	; 2176
	.byte #0x40,#0x00	; 64
	.byte #0x80,#0x02	; 640
	.byte #0x00,#0x01	; 256
	.byte #0x11,#0x04	; 1041
	.byte #0x40,#0x00	; 64
	.byte #0x40,#0x00	; 64
	.byte #0x40,#0x00	; 64
	.byte #0x02,#0x00	; 2
	.byte #0x08,#0x00	; 8
	.byte #0x08,#0x00	; 8
	.byte #0x08,#0x00	; 8
	.byte #0x08,#0x00	; 8
	.byte #0x40,#0x00	; 64
	.byte #0x08,#0x00	; 8
	.byte #0x08,#0x00	; 8
	.byte #0x08,#0x00	; 8
	.byte #0x40,#0x00	; 64
	.byte #0x08,#0x00	; 8
	.byte #0x08,#0x00	; 8
	.byte #0x08,#0x00	; 8
	.byte #0x40,#0x00	; 64
	.byte #0x40,#0x00	; 64
	.byte #0x40,#0x00	; 64
	.byte #0x08,#0x00	; 8
	.byte #0x80,#0x04	; 1152
	.byte #0x08,#0x00	; 8
	.byte #0x08,#0x00	; 8
	.byte #0x08,#0x00	; 8
	.byte #0x00,#0x02	; 512
	.byte #0x01,#0x00	; 1
	.byte #0x12,#0x01	; 274
	.byte #0x08,#0x00	; 8
	.byte #0x14,#0x00	; 20
	.byte #0x22,#0x00	; 34
	.byte #0x00,#0x08	; 2048
	.byte #0x08,#0x00	; 8
	.byte #0x40,#0x00	; 64
	.byte #0x00,#0x0D	; 3328
	.byte #0xA1,#0x00	; 161
	.byte #0x04,#0x02	; 516
	.byte #0x00,#0x00	; 0
	.byte #0xC0,#0x00	; 192
	.byte #0x02,#0x04	; 1026
	.byte #0x21,#0x00	; 33
	.byte #0x05,#0x08	; 2053
	.byte #0x02,#0x01	; 258
	.byte #0x88,#0x00	; 136
	.byte #0x10,#0x02	; 528
	.byte #0x20,#0x03	; 800
	.byte #0x10,#0x08	; 2064
	.byte #0x88,#0x00	; 136
	.byte #0x04,#0x00	; 4
	.byte #0x88,#0x00	; 136
	.byte #0x00,#0x04	; 1024
	.byte #0x88,#0x00	; 136
	.byte #0x88,#0x00	; 136
	.byte #0x18,#0x00	; 24
	.byte #0x21,#0x00	; 33
	.byte #0x21,#0x00	; 33
	.byte #0x21,#0x00	; 33
	.byte #0x00,#0x02	; 512
	.byte #0x00,#0x04	; 1024
	.byte #0x40,#0x01	; 320
	.byte #0x21,#0x00	; 33
	.byte #0x46,#0x00	; 70
	.byte #0x00,#0x04	; 1024
	.byte #0x00,#0x08	; 2048
	.byte #0x21,#0x00	; 33
	.byte #0x00,#0x04	; 1024
	.byte #0x00,#0x04	; 1024
	.byte #0x88,#0x00	; 136
	.byte #0x00,#0x04	; 1024
	.byte #0xC0,#0x00	; 192
	.byte #0xC0,#0x00	; 192
	.byte #0x14,#0x01	; 276
	.byte #0xC0,#0x00	; 192
	.byte #0x00,#0x02	; 512
	.byte #0xC0,#0x00	; 192
	.byte #0x20,#0x00	; 32
	.byte #0x00,#0x0C	; 3072
	.byte #0x01,#0x04	; 1025
	.byte #0xC0,#0x00	; 192
	.byte #0x00,#0x08	; 2048
	.byte #0x02,#0x02	; 514
	.byte #0x12,#0x00	; 18
	.byte #0x24,#0x00	; 36
	.byte #0x88,#0x00	; 136
	.byte #0x01,#0x01	; 257
	.byte #0x00,#0x02	; 512
	.byte #0xC0,#0x00	; 192
	.byte #0x00,#0x08	; 2048
	.byte #0x21,#0x00	; 33
	.byte #0x00,#0x02	; 512
	.byte #0x00,#0x02	; 512
	.byte #0x00,#0x02	; 512
	.byte #0x0E,#0x00	; 14
	.byte #0x00,#0x08	; 2048
	.byte #0x08,#0x01	; 264
	.byte #0x00,#0x08	; 2048
	.byte #0x00,#0x08	; 2048
	.byte #0x00,#0x02	; 512
	.byte #0x00,#0x04	; 1024
	.byte #0x00,#0x08	; 2048
	.byte #0x50,#0x00	; 80
	.byte #0x18,#0x00	; 24
	.byte #0x02,#0x01	; 258
	.byte #0x40,#0x0A	; 2624
	.byte #0x04,#0x00	; 4
	.byte #0x02,#0x01	; 258
	.byte #0x02,#0x01	; 258
	.byte #0x20,#0x00	; 32
	.byte #0x02,#0x01	; 258
	.byte #0x01,#0x04	; 1025
	.byte #0x04,#0x00	; 4
	.byte #0x04,#0x00	; 4
	.byte #0x04,#0x00	; 4
	.byte #0x40,#0x00	; 64
	.byte #0x02,#0x01	; 258
	.byte #0x88,#0x00	; 136
	.byte #0x04,#0x00	; 4
	.byte #0x18,#0x00	; 24
	.byte #0x18,#0x00	; 24
	.byte #0x18,#0x00	; 24
	.byte #0x21,#0x00	; 33
	.byte #0x18,#0x00	; 24
	.byte #0x02,#0x01	; 258
	.byte #0x04,#0x04	; 1028
	.byte #0x80,#0x08	; 2176
	.byte #0x18,#0x00	; 24
	.byte #0x80,#0x02	; 640
	.byte #0x00,#0x01	; 256
	.byte #0x04,#0x00	; 4
	.byte #0x20,#0x08	; 2080
	.byte #0x00,#0x04	; 1024
	.byte #0x03,#0x02	; 515
	.byte #0x50,#0x00	; 80
	.byte #0x01,#0x04	; 1025
	.byte #0xC0,#0x00	; 192
	.byte #0x20,#0x00	; 32
	.byte #0x08,#0x00	; 8
	.byte #0x20,#0x00	; 32
	.byte #0x02,#0x01	; 258
	.byte #0x20,#0x00	; 32
	.byte #0x20,#0x00	; 32
	.byte #0x01,#0x04	; 1025
	.byte #0x01,#0x04	; 1025
	.byte #0x01,#0x04	; 1025
	.byte #0x04,#0x00	; 4
	.byte #0x01,#0x04	; 1025
	.byte #0x08,#0x0A	; 2568
	.byte #0x20,#0x00	; 32
	.byte #0x50,#0x00	; 80
	.byte #0x18,#0x00	; 24
	.byte #0x04,#0x08	; 2052
	.byte #0x82,#0x00	; 130
	.byte #0x00,#0x07	; 1792
	.byte #0x00,#0x02	; 512
	.byte #0x01,#0x00	; 1
	.byte #0x20,#0x00	; 32
	.byte #0x50,#0x00	; 80
	.byte #0x01,#0x04	; 1025
	.byte #0x22,#0x00	; 34
	.byte #0x00,#0x08	; 2048
	.byte #0x50,#0x00	; 80
	.byte #0x84,#0x01	; 388
	.byte #0x50,#0x00	; 80
	.byte #0x50,#0x00	; 80
	.byte #0x50,#0x00	; 80
	.byte #0x02,#0x04	; 1026
	.byte #0x10,#0x08	; 2064
	.byte #0x02,#0x04	; 1026
	.byte #0x02,#0x04	; 1026
	.byte #0x00,#0x02	; 512
	.byte #0x28,#0x00	; 40
	.byte #0x02,#0x04	; 1026
	.byte #0x44,#0x00	; 68
	.byte #0x10,#0x08	; 2064
	.byte #0x10,#0x08	; 2064
	.byte #0x02,#0x04	; 1026
	.byte #0x10,#0x08	; 2064
	.byte #0x40,#0x00	; 64
	.byte #0x10,#0x08	; 2064
	.byte #0x88,#0x00	; 136
	.byte #0x01,#0x01	; 257
	.byte #0x00,#0x02	; 512
	.byte #0x04,#0x01	; 260
	.byte #0x02,#0x04	; 1026
	.byte #0x21,#0x00	; 33
	.byte #0x00,#0x02	; 512
	.byte #0x00,#0x02	; 512
	.byte #0x00,#0x02	; 512
	.byte #0x80,#0x08	; 2176
	.byte #0x81,#0x00	; 129
	.byte #0x10,#0x08	; 2064
	.byte #0x00,#0x01	; 256
	.byte #0x48,#0x02	; 584
	.byte #0x00,#0x02	; 512
	.byte #0x00,#0x04	; 1024
	.byte #0x34,#0x00	; 52
	.byte #0x02,#0x00	; 2
	.byte #0x00,#0x02	; 512
	.byte #0xC0,#0x00	; 192
	.byte #0x02,#0x04	; 1026
	.byte #0x08,#0x00	; 8
	.byte #0x00,#0x02	; 512
	.byte #0x00,#0x02	; 512
	.byte #0x00,#0x02	; 512
	.byte #0x01,#0x01	; 257
	.byte #0x0C,#0x00	; 12
	.byte #0x10,#0x08	; 2064
	.byte #0x60,#0x00	; 96
	.byte #0x01,#0x01	; 257
	.byte #0x00,#0x02	; 512
	.byte #0x01,#0x01	; 257
	.byte #0x01,#0x01	; 257
	.byte #0x01,#0x01	; 257
	.byte #0x00,#0x02	; 512
	.byte #0x00,#0x02	; 512
	.byte #0x00,#0x02	; 512
	.byte #0x10,#0x00	; 16
	.byte #0x00,#0x02	; 512
	.byte #0x00,#0x02	; 512
	.byte #0x00,#0x02	; 512
	.byte #0x00,#0x02	; 512
	.byte #0x00,#0x02	; 512
	.byte #0x22,#0x00	; 34
	.byte #0x00,#0x08	; 2048
	.byte #0x84,#0x04	; 1156
	.byte #0x00,#0x02	; 512
	.byte #0x00,#0x02	; 512
	.byte #0x00,#0x02	; 512
	.byte #0x01,#0x01	; 257
	.byte #0xA4,#0x00	; 164
	.byte #0x01,#0x02	; 513
	.byte #0x02,#0x04	; 1026
	.byte #0x08,#0x00	; 8
	.byte #0x40,#0x00	; 64
	.byte #0x02,#0x01	; 258
	.byte #0x11,#0x00	; 17
	.byte #0x80,#0x08	; 2176
	.byte #0x40,#0x00	; 64
	.byte #0x10,#0x08	; 2064
	.byte #0x00,#0x01	; 256
	.byte #0x04,#0x00	; 4
	.byte #0x40,#0x00	; 64
	.byte #0x40,#0x00	; 64
	.byte #0x40,#0x00	; 64
	.byte #0x20,#0x06	; 1568
	.byte #0x18,#0x00	; 24
	.byte #0x40,#0x04	; 1088
	.byte #0x00,#0x01	; 256
	.byte #0x80,#0x08	; 2176
	.byte #0x00,#0x02	; 512
	.byte #0x80,#0x08	; 2176
	.byte #0x80,#0x08	; 2176
	.byte #0x80,#0x08	; 2176
	.byte #0x00,#0x01	; 256
	.byte #0x22,#0x00	; 34
	.byte #0x00,#0x01	; 256
	.byte #0x00,#0x01	; 256
	.byte #0x40,#0x00	; 64
	.byte #0x0D,#0x00	; 13
	.byte #0x00,#0x01	; 256
	.byte #0x80,#0x08	; 2176
	.byte #0x00,#0x09	; 2304
	.byte #0x08,#0x00	; 8
	.byte #0x08,#0x00	; 8
	.byte #0x08,#0x00	; 8
	.byte #0x00,#0x02	; 512
	.byte #0x14,#0x04	; 1044
	.byte #0x20,#0x00	; 32
	.byte #0x08,#0x00	; 8
	.byte #0x01,#0x04	; 1025
	.byte #0x22,#0x00	; 34
	.byte #0x90,#0x02	; 656
	.byte #0x08,#0x00	; 8
	.byte #0x40,#0x00	; 64
	.byte #0x80,#0x00	; 128
	.byte #0x06,#0x08	; 2054
	.byte #0x01,#0x01	; 257
	.byte #0x00,#0x02	; 512
	.byte #0x22,#0x00	; 34
	.byte #0x45,#0x00	; 69
	.byte #0x08,#0x00	; 8
	.byte #0x00,#0x02	; 512
	.byte #0x00,#0x02	; 512
	.byte #0x00,#0x02	; 512
	.byte #0x80,#0x08	; 2176
	.byte #0x22,#0x00	; 34
	.byte #0x22,#0x00	; 34
	.byte #0x00,#0x01	; 256
	.byte #0x22,#0x00	; 34
	.byte #0x00,#0x02	; 512
	.byte #0x22,#0x00	; 34
	.byte #0x08,#0x04	; 1032
	.byte #0x50,#0x00	; 80
	.area XINIT   (CODE)
	.area CABS    (ABS,CODE)
