;--------------------------------------------------------
; File Created by SDCC : free open source ANSI-C Compiler
; Version 3.5.0 #9253 (Sep  7 2022) (Linux)
; This file was generated Wed Sep  7 10:05:05 2022
;--------------------------------------------------------
	.module flash
	.optsdcc -mmcs51 --model-large
	
;--------------------------------------------------------
; Public variables in this module
;--------------------------------------------------------
	.globl _app_signature
	.globl _SDN
	.globl _NSS1
	.globl _IRQ
	.globl _BUTTON_DOWN
	.globl _BUTTON_UP
	.globl _BUTTON_ENTER
	.globl _LED_GREEN
	.globl _LED_RED
	.globl _SPI0EN
	.globl _TXBMT0
	.globl _NSS0MD0
	.globl _NSS0MD1
	.globl _RXOVRN0
	.globl _MODF0
	.globl _WCOL0
	.globl _SPIF0
	.globl _AD0CM0
	.globl _AD0CM1
	.globl _AD0CM2
	.globl _AD0WINT
	.globl _AD0BUSY
	.globl _AD0INT
	.globl _BURSTEN
	.globl _AD0EN
	.globl _CCF0
	.globl _CCF1
	.globl _CCF2
	.globl _CCF3
	.globl _CCF4
	.globl _CCF5
	.globl _CR
	.globl _CF
	.globl _P
	.globl _F1
	.globl _OV
	.globl _RS0
	.globl _RS1
	.globl _F0
	.globl _AC
	.globl _CY
	.globl _T2XCLK
	.globl _T2RCLK
	.globl _TR2
	.globl _T2SPLIT
	.globl _TF2CEN
	.globl _TF2LEN
	.globl _TF2L
	.globl _TF2H
	.globl _SI
	.globl _ACK
	.globl _ARBLOST
	.globl _ACKRQ
	.globl _STO
	.globl _STA
	.globl _TXMODE
	.globl _MASTER
	.globl _PX0
	.globl _PT0
	.globl _PX1
	.globl _PT1
	.globl _PS0
	.globl _PT2
	.globl _PSPI0
	.globl _SPI1EN
	.globl _TXBMT1
	.globl _NSS1MD0
	.globl _NSS1MD1
	.globl _RXOVRN1
	.globl _MODF1
	.globl _WCOL1
	.globl _SPIF1
	.globl _EX0
	.globl _ET0
	.globl _EX1
	.globl _ET1
	.globl _ES0
	.globl _ET2
	.globl _ESPI0
	.globl _EA
	.globl _RI0
	.globl _TI0
	.globl _RB80
	.globl _TB80
	.globl _REN0
	.globl _MCE0
	.globl _S0MODE
	.globl _CRC0VAL
	.globl _CRC0INIT
	.globl _CRC0SEL
	.globl _IT0
	.globl _IE0
	.globl _IT1
	.globl _IE1
	.globl _TR0
	.globl _TF0
	.globl _TR1
	.globl _TF1
	.globl _PCA0CP4
	.globl _PCA0CP0
	.globl _PCA0
	.globl _PCA0CP3
	.globl _PCA0CP2
	.globl _PCA0CP1
	.globl _PCA0CP5
	.globl _TMR2
	.globl _TMR2RL
	.globl _ADC0LT
	.globl _ADC0GT
	.globl _ADC0
	.globl _TMR3
	.globl _TMR3RL
	.globl _TOFF
	.globl _DP
	.globl _VDM0CN
	.globl _PCA0CPH4
	.globl _PCA0CPL4
	.globl _PCA0CPH0
	.globl _PCA0CPL0
	.globl _PCA0H
	.globl _PCA0L
	.globl _SPI0CN
	.globl _EIP2
	.globl _EIP1
	.globl _SMB0ADM
	.globl _SMB0ADR
	.globl _P2MDIN
	.globl _P1MDIN
	.globl _P0MDIN
	.globl _B
	.globl _RSTSRC
	.globl _PCA0CPH3
	.globl _PCA0CPL3
	.globl _PCA0CPH2
	.globl _PCA0CPL2
	.globl _PCA0CPH1
	.globl _PCA0CPL1
	.globl _ADC0CN
	.globl _EIE2
	.globl _EIE1
	.globl _FLWR
	.globl _IT01CF
	.globl _XBR2
	.globl _XBR1
	.globl _XBR0
	.globl _ACC
	.globl _PCA0PWM
	.globl _PCA0CPM4
	.globl _PCA0CPM3
	.globl _PCA0CPM2
	.globl _PCA0CPM1
	.globl _PCA0CPM0
	.globl _PCA0MD
	.globl _PCA0CN
	.globl _P0MAT
	.globl _P2SKIP
	.globl _P1SKIP
	.globl _P0SKIP
	.globl _PCA0CPH5
	.globl _PCA0CPL5
	.globl _REF0CN
	.globl _PSW
	.globl _P1MAT
	.globl _PCA0CPM5
	.globl _TMR2H
	.globl _TMR2L
	.globl _TMR2RLH
	.globl _TMR2RLL
	.globl _REG0CN
	.globl _TMR2CN
	.globl _P0MASK
	.globl _ADC0LTH
	.globl _ADC0LTL
	.globl _ADC0GTH
	.globl _ADC0GTL
	.globl _SMB0DAT
	.globl _SMB0CF
	.globl _SMB0CN
	.globl _P1MASK
	.globl _ADC0H
	.globl _ADC0L
	.globl _ADC0TK
	.globl _ADC0CF
	.globl _ADC0MX
	.globl _ADC0PWR
	.globl _ADC0AC
	.globl _IREF0CN
	.globl _IP
	.globl _FLKEY
	.globl _FLSCL
	.globl _PMU0CF
	.globl _OSCICL
	.globl _OSCICN
	.globl _OSCXCN
	.globl _SPI1CN
	.globl _ONESHOT
	.globl _EMI0TC
	.globl _RTC0KEY
	.globl _RTC0DAT
	.globl _RTC0ADR
	.globl _EMI0CF
	.globl _EMI0CN
	.globl _CLKSEL
	.globl _IE
	.globl _SFRPAGE
	.globl _P2DRV
	.globl _P2MDOUT
	.globl _P1DRV
	.globl _P1MDOUT
	.globl _P0DRV
	.globl _P0MDOUT
	.globl _SPI0DAT
	.globl _SPI0CKR
	.globl _SPI0CFG
	.globl _P2
	.globl _CPT0MX
	.globl _CPT1MX
	.globl _CPT0MD
	.globl _CPT1MD
	.globl _CPT0CN
	.globl _CPT1CN
	.globl _SBUF0
	.globl _SCON0
	.globl _CRC0CNT
	.globl _DC0CN
	.globl _CRC0AUTO
	.globl _DC0CF
	.globl _TMR3H
	.globl _CRC0FLIP
	.globl _TMR3L
	.globl _CRC0IN
	.globl _TMR3RLH
	.globl _CRC0CN
	.globl _TMR3RLL
	.globl _CRC0DAT
	.globl _TMR3CN
	.globl _P1
	.globl _PSCTL
	.globl _CKCON
	.globl _TH1
	.globl _TH0
	.globl _TL1
	.globl _TL0
	.globl _TMOD
	.globl _TCON
	.globl _PCON
	.globl _TOFFH
	.globl _SPI1DAT
	.globl _TOFFL
	.globl _SPI1CKR
	.globl _SPI1CFG
	.globl _DPH
	.globl _DPL
	.globl _SP
	.globl _P0
	.globl _flash_write_scratch_PARM_2
	.globl _flash_erase_scratch
	.globl _flash_read_scratch
	.globl _flash_write_scratch
;--------------------------------------------------------
; special function registers
;--------------------------------------------------------
	.area RSEG    (ABS,DATA)
	.org 0x0000
_P0	=	0x0080
_SP	=	0x0081
_DPL	=	0x0082
_DPH	=	0x0083
_SPI1CFG	=	0x0084
_SPI1CKR	=	0x0085
_TOFFL	=	0x0085
_SPI1DAT	=	0x0086
_TOFFH	=	0x0086
_PCON	=	0x0087
_TCON	=	0x0088
_TMOD	=	0x0089
_TL0	=	0x008a
_TL1	=	0x008b
_TH0	=	0x008c
_TH1	=	0x008d
_CKCON	=	0x008e
_PSCTL	=	0x008f
_P1	=	0x0090
_TMR3CN	=	0x0091
_CRC0DAT	=	0x0091
_TMR3RLL	=	0x0092
_CRC0CN	=	0x0092
_TMR3RLH	=	0x0093
_CRC0IN	=	0x0093
_TMR3L	=	0x0094
_CRC0FLIP	=	0x0095
_TMR3H	=	0x0095
_DC0CF	=	0x0096
_CRC0AUTO	=	0x0096
_DC0CN	=	0x0097
_CRC0CNT	=	0x0097
_SCON0	=	0x0098
_SBUF0	=	0x0099
_CPT1CN	=	0x009a
_CPT0CN	=	0x009b
_CPT1MD	=	0x009c
_CPT0MD	=	0x009d
_CPT1MX	=	0x009e
_CPT0MX	=	0x009f
_P2	=	0x00a0
_SPI0CFG	=	0x00a1
_SPI0CKR	=	0x00a2
_SPI0DAT	=	0x00a3
_P0MDOUT	=	0x00a4
_P0DRV	=	0x00a4
_P1MDOUT	=	0x00a5
_P1DRV	=	0x00a5
_P2MDOUT	=	0x00a6
_P2DRV	=	0x00a6
_SFRPAGE	=	0x00a7
_IE	=	0x00a8
_CLKSEL	=	0x00a9
_EMI0CN	=	0x00aa
_EMI0CF	=	0x00ab
_RTC0ADR	=	0x00ac
_RTC0DAT	=	0x00ad
_RTC0KEY	=	0x00ae
_EMI0TC	=	0x00af
_ONESHOT	=	0x00af
_SPI1CN	=	0x00b0
_OSCXCN	=	0x00b1
_OSCICN	=	0x00b2
_OSCICL	=	0x00b3
_PMU0CF	=	0x00b5
_FLSCL	=	0x00b6
_FLKEY	=	0x00b7
_IP	=	0x00b8
_IREF0CN	=	0x00b9
_ADC0AC	=	0x00ba
_ADC0PWR	=	0x00ba
_ADC0MX	=	0x00bb
_ADC0CF	=	0x00bc
_ADC0TK	=	0x00bd
_ADC0L	=	0x00bd
_ADC0H	=	0x00be
_P1MASK	=	0x00bf
_SMB0CN	=	0x00c0
_SMB0CF	=	0x00c1
_SMB0DAT	=	0x00c2
_ADC0GTL	=	0x00c3
_ADC0GTH	=	0x00c4
_ADC0LTL	=	0x00c5
_ADC0LTH	=	0x00c6
_P0MASK	=	0x00c7
_TMR2CN	=	0x00c8
_REG0CN	=	0x00c9
_TMR2RLL	=	0x00ca
_TMR2RLH	=	0x00cb
_TMR2L	=	0x00cc
_TMR2H	=	0x00cd
_PCA0CPM5	=	0x00ce
_P1MAT	=	0x00cf
_PSW	=	0x00d0
_REF0CN	=	0x00d1
_PCA0CPL5	=	0x00d2
_PCA0CPH5	=	0x00d3
_P0SKIP	=	0x00d4
_P1SKIP	=	0x00d5
_P2SKIP	=	0x00d6
_P0MAT	=	0x00d7
_PCA0CN	=	0x00d8
_PCA0MD	=	0x00d9
_PCA0CPM0	=	0x00da
_PCA0CPM1	=	0x00db
_PCA0CPM2	=	0x00dc
_PCA0CPM3	=	0x00dd
_PCA0CPM4	=	0x00de
_PCA0PWM	=	0x00df
_ACC	=	0x00e0
_XBR0	=	0x00e1
_XBR1	=	0x00e2
_XBR2	=	0x00e3
_IT01CF	=	0x00e4
_FLWR	=	0x00e5
_EIE1	=	0x00e6
_EIE2	=	0x00e7
_ADC0CN	=	0x00e8
_PCA0CPL1	=	0x00e9
_PCA0CPH1	=	0x00ea
_PCA0CPL2	=	0x00eb
_PCA0CPH2	=	0x00ec
_PCA0CPL3	=	0x00ed
_PCA0CPH3	=	0x00ee
_RSTSRC	=	0x00ef
_B	=	0x00f0
_P0MDIN	=	0x00f1
_P1MDIN	=	0x00f2
_P2MDIN	=	0x00f3
_SMB0ADR	=	0x00f4
_SMB0ADM	=	0x00f5
_EIP1	=	0x00f6
_EIP2	=	0x00f7
_SPI0CN	=	0x00f8
_PCA0L	=	0x00f9
_PCA0H	=	0x00fa
_PCA0CPL0	=	0x00fb
_PCA0CPH0	=	0x00fc
_PCA0CPL4	=	0x00fd
_PCA0CPH4	=	0x00fe
_VDM0CN	=	0x00ff
_DP	=	0x8382
_TOFF	=	0x8685
_TMR3RL	=	0x9392
_TMR3	=	0x9594
_ADC0	=	0xbebd
_ADC0GT	=	0xc4c3
_ADC0LT	=	0xc6c5
_TMR2RL	=	0xcbca
_TMR2	=	0xcdcc
_PCA0CP5	=	0xd3d2
_PCA0CP1	=	0xeae9
_PCA0CP2	=	0xeceb
_PCA0CP3	=	0xeeed
_PCA0	=	0xfaf9
_PCA0CP0	=	0xfcfb
_PCA0CP4	=	0xfefd
;--------------------------------------------------------
; special function bits
;--------------------------------------------------------
	.area RSEG    (ABS,DATA)
	.org 0x0000
_TF1	=	0x008f
_TR1	=	0x008e
_TF0	=	0x008d
_TR0	=	0x008c
_IE1	=	0x008b
_IT1	=	0x008a
_IE0	=	0x0089
_IT0	=	0x0088
_CRC0SEL	=	0x0096
_CRC0INIT	=	0x0095
_CRC0VAL	=	0x0094
_S0MODE	=	0x009f
_MCE0	=	0x009d
_REN0	=	0x009c
_TB80	=	0x009b
_RB80	=	0x009a
_TI0	=	0x0099
_RI0	=	0x0098
_EA	=	0x00af
_ESPI0	=	0x00ae
_ET2	=	0x00ad
_ES0	=	0x00ac
_ET1	=	0x00ab
_EX1	=	0x00aa
_ET0	=	0x00a9
_EX0	=	0x00a8
_SPIF1	=	0x00b7
_WCOL1	=	0x00b6
_MODF1	=	0x00b5
_RXOVRN1	=	0x00b4
_NSS1MD1	=	0x00b3
_NSS1MD0	=	0x00b2
_TXBMT1	=	0x00b1
_SPI1EN	=	0x00b0
_PSPI0	=	0x00be
_PT2	=	0x00bd
_PS0	=	0x00bc
_PT1	=	0x00bb
_PX1	=	0x00ba
_PT0	=	0x00b9
_PX0	=	0x00b8
_MASTER	=	0x00c7
_TXMODE	=	0x00c6
_STA	=	0x00c5
_STO	=	0x00c4
_ACKRQ	=	0x00c3
_ARBLOST	=	0x00c2
_ACK	=	0x00c1
_SI	=	0x00c0
_TF2H	=	0x00cf
_TF2L	=	0x00ce
_TF2LEN	=	0x00cd
_TF2CEN	=	0x00cc
_T2SPLIT	=	0x00cb
_TR2	=	0x00ca
_T2RCLK	=	0x00c9
_T2XCLK	=	0x00c8
_CY	=	0x00d7
_AC	=	0x00d6
_F0	=	0x00d5
_RS1	=	0x00d4
_RS0	=	0x00d3
_OV	=	0x00d2
_F1	=	0x00d1
_P	=	0x00d0
_CF	=	0x00df
_CR	=	0x00de
_CCF5	=	0x00dd
_CCF4	=	0x00dc
_CCF3	=	0x00db
_CCF2	=	0x00da
_CCF1	=	0x00d9
_CCF0	=	0x00d8
_AD0EN	=	0x00ef
_BURSTEN	=	0x00ee
_AD0INT	=	0x00ed
_AD0BUSY	=	0x00ec
_AD0WINT	=	0x00eb
_AD0CM2	=	0x00ea
_AD0CM1	=	0x00e9
_AD0CM0	=	0x00e8
_SPIF0	=	0x00ff
_WCOL0	=	0x00fe
_MODF0	=	0x00fd
_RXOVRN0	=	0x00fc
_NSS0MD1	=	0x00fb
_NSS0MD0	=	0x00fa
_TXBMT0	=	0x00f9
_SPI0EN	=	0x00f8
_LED_RED	=	0x00a0
_LED_GREEN	=	0x00a5
_BUTTON_ENTER	=	0x0086
_BUTTON_UP	=	0x0095
_BUTTON_DOWN	=	0x0096
_IRQ	=	0x0087
_NSS1	=	0x0094
_SDN	=	0x00a6
;--------------------------------------------------------
; overlayable register banks
;--------------------------------------------------------
	.area REG_BANK_0	(REL,OVR,DATA)
	.ds 8
;--------------------------------------------------------
; internal ram data
;--------------------------------------------------------
	.area DSEG    (DATA)
;--------------------------------------------------------
; overlayable items in internal ram 
;--------------------------------------------------------
;--------------------------------------------------------
; indirectly addressable internal ram data
;--------------------------------------------------------
	.area ISEG    (DATA)
;--------------------------------------------------------
; absolute internal ram data
;--------------------------------------------------------
	.area IABS    (ABS,DATA)
	.area IABS    (ABS,DATA)
;--------------------------------------------------------
; bit data
;--------------------------------------------------------
	.area BSEG    (BIT)
;--------------------------------------------------------
; paged external ram data
;--------------------------------------------------------
	.area PSEG    (PAG,XDATA)
_flash_write_scratch_PARM_2:
	.ds 1
;--------------------------------------------------------
; external ram data
;--------------------------------------------------------
	.area XSEG    (XDATA)
;--------------------------------------------------------
; absolute external ram data
;--------------------------------------------------------
	.area XABS    (ABS,XDATA)
;--------------------------------------------------------
; external initialized ram data
;--------------------------------------------------------
	.area XISEG   (XDATA)
	.area HOME    (CODE)
	.area GSINIT0 (CODE)
	.area GSINIT1 (CODE)
	.area GSINIT2 (CODE)
	.area GSINIT3 (CODE)
	.area GSINIT4 (CODE)
	.area GSINIT5 (CODE)
	.area GSINIT  (CODE)
	.area GSFINAL (CODE)
	.area CSEG    (CODE)
;--------------------------------------------------------
; global & static initialisations
;--------------------------------------------------------
	.area HOME    (CODE)
	.area GSINIT  (CODE)
	.area GSFINAL (CODE)
	.area GSINIT  (CODE)
;--------------------------------------------------------
; Home
;--------------------------------------------------------
	.area HOME    (CODE)
	.area HOME    (CODE)
;--------------------------------------------------------
; code
;--------------------------------------------------------
	.area CSEG    (CODE)
;------------------------------------------------------------
;Allocation info for local variables in function 'flash_load_keys'
;------------------------------------------------------------
;	radio/flash.c:53: flash_load_keys(void)
;	-----------------------------------------
;	 function flash_load_keys
;	-----------------------------------------
_flash_load_keys:
	ar7 = 0x07
	ar6 = 0x06
	ar5 = 0x05
	ar4 = 0x04
	ar3 = 0x03
	ar2 = 0x02
	ar1 = 0x01
	ar0 = 0x00
;	radio/flash.c:55: FLKEY = 0xa5;
	mov	_FLKEY,#0xA5
;	radio/flash.c:56: FLKEY = 0xf1;
	mov	_FLKEY,#0xF1
	ret
;------------------------------------------------------------
;Allocation info for local variables in function 'flash_erase_scratch'
;------------------------------------------------------------
;	radio/flash.c:60: flash_erase_scratch(void)
;	-----------------------------------------
;	 function flash_erase_scratch
;	-----------------------------------------
_flash_erase_scratch:
	setb	c
	jbc	ea,00103$
	clr	c
00103$:
	push	psw
;	radio/flash.c:68: flash_load_keys();				// unlock flash for one operation
	lcall	_flash_load_keys
;	radio/flash.c:69: PSCTL = FLASH_ERASE_SCRATCH;	// enable flash erase of the scratch page
	mov	_PSCTL,#0x07
;	radio/flash.c:70: *(uint8_t __xdata *)FLASH_SCRATCH = 0xff;	// trigger the erase
	mov	dptr,#0x0000
	mov	a,#0xFF
	movx	@dptr,a
;	radio/flash.c:71: PSCTL = FLASH_DISABLE;			// disable flash write & scratch access
	mov	_PSCTL,#0x00
	pop	psw
	mov	ea,c
	ret
;------------------------------------------------------------
;Allocation info for local variables in function 'flash_read_scratch'
;------------------------------------------------------------
;d                         Allocated with name '_flash_read_scratch_d_1_129'
;------------------------------------------------------------
;	radio/flash.c:79: flash_read_scratch(__pdata uint16_t address)
;	-----------------------------------------
;	 function flash_read_scratch
;	-----------------------------------------
_flash_read_scratch:
	setb	c
	jbc	ea,00103$
	clr	c
00103$:
	push	psw
	mov	r6,dpl
	mov	r7,dph
;	radio/flash.c:88: PSCTL = FLASH_READ_SCRATCH;
	mov	_PSCTL,#0x04
;	radio/flash.c:89: d = *(uint8_t __code *)(FLASH_SCRATCH | address);
	mov	dpl,r6
	mov	dph,r7
	clr	a
	movc	a,@a+dptr
	mov	r7,a
;	radio/flash.c:90: PSCTL = FLASH_DISABLE;
	mov	_PSCTL,#0x00
;	radio/flash.c:95: return d;
	mov	dpl,r7
	pop	psw
	mov	ea,c
	ret
;------------------------------------------------------------
;Allocation info for local variables in function 'flash_write_scratch'
;------------------------------------------------------------
;	radio/flash.c:99: flash_write_scratch(__pdata uint16_t address, __pdata uint8_t c)
;	-----------------------------------------
;	 function flash_write_scratch
;	-----------------------------------------
_flash_write_scratch:
	setb	c
	jbc	ea,00103$
	clr	c
00103$:
	push	psw
	mov	r6,dpl
	mov	r7,dph
;	radio/flash.c:106: flash_load_keys();
	push	ar7
	push	ar6
	lcall	_flash_load_keys
	pop	ar6
	pop	ar7
;	radio/flash.c:107: PSCTL = 0x05;
	mov	_PSCTL,#0x05
;	radio/flash.c:108: *(uint8_t __xdata *)(FLASH_SCRATCH | address) = c;
	mov	dpl,r6
	mov	dph,r7
	mov	r0,#_flash_write_scratch_PARM_2
	movx	a,@r0
	movx	@dptr,a
;	radio/flash.c:113: PSCTL = FLASH_DISABLE;
	mov	_PSCTL,#0x00
	pop	psw
	mov	ea,c
	ret
	.area CSEG    (CODE)
	.area CONST   (CODE)
	.area XINIT   (CODE)
	.area CABS    (ABS,CODE)
	.org 0xF7FE
_app_signature:
	.db #0x3D	; 61
	.db #0xC2	; 194
